In archive build/clibp.o:

_syscall.o:     file format elf64-x86-64


Disassembly of section .text:

0000000000000000 <__syscall__>:
   0:	f3 0f 1e fa          	endbr64
   4:	55                   	push   rbp
   5:	48 89 e5             	mov    rbp,rsp
   8:	48 89 7d f8          	mov    QWORD PTR [rbp-0x8],rdi
   c:	48 89 75 f0          	mov    QWORD PTR [rbp-0x10],rsi
  10:	48 89 55 e8          	mov    QWORD PTR [rbp-0x18],rdx
  14:	48 89 4d e0          	mov    QWORD PTR [rbp-0x20],rcx
  18:	4c 89 45 d8          	mov    QWORD PTR [rbp-0x28],r8
  1c:	4c 89 4d d0          	mov    QWORD PTR [rbp-0x30],r9
  20:	48 8b 45 10          	mov    rax,QWORD PTR [rbp+0x10]
  24:	0f 05                	syscall
  26:	90                   	nop
  27:	5d                   	pop    rbp
  28:	c3                   	ret

0000000000000029 <__syscall>:
  29:	f3 0f 1e fa          	endbr64
  2d:	55                   	push   rbp
  2e:	48 89 e5             	mov    rbp,rsp
  31:	48 89 7d f8          	mov    QWORD PTR [rbp-0x8],rdi
  35:	48 89 75 f0          	mov    QWORD PTR [rbp-0x10],rsi
  39:	48 89 55 e8          	mov    QWORD PTR [rbp-0x18],rdx
  3d:	48 89 4d e0          	mov    QWORD PTR [rbp-0x20],rcx
  41:	4c 89 45 d8          	mov    QWORD PTR [rbp-0x28],r8
  45:	4c 89 4d d0          	mov    QWORD PTR [rbp-0x30],r9
  49:	48 8b 45 f8          	mov    rax,QWORD PTR [rbp-0x8]
  4d:	48 83 7d f0 ff       	cmp    QWORD PTR [rbp-0x10],0xffffffffffffffff
  52:	75 04                	jne    58 <__syscall+0x2f>
  54:	0f 05                	syscall
  56:	eb 51                	jmp    a9 <__syscall+0x80>
  58:	48 8b 7d f0          	mov    rdi,QWORD PTR [rbp-0x10]
  5c:	48 83 7d e8 ff       	cmp    QWORD PTR [rbp-0x18],0xffffffffffffffff
  61:	75 04                	jne    67 <__syscall+0x3e>
  63:	0f 05                	syscall
  65:	eb 42                	jmp    a9 <__syscall+0x80>
  67:	48 8b 75 e8          	mov    rsi,QWORD PTR [rbp-0x18]
  6b:	48 83 7d e0 ff       	cmp    QWORD PTR [rbp-0x20],0xffffffffffffffff
  70:	75 04                	jne    76 <__syscall+0x4d>
  72:	0f 05                	syscall
  74:	eb 33                	jmp    a9 <__syscall+0x80>
  76:	48 8b 55 e0          	mov    rdx,QWORD PTR [rbp-0x20]
  7a:	48 83 7d d8 ff       	cmp    QWORD PTR [rbp-0x28],0xffffffffffffffff
  7f:	75 04                	jne    85 <__syscall+0x5c>
  81:	0f 05                	syscall
  83:	eb 24                	jmp    a9 <__syscall+0x80>
  85:	4c 8b 55 d8          	mov    r10,QWORD PTR [rbp-0x28]
  89:	48 83 7d d0 ff       	cmp    QWORD PTR [rbp-0x30],0xffffffffffffffff
  8e:	75 04                	jne    94 <__syscall+0x6b>
  90:	0f 05                	syscall
  92:	eb 15                	jmp    a9 <__syscall+0x80>
  94:	4c 8b 45 d0          	mov    r8,QWORD PTR [rbp-0x30]
  98:	48 83 7d 10 ff       	cmp    QWORD PTR [rbp+0x10],0xffffffffffffffff
  9d:	75 04                	jne    a3 <__syscall+0x7a>
  9f:	0f 05                	syscall
  a1:	eb 06                	jmp    a9 <__syscall+0x80>
  a3:	4c 8b 4d 10          	mov    r9,QWORD PTR [rbp+0x10]
  a7:	0f 05                	syscall
  a9:	5d                   	pop    rbp
  aa:	c3                   	ret

00000000000000ab <___syscall__>:
  ab:	f3 0f 1e fa          	endbr64
  af:	55                   	push   rbp
  b0:	48 89 e5             	mov    rbp,rsp
  b3:	48 89 7d f8          	mov    QWORD PTR [rbp-0x8],rdi
  b7:	48 89 75 f0          	mov    QWORD PTR [rbp-0x10],rsi
  bb:	48 89 55 e8          	mov    QWORD PTR [rbp-0x18],rdx
  bf:	48 89 4d e0          	mov    QWORD PTR [rbp-0x20],rcx
  c3:	4c 89 45 d8          	mov    QWORD PTR [rbp-0x28],r8
  c7:	4c 89 4d d0          	mov    QWORD PTR [rbp-0x30],r9
  cb:	48 8b 45 10          	mov    rax,QWORD PTR [rbp+0x10]
  cf:	48 8b 7d f8          	mov    rdi,QWORD PTR [rbp-0x8]
  d3:	48 8b 75 f0          	mov    rsi,QWORD PTR [rbp-0x10]
  d7:	48 8b 55 e8          	mov    rdx,QWORD PTR [rbp-0x18]
  db:	4c 8b 55 e0          	mov    r10,QWORD PTR [rbp-0x20]
  df:	4c 8b 45 d8          	mov    r8,QWORD PTR [rbp-0x28]
  e3:	4c 8b 4d d0          	mov    r9,QWORD PTR [rbp-0x30]
  e7:	0f 05                	syscall
  e9:	5d                   	pop    rbp
  ea:	c3                   	ret

00000000000000eb <__sys_mmap>:
  eb:	f3 0f 1e fa          	endbr64
  ef:	55                   	push   rbp
  f0:	48 89 e5             	mov    rbp,rsp
  f3:	48 83 ec 40          	sub    rsp,0x40
  f7:	48 89 7d e8          	mov    QWORD PTR [rbp-0x18],rdi
  fb:	48 89 75 e0          	mov    QWORD PTR [rbp-0x20],rsi
  ff:	48 89 55 d8          	mov    QWORD PTR [rbp-0x28],rdx
 103:	48 89 4d d0          	mov    QWORD PTR [rbp-0x30],rcx
 107:	4c 89 45 c8          	mov    QWORD PTR [rbp-0x38],r8
 10b:	4c 89 4d c0          	mov    QWORD PTR [rbp-0x40],r9
 10f:	b8 09 00 00 00       	mov    eax,0x9
 114:	48 8b 7d e8          	mov    rdi,QWORD PTR [rbp-0x18]
 118:	48 8b 75 e0          	mov    rsi,QWORD PTR [rbp-0x20]
 11c:	48 8b 55 d8          	mov    rdx,QWORD PTR [rbp-0x28]
 120:	4c 8b 55 d0          	mov    r10,QWORD PTR [rbp-0x30]
 124:	4c 8b 45 c8          	mov    r8,QWORD PTR [rbp-0x38]
 128:	4c 8b 4d c0          	mov    r9,QWORD PTR [rbp-0x40]
 12c:	0f 05                	syscall
 12e:	48 89 45 f8          	mov    QWORD PTR [rbp-0x8],rax
 132:	48 85 c0             	test   rax,rax
 135:	79 0b                	jns    142 <__sys_mmap+0x57>
 137:	48 8b 45 f8          	mov    rax,QWORD PTR [rbp-0x8]
 13b:	89 c7                	mov    edi,eax
 13d:	e8 00 00 00 00       	call   142 <__sys_mmap+0x57>
 142:	48 8b 45 f8          	mov    rax,QWORD PTR [rbp-0x8]
 146:	c9                   	leave
 147:	c3                   	ret

0000000000000148 <__setsockopt>:
 148:	f3 0f 1e fa          	endbr64
 14c:	55                   	push   rbp
 14d:	48 89 e5             	mov    rbp,rsp
 150:	48 83 ec 40          	sub    rsp,0x40
 154:	48 89 7d e8          	mov    QWORD PTR [rbp-0x18],rdi
 158:	48 89 75 e0          	mov    QWORD PTR [rbp-0x20],rsi
 15c:	48 89 55 d8          	mov    QWORD PTR [rbp-0x28],rdx
 160:	48 89 4d d0          	mov    QWORD PTR [rbp-0x30],rcx
 164:	4c 89 45 c8          	mov    QWORD PTR [rbp-0x38],r8
 168:	b8 36 00 00 00       	mov    eax,0x36
 16d:	48 8b 7d e8          	mov    rdi,QWORD PTR [rbp-0x18]
 171:	48 8b 75 e0          	mov    rsi,QWORD PTR [rbp-0x20]
 175:	48 8b 55 d8          	mov    rdx,QWORD PTR [rbp-0x28]
 179:	4c 8b 55 d0          	mov    r10,QWORD PTR [rbp-0x30]
 17d:	4c 8b 45 c8          	mov    r8,QWORD PTR [rbp-0x38]
 181:	0f 05                	syscall
 183:	48 89 45 f8          	mov    QWORD PTR [rbp-0x8],rax
 187:	48 85 c0             	test   rax,rax
 18a:	79 0b                	jns    197 <__setsockopt+0x4f>
 18c:	48 8b 45 f8          	mov    rax,QWORD PTR [rbp-0x8]
 190:	89 c7                	mov    edi,eax
 192:	e8 00 00 00 00       	call   197 <__setsockopt+0x4f>
 197:	48 8b 45 f8          	mov    rax,QWORD PTR [rbp-0x8]
 19b:	c9                   	leave
 19c:	c3                   	ret

allocator.o:     file format elf64-x86-64


Disassembly of section .text:

0000000000000000 <__get_total_mem_used__>:
   0:	f3 0f 1e fa          	endbr64
   4:	55                   	push   rbp
   5:	48 89 e5             	mov    rbp,rsp
   8:	8b 05 00 00 00 00    	mov    eax,DWORD PTR [rip+0x0]        # e <__get_total_mem_used__+0xe>
   e:	5d                   	pop    rbp
   f:	c3                   	ret

0000000000000010 <__is_heap_init__>:
  10:	f3 0f 1e fa          	endbr64
  14:	55                   	push   rbp
  15:	48 89 e5             	mov    rbp,rsp
  18:	48 8b 05 00 00 00 00 	mov    rax,QWORD PTR [rip+0x0]        # 1f <__is_heap_init__+0xf>
  1f:	48 85 c0             	test   rax,rax
  22:	0f 95 c0             	setne  al
  25:	0f b6 c0             	movzx  eax,al
  28:	5d                   	pop    rbp
  29:	c3                   	ret

000000000000002a <set_heap_sz>:
  2a:	f3 0f 1e fa          	endbr64
  2e:	55                   	push   rbp
  2f:	48 89 e5             	mov    rbp,rsp
  32:	89 7d fc             	mov    DWORD PTR [rbp-0x4],edi
  35:	8b 45 fc             	mov    eax,DWORD PTR [rbp-0x4]
  38:	89 05 00 00 00 00    	mov    DWORD PTR [rip+0x0],eax        # 3e <set_heap_sz+0x14>
  3e:	90                   	nop
  3f:	5d                   	pop    rbp
  40:	c3                   	ret

0000000000000041 <set_heap_debug>:
  41:	f3 0f 1e fa          	endbr64
  45:	55                   	push   rbp
  46:	48 89 e5             	mov    rbp,rsp
  49:	c7 05 00 00 00 00 01 	mov    DWORD PTR [rip+0x0],0x1        # 53 <set_heap_debug+0x12>
  50:	00 00 00 
  53:	90                   	nop
  54:	5d                   	pop    rbp
  55:	c3                   	ret

0000000000000056 <req_memory>:
  56:	f3 0f 1e fa          	endbr64
  5a:	55                   	push   rbp
  5b:	48 89 e5             	mov    rbp,rsp
  5e:	8b 05 00 00 00 00    	mov    eax,DWORD PTR [rip+0x0]        # 64 <req_memory+0xe>
  64:	85 c0                	test   eax,eax
  66:	75 0c                	jne    74 <req_memory+0x1e>
  68:	8b 05 00 00 00 00    	mov    eax,DWORD PTR [rip+0x0]        # 6e <req_memory+0x18>
  6e:	89 05 00 00 00 00    	mov    DWORD PTR [rip+0x0],eax        # 74 <req_memory+0x1e>
  74:	8b 05 00 00 00 00    	mov    eax,DWORD PTR [rip+0x0]        # 7a <req_memory+0x24>
  7a:	48 98                	cdqe
  7c:	48 8b 15 00 00 00 00 	mov    rdx,QWORD PTR [rip+0x0]        # 83 <req_memory+0x2d>
  83:	48 89 d7             	mov    rdi,rdx
  86:	48 83 ec 08          	sub    rsp,0x8
  8a:	6a 0a                	push   0xa
  8c:	41 b9 00 00 00 00    	mov    r9d,0x0
  92:	41 b8 00 00 00 00    	mov    r8d,0x0
  98:	b9 00 00 00 00       	mov    ecx,0x0
  9d:	ba 03 00 00 00       	mov    edx,0x3
  a2:	48 89 c6             	mov    rsi,rax
  a5:	e8 00 00 00 00       	call   aa <req_memory+0x54>
  aa:	48 83 c4 10          	add    rsp,0x10
  ae:	48 85 c0             	test   rax,rax
  b1:	74 1f                	je     d2 <req_memory+0x7c>
  b3:	ba 1c 00 00 00       	mov    edx,0x1c
  b8:	48 8d 05 00 00 00 00 	lea    rax,[rip+0x0]        # bf <req_memory+0x69>
  bf:	48 89 c6             	mov    rsi,rax
  c2:	48 8d 05 00 00 00 00 	lea    rax,[rip+0x0]        # c9 <req_memory+0x73>
  c9:	48 89 c7             	mov    rdi,rax
  cc:	e8 00 00 00 00       	call   d1 <req_memory+0x7b>
  d1:	90                   	nop
  d2:	c9                   	leave
  d3:	c3                   	ret

00000000000000d4 <init_mem>:
  d4:	f3 0f 1e fa          	endbr64
  d8:	55                   	push   rbp
  d9:	48 89 e5             	mov    rbp,rsp
  dc:	48 83 ec 10          	sub    rsp,0x10
  e0:	8b 05 00 00 00 00    	mov    eax,DWORD PTR [rip+0x0]        # e6 <init_mem+0x12>
  e6:	48 98                	cdqe
  e8:	41 b9 00 00 00 00    	mov    r9d,0x0
  ee:	49 c7 c0 ff ff ff ff 	mov    r8,0xffffffffffffffff
  f5:	b9 22 00 00 00       	mov    ecx,0x22
  fa:	ba 03 00 00 00       	mov    edx,0x3
  ff:	48 89 c6             	mov    rsi,rax
 102:	bf 00 00 00 00       	mov    edi,0x0
 107:	e8 00 00 00 00       	call   10c <init_mem+0x38>
 10c:	48 89 45 f8          	mov    QWORD PTR [rbp-0x8],rax
 110:	48 83 7d f8 00       	cmp    QWORD PTR [rbp-0x8],0x0
 115:	7f 1e                	jg     135 <init_mem+0x61>
 117:	ba 24 00 00 00       	mov    edx,0x24
 11c:	48 8d 05 00 00 00 00 	lea    rax,[rip+0x0]        # 123 <init_mem+0x4f>
 123:	48 89 c6             	mov    rsi,rax
 126:	48 8d 05 00 00 00 00 	lea    rax,[rip+0x0]        # 12d <init_mem+0x59>
 12d:	48 89 c7             	mov    rdi,rax
 130:	e8 00 00 00 00       	call   135 <init_mem+0x61>
 135:	48 8b 45 f8          	mov    rax,QWORD PTR [rbp-0x8]
 139:	48 89 05 00 00 00 00 	mov    QWORD PTR [rip+0x0],rax        # 140 <init_mem+0x6c>
 140:	8b 05 00 00 00 00    	mov    eax,DWORD PTR [rip+0x0]        # 146 <init_mem+0x72>
 146:	48 63 d0             	movsxd rdx,eax
 149:	48 8b 05 00 00 00 00 	mov    rax,QWORD PTR [rip+0x0]        # 150 <init_mem+0x7c>
 150:	be 01 00 00 00       	mov    esi,0x1
 155:	48 89 c7             	mov    rdi,rax
 158:	e8 00 00 00 00       	call   15d <init_mem+0x89>
 15d:	8b 05 00 00 00 00    	mov    eax,DWORD PTR [rip+0x0]        # 163 <init_mem+0x8f>
 163:	85 c0                	test   eax,eax
 165:	74 0f                	je     176 <init_mem+0xa2>
 167:	48 8d 05 00 00 00 00 	lea    rax,[rip+0x0]        # 16e <init_mem+0x9a>
 16e:	48 89 c7             	mov    rdi,rax
 171:	e8 00 00 00 00       	call   176 <init_mem+0xa2>
 176:	90                   	nop
 177:	c9                   	leave
 178:	c3                   	ret

0000000000000179 <find_space>:
 179:	f3 0f 1e fa          	endbr64
 17d:	55                   	push   rbp
 17e:	48 89 e5             	mov    rbp,rsp
 181:	89 7d ec             	mov    DWORD PTR [rbp-0x14],edi
 184:	c7 45 fc 00 00 00 00 	mov    DWORD PTR [rbp-0x4],0x0
 18b:	eb 4f                	jmp    1dc <find_space+0x63>
 18d:	c7 45 f8 01 00 00 00 	mov    DWORD PTR [rbp-0x8],0x1
 194:	c7 45 f4 00 00 00 00 	mov    DWORD PTR [rbp-0xc],0x0
 19b:	eb 28                	jmp    1c5 <find_space+0x4c>
 19d:	48 8b 15 00 00 00 00 	mov    rdx,QWORD PTR [rip+0x0]        # 1a4 <find_space+0x2b>
 1a4:	8b 4d fc             	mov    ecx,DWORD PTR [rbp-0x4]
 1a7:	8b 45 f4             	mov    eax,DWORD PTR [rbp-0xc]
 1aa:	01 c8                	add    eax,ecx
 1ac:	48 98                	cdqe
 1ae:	48 01 d0             	add    rax,rdx
 1b1:	0f b6 00             	movzx  eax,BYTE PTR [rax]
 1b4:	3c 01                	cmp    al,0x1
 1b6:	74 09                	je     1c1 <find_space+0x48>
 1b8:	c7 45 f8 00 00 00 00 	mov    DWORD PTR [rbp-0x8],0x0
 1bf:	eb 0c                	jmp    1cd <find_space+0x54>
 1c1:	83 45 f4 01          	add    DWORD PTR [rbp-0xc],0x1
 1c5:	8b 45 f4             	mov    eax,DWORD PTR [rbp-0xc]
 1c8:	3b 45 ec             	cmp    eax,DWORD PTR [rbp-0x14]
 1cb:	7c d0                	jl     19d <find_space+0x24>
 1cd:	83 7d f8 00          	cmp    DWORD PTR [rbp-0x8],0x0
 1d1:	74 05                	je     1d8 <find_space+0x5f>
 1d3:	8b 45 fc             	mov    eax,DWORD PTR [rbp-0x4]
 1d6:	eb 17                	jmp    1ef <find_space+0x76>
 1d8:	83 45 fc 01          	add    DWORD PTR [rbp-0x4],0x1
 1dc:	8b 05 00 00 00 00    	mov    eax,DWORD PTR [rip+0x0]        # 1e2 <find_space+0x69>
 1e2:	2b 45 ec             	sub    eax,DWORD PTR [rbp-0x14]
 1e5:	39 45 fc             	cmp    DWORD PTR [rbp-0x4],eax
 1e8:	7e a3                	jle    18d <find_space+0x14>
 1ea:	b8 ff ff ff ff       	mov    eax,0xffffffff
 1ef:	5d                   	pop    rbp
 1f0:	c3                   	ret

00000000000001f1 <allocate>:
 1f1:	f3 0f 1e fa          	endbr64
 1f5:	55                   	push   rbp
 1f6:	48 89 e5             	mov    rbp,rsp
 1f9:	48 81 ec b0 00 00 00 	sub    rsp,0xb0
 200:	89 bd 5c ff ff ff    	mov    DWORD PTR [rbp-0xa4],edi
 206:	89 b5 58 ff ff ff    	mov    DWORD PTR [rbp-0xa8],esi
 20c:	83 bd 58 ff ff ff 00 	cmp    DWORD PTR [rbp-0xa8],0x0
 213:	75 0a                	jne    21f <allocate+0x2e>
 215:	b8 00 00 00 00       	mov    eax,0x0
 21a:	e9 83 01 00 00       	jmp    3a2 <allocate+0x1b1>
 21f:	8b 15 00 00 00 00    	mov    edx,DWORD PTR [rip+0x0]        # 225 <allocate+0x34>
 225:	8b 05 00 00 00 00    	mov    eax,DWORD PTR [rip+0x0]        # 22b <allocate+0x3a>
 22b:	29 c2                	sub    edx,eax
 22d:	89 55 fc             	mov    DWORD PTR [rbp-0x4],edx
 230:	83 bd 5c ff ff ff 00 	cmp    DWORD PTR [rbp-0xa4],0x0
 237:	74 0f                	je     248 <allocate+0x57>
 239:	8b 85 5c ff ff ff    	mov    eax,DWORD PTR [rbp-0xa4]
 23f:	0f af 85 58 ff ff ff 	imul   eax,DWORD PTR [rbp-0xa8]
 246:	eb 06                	jmp    24e <allocate+0x5d>
 248:	8b 85 58 ff ff ff    	mov    eax,DWORD PTR [rbp-0xa8]
 24e:	ba 18 00 00 00       	mov    edx,0x18
 253:	01 d0                	add    eax,edx
 255:	89 45 f8             	mov    DWORD PTR [rbp-0x8],eax
 258:	8b 45 fc             	mov    eax,DWORD PTR [rbp-0x4]
 25b:	3b 45 f8             	cmp    eax,DWORD PTR [rbp-0x8]
 25e:	7d 0a                	jge    26a <allocate+0x79>
 260:	b8 00 00 00 00       	mov    eax,0x0
 265:	e9 38 01 00 00       	jmp    3a2 <allocate+0x1b1>
 26a:	8b 45 f8             	mov    eax,DWORD PTR [rbp-0x8]
 26d:	89 c7                	mov    edi,eax
 26f:	e8 05 ff ff ff       	call   179 <find_space>
 274:	89 45 f4             	mov    DWORD PTR [rbp-0xc],eax
 277:	83 7d f4 ff          	cmp    DWORD PTR [rbp-0xc],0xffffffff
 27b:	75 1e                	jne    29b <allocate+0xaa>
 27d:	ba 4a 00 00 00       	mov    edx,0x4a
 282:	48 8d 05 00 00 00 00 	lea    rax,[rip+0x0]        # 289 <allocate+0x98>
 289:	48 89 c6             	mov    rsi,rax
 28c:	48 8d 05 00 00 00 00 	lea    rax,[rip+0x0]        # 293 <allocate+0xa2>
 293:	48 89 c7             	mov    rdi,rax
 296:	e8 00 00 00 00       	call   29b <allocate+0xaa>
 29b:	48 8b 15 00 00 00 00 	mov    rdx,QWORD PTR [rip+0x0]        # 2a2 <allocate+0xb1>
 2a2:	8b 45 f4             	mov    eax,DWORD PTR [rbp-0xc]
 2a5:	48 98                	cdqe
 2a7:	48 01 d0             	add    rax,rdx
 2aa:	48 89 45 e8          	mov    QWORD PTR [rbp-0x18],rax
 2ae:	8b 85 5c ff ff ff    	mov    eax,DWORD PTR [rbp-0xa4]
 2b4:	89 45 d0             	mov    DWORD PTR [rbp-0x30],eax
 2b7:	8b 85 58 ff ff ff    	mov    eax,DWORD PTR [rbp-0xa8]
 2bd:	48 98                	cdqe
 2bf:	48 89 45 d8          	mov    QWORD PTR [rbp-0x28],rax
 2c3:	c7 45 e0 7c 00 00 00 	mov    DWORD PTR [rbp-0x20],0x7c
 2ca:	b8 18 00 00 00       	mov    eax,0x18
 2cf:	48 63 d0             	movsxd rdx,eax
 2d2:	48 8d 4d d0          	lea    rcx,[rbp-0x30]
 2d6:	48 8b 45 e8          	mov    rax,QWORD PTR [rbp-0x18]
 2da:	48 89 ce             	mov    rsi,rcx
 2dd:	48 89 c7             	mov    rdi,rax
 2e0:	e8 00 00 00 00       	call   2e5 <allocate+0xf4>
 2e5:	ba 18 00 00 00       	mov    edx,0x18
 2ea:	8b 45 f8             	mov    eax,DWORD PTR [rbp-0x8]
 2ed:	29 d0                	sub    eax,edx
 2ef:	48 98                	cdqe
 2f1:	ba 18 00 00 00       	mov    edx,0x18
 2f6:	48 63 ca             	movsxd rcx,edx
 2f9:	48 8b 55 e8          	mov    rdx,QWORD PTR [rbp-0x18]
 2fd:	48 01 d1             	add    rcx,rdx
 300:	48 89 c2             	mov    rdx,rax
 303:	be 00 00 00 00       	mov    esi,0x0
 308:	48 89 cf             	mov    rdi,rcx
 30b:	e8 00 00 00 00       	call   310 <allocate+0x11f>
 310:	8b 15 00 00 00 00    	mov    edx,DWORD PTR [rip+0x0]        # 316 <allocate+0x125>
 316:	8b 45 f8             	mov    eax,DWORD PTR [rbp-0x8]
 319:	01 d0                	add    eax,edx
 31b:	89 05 00 00 00 00    	mov    DWORD PTR [rip+0x0],eax        # 321 <allocate+0x130>
 321:	8b 05 00 00 00 00    	mov    eax,DWORD PTR [rip+0x0]        # 327 <allocate+0x136>
 327:	85 c0                	test   eax,eax
 329:	74 68                	je     393 <allocate+0x1a2>
 32b:	48 8d 95 60 ff ff ff 	lea    rdx,[rbp-0xa0]
 332:	48 8b 45 e8          	mov    rax,QWORD PTR [rbp-0x18]
 336:	48 89 d6             	mov    rsi,rdx
 339:	48 89 c7             	mov    rdi,rax
 33c:	e8 00 00 00 00       	call   341 <allocate+0x150>
 341:	48 8d 05 00 00 00 00 	lea    rax,[rip+0x0]        # 348 <allocate+0x157>
 348:	48 89 c7             	mov    rdi,rax
 34b:	e8 00 00 00 00       	call   350 <allocate+0x15f>
 350:	83 bd 5c ff ff ff 00 	cmp    DWORD PTR [rbp-0xa4],0x0
 357:	74 0f                	je     368 <allocate+0x177>
 359:	8b 85 5c ff ff ff    	mov    eax,DWORD PTR [rbp-0xa4]
 35f:	0f af 85 58 ff ff ff 	imul   eax,DWORD PTR [rbp-0xa8]
 366:	eb 06                	jmp    36e <allocate+0x17d>
 368:	8b 85 58 ff ff ff    	mov    eax,DWORD PTR [rbp-0xa8]
 36e:	89 c7                	mov    edi,eax
 370:	e8 00 00 00 00       	call   375 <allocate+0x184>
 375:	48 8d 05 00 00 00 00 	lea    rax,[rip+0x0]        # 37c <allocate+0x18b>
 37c:	48 89 c7             	mov    rdi,rax
 37f:	e8 00 00 00 00       	call   384 <allocate+0x193>
 384:	48 8d 85 60 ff ff ff 	lea    rax,[rbp-0xa0]
 38b:	48 89 c7             	mov    rdi,rax
 38e:	e8 00 00 00 00       	call   393 <allocate+0x1a2>
 393:	b8 18 00 00 00       	mov    eax,0x18
 398:	48 63 d0             	movsxd rdx,eax
 39b:	48 8b 45 e8          	mov    rax,QWORD PTR [rbp-0x18]
 39f:	48 01 d0             	add    rax,rdx
 3a2:	c9                   	leave
 3a3:	c3                   	ret

00000000000003a4 <__get_meta__>:
 3a4:	f3 0f 1e fa          	endbr64
 3a8:	55                   	push   rbp
 3a9:	48 89 e5             	mov    rbp,rsp
 3ac:	48 89 7d f8          	mov    QWORD PTR [rbp-0x8],rdi
 3b0:	b8 18 00 00 00       	mov    eax,0x18
 3b5:	48 98                	cdqe
 3b7:	48 f7 d8             	neg    rax
 3ba:	48 89 c2             	mov    rdx,rax
 3bd:	48 8b 45 f8          	mov    rax,QWORD PTR [rbp-0x8]
 3c1:	48 01 d0             	add    rax,rdx
 3c4:	5d                   	pop    rbp
 3c5:	c3                   	ret

00000000000003c6 <__get_size__>:
 3c6:	f3 0f 1e fa          	endbr64
 3ca:	55                   	push   rbp
 3cb:	48 89 e5             	mov    rbp,rsp
 3ce:	48 83 ec 18          	sub    rsp,0x18
 3d2:	48 89 7d e8          	mov    QWORD PTR [rbp-0x18],rdi
 3d6:	48 8b 45 e8          	mov    rax,QWORD PTR [rbp-0x18]
 3da:	48 89 c7             	mov    rdi,rax
 3dd:	e8 00 00 00 00       	call   3e2 <__get_size__+0x1c>
 3e2:	48 89 45 f8          	mov    QWORD PTR [rbp-0x8],rax
 3e6:	48 8b 45 f8          	mov    rax,QWORD PTR [rbp-0x8]
 3ea:	8b 00                	mov    eax,DWORD PTR [rax]
 3ec:	85 c0                	test   eax,eax
 3ee:	75 0a                	jne    3fa <__get_size__+0x34>
 3f0:	48 8b 45 f8          	mov    rax,QWORD PTR [rbp-0x8]
 3f4:	48 8b 40 08          	mov    rax,QWORD PTR [rax+0x8]
 3f8:	eb 15                	jmp    40f <__get_size__+0x49>
 3fa:	48 8b 45 f8          	mov    rax,QWORD PTR [rbp-0x8]
 3fe:	8b 00                	mov    eax,DWORD PTR [rax]
 400:	48 98                	cdqe
 402:	89 c2                	mov    edx,eax
 404:	48 8b 45 f8          	mov    rax,QWORD PTR [rbp-0x8]
 408:	48 8b 40 08          	mov    rax,QWORD PTR [rax+0x8]
 40c:	0f af c2             	imul   eax,edx
 40f:	c9                   	leave
 410:	c3                   	ret

0000000000000411 <pfree>:
 411:	f3 0f 1e fa          	endbr64
 415:	55                   	push   rbp
 416:	48 89 e5             	mov    rbp,rsp
 419:	48 81 ec 90 00 00 00 	sub    rsp,0x90
 420:	48 89 bd 78 ff ff ff 	mov    QWORD PTR [rbp-0x88],rdi
 427:	89 b5 74 ff ff ff    	mov    DWORD PTR [rbp-0x8c],esi
 42d:	48 83 bd 78 ff ff ff 	cmp    QWORD PTR [rbp-0x88],0x0
 434:	00 
 435:	0f 84 b5 00 00 00    	je     4f0 <pfree+0xdf>
 43b:	48 8b 85 78 ff ff ff 	mov    rax,QWORD PTR [rbp-0x88]
 442:	48 89 c7             	mov    rdi,rax
 445:	e8 00 00 00 00       	call   44a <pfree+0x39>
 44a:	48 89 45 f8          	mov    QWORD PTR [rbp-0x8],rax
 44e:	48 8b 45 f8          	mov    rax,QWORD PTR [rbp-0x8]
 452:	8b 00                	mov    eax,DWORD PTR [rax]
 454:	85 c0                	test   eax,eax
 456:	74 17                	je     46f <pfree+0x5e>
 458:	48 8b 45 f8          	mov    rax,QWORD PTR [rbp-0x8]
 45c:	8b 00                	mov    eax,DWORD PTR [rax]
 45e:	48 98                	cdqe
 460:	89 c2                	mov    edx,eax
 462:	48 8b 45 f8          	mov    rax,QWORD PTR [rbp-0x8]
 466:	48 8b 40 08          	mov    rax,QWORD PTR [rax+0x8]
 46a:	0f af c2             	imul   eax,edx
 46d:	eb 08                	jmp    477 <pfree+0x66>
 46f:	48 8b 45 f8          	mov    rax,QWORD PTR [rbp-0x8]
 473:	48 8b 40 08          	mov    rax,QWORD PTR [rax+0x8]
 477:	89 45 f4             	mov    DWORD PTR [rbp-0xc],eax
 47a:	ba 18 00 00 00       	mov    edx,0x18
 47f:	8b 45 f4             	mov    eax,DWORD PTR [rbp-0xc]
 482:	01 d0                	add    eax,edx
 484:	89 45 f0             	mov    DWORD PTR [rbp-0x10],eax
 487:	83 bd 74 ff ff ff 00 	cmp    DWORD PTR [rbp-0x8c],0x0
 48e:	74 17                	je     4a7 <pfree+0x96>
 490:	8b 45 f0             	mov    eax,DWORD PTR [rbp-0x10]
 493:	48 63 d0             	movsxd rdx,eax
 496:	48 8b 45 f8          	mov    rax,QWORD PTR [rbp-0x8]
 49a:	be 01 00 00 00       	mov    esi,0x1
 49f:	48 89 c7             	mov    rdi,rax
 4a2:	e8 00 00 00 00       	call   4a7 <pfree+0x96>
 4a7:	8b 05 00 00 00 00    	mov    eax,DWORD PTR [rip+0x0]        # 4ad <pfree+0x9c>
 4ad:	2b 45 f0             	sub    eax,DWORD PTR [rbp-0x10]
 4b0:	89 05 00 00 00 00    	mov    DWORD PTR [rip+0x0],eax        # 4b6 <pfree+0xa5>
 4b6:	8b 05 00 00 00 00    	mov    eax,DWORD PTR [rip+0x0]        # 4bc <pfree+0xab>
 4bc:	85 c0                	test   eax,eax
 4be:	74 31                	je     4f1 <pfree+0xe0>
 4c0:	48 8d 55 80          	lea    rdx,[rbp-0x80]
 4c4:	48 8b 45 f8          	mov    rax,QWORD PTR [rbp-0x8]
 4c8:	48 89 d6             	mov    rsi,rdx
 4cb:	48 89 c7             	mov    rdi,rax
 4ce:	e8 00 00 00 00       	call   4d3 <pfree+0xc2>
 4d3:	48 8d 05 00 00 00 00 	lea    rax,[rip+0x0]        # 4da <pfree+0xc9>
 4da:	48 89 c7             	mov    rdi,rax
 4dd:	e8 00 00 00 00       	call   4e2 <pfree+0xd1>
 4e2:	48 8d 45 80          	lea    rax,[rbp-0x80]
 4e6:	48 89 c7             	mov    rdi,rax
 4e9:	e8 00 00 00 00       	call   4ee <pfree+0xdd>
 4ee:	eb 01                	jmp    4f1 <pfree+0xe0>
 4f0:	90                   	nop
 4f1:	c9                   	leave
 4f2:	c3                   	ret

00000000000004f3 <uninit_mem>:
 4f3:	f3 0f 1e fa          	endbr64
 4f7:	55                   	push   rbp
 4f8:	48 89 e5             	mov    rbp,rsp
 4fb:	8b 05 00 00 00 00    	mov    eax,DWORD PTR [rip+0x0]        # 501 <uninit_mem+0xe>
 501:	85 c0                	test   eax,eax
 503:	74 0f                	je     514 <uninit_mem+0x21>
 505:	48 8d 05 00 00 00 00 	lea    rax,[rip+0x0]        # 50c <uninit_mem+0x19>
 50c:	48 89 c7             	mov    rdi,rax
 50f:	e8 00 00 00 00       	call   514 <uninit_mem+0x21>
 514:	8b 05 00 00 00 00    	mov    eax,DWORD PTR [rip+0x0]        # 51a <uninit_mem+0x27>
 51a:	48 98                	cdqe
 51c:	48 8b 15 00 00 00 00 	mov    rdx,QWORD PTR [rip+0x0]        # 523 <uninit_mem+0x30>
 523:	48 89 d7             	mov    rdi,rdx
 526:	48 83 ec 08          	sub    rsp,0x8
 52a:	6a 0b                	push   0xb
 52c:	41 b9 00 00 00 00    	mov    r9d,0x0
 532:	41 b8 00 00 00 00    	mov    r8d,0x0
 538:	b9 00 00 00 00       	mov    ecx,0x0
 53d:	ba 00 00 00 00       	mov    edx,0x0
 542:	48 89 c6             	mov    rsi,rax
 545:	e8 00 00 00 00       	call   54a <uninit_mem+0x57>
 54a:	48 83 c4 10          	add    rsp,0x10
 54e:	90                   	nop
 54f:	c9                   	leave
 550:	c3                   	ret

any.o:     file format elf64-x86-64


Disassembly of section .text:

0000000000000000 <any_allocate>:
   0:	f3 0f 1e fa          	endbr64
   4:	55                   	push   rbp
   5:	48 89 e5             	mov    rbp,rsp
   8:	48 83 ec 20          	sub    rsp,0x20
   c:	89 7d ec             	mov    DWORD PTR [rbp-0x14],edi
   f:	89 75 e8             	mov    DWORD PTR [rbp-0x18],esi
  12:	83 7d ec 00          	cmp    DWORD PTR [rbp-0x14],0x0
  16:	74 09                	je     21 <any_allocate+0x21>
  18:	8b 45 ec             	mov    eax,DWORD PTR [rbp-0x14]
  1b:	0f af 45 e8          	imul   eax,DWORD PTR [rbp-0x18]
  1f:	eb 03                	jmp    24 <any_allocate+0x24>
  21:	8b 45 e8             	mov    eax,DWORD PTR [rbp-0x18]
  24:	89 45 fc             	mov    DWORD PTR [rbp-0x4],eax
  27:	83 7d e8 00          	cmp    DWORD PTR [rbp-0x18],0x0
  2b:	75 07                	jne    34 <any_allocate+0x34>
  2d:	b8 00 00 00 00       	mov    eax,0x0
  32:	eb 38                	jmp    6c <any_allocate+0x6c>
  34:	b8 10 00 00 00       	mov    eax,0x10
  39:	01 45 e8             	add    DWORD PTR [rbp-0x18],eax
  3c:	8b 45 e8             	mov    eax,DWORD PTR [rbp-0x18]
  3f:	89 c6                	mov    esi,eax
  41:	bf 00 00 00 00       	mov    edi,0x0
  46:	e8 00 00 00 00       	call   4b <any_allocate+0x4b>
  4b:	48 89 45 f0          	mov    QWORD PTR [rbp-0x10],rax
  4f:	48 83 7d f0 00       	cmp    QWORD PTR [rbp-0x10],0x0
  54:	75 07                	jne    5d <any_allocate+0x5d>
  56:	b8 00 00 00 00       	mov    eax,0x0
  5b:	eb 0f                	jmp    6c <any_allocate+0x6c>
  5d:	b8 10 00 00 00       	mov    eax,0x10
  62:	48 63 d0             	movsxd rdx,eax
  65:	48 8b 45 f0          	mov    rax,QWORD PTR [rbp-0x10]
  69:	48 01 d0             	add    rax,rdx
  6c:	c9                   	leave
  6d:	c3                   	ret

000000000000006e <convert_to_type>:
  6e:	f3 0f 1e fa          	endbr64
  72:	55                   	push   rbp
  73:	48 89 e5             	mov    rbp,rsp
  76:	89 f8                	mov    eax,edi
  78:	48 89 f1             	mov    rcx,rsi
  7b:	48 89 ca             	mov    rdx,rcx
  7e:	48 89 45 f0          	mov    QWORD PTR [rbp-0x10],rax
  82:	48 89 55 f8          	mov    QWORD PTR [rbp-0x8],rdx
  86:	90                   	nop
  87:	5d                   	pop    rbp
  88:	c3                   	ret

0000000000000089 <any_cmp>:
  89:	f3 0f 1e fa          	endbr64
  8d:	55                   	push   rbp
  8e:	48 89 e5             	mov    rbp,rsp
  91:	48 83 ec 30          	sub    rsp,0x30
  95:	48 89 7d e8          	mov    QWORD PTR [rbp-0x18],rdi
  99:	48 89 75 e0          	mov    QWORD PTR [rbp-0x20],rsi
  9d:	89 55 dc             	mov    DWORD PTR [rbp-0x24],edx
  a0:	b8 10 00 00 00       	mov    eax,0x10
  a5:	48 98                	cdqe
  a7:	48 c7 c2 fc ff ff ff 	mov    rdx,0xfffffffffffffffc
  ae:	48 29 c2             	sub    rdx,rax
  b1:	48 8b 45 e8          	mov    rax,QWORD PTR [rbp-0x18]
  b5:	48 01 d0             	add    rax,rdx
  b8:	8b 00                	mov    eax,DWORD PTR [rax]
  ba:	83 f8 7c             	cmp    eax,0x7c
  bd:	75 1e                	jne    dd <any_cmp+0x54>
  bf:	ba 32 00 00 00       	mov    edx,0x32
  c4:	48 8d 05 00 00 00 00 	lea    rax,[rip+0x0]        # cb <any_cmp+0x42>
  cb:	48 89 c6             	mov    rsi,rax
  ce:	48 8d 05 00 00 00 00 	lea    rax,[rip+0x0]        # d5 <any_cmp+0x4c>
  d5:	48 89 c7             	mov    rdi,rax
  d8:	e8 00 00 00 00       	call   dd <any_cmp+0x54>
  dd:	b8 10 00 00 00       	mov    eax,0x10
  e2:	48 98                	cdqe
  e4:	48 f7 d8             	neg    rax
  e7:	48 89 c2             	mov    rdx,rax
  ea:	48 8b 45 e8          	mov    rax,QWORD PTR [rbp-0x18]
  ee:	48 01 d0             	add    rax,rdx
  f1:	48 89 45 f8          	mov    QWORD PTR [rbp-0x8],rax
  f5:	90                   	nop
  f6:	c9                   	leave
  f7:	c3                   	ret

array.o:     file format elf64-x86-64


Disassembly of section .text:

0000000000000000 <init_array>:
   0:	f3 0f 1e fa          	endbr64
   4:	55                   	push   rbp
   5:	48 89 e5             	mov    rbp,rsp
   8:	be 01 00 00 00       	mov    esi,0x1
   d:	bf 08 00 00 00       	mov    edi,0x8
  12:	e8 00 00 00 00       	call   17 <init_array+0x17>
  17:	5d                   	pop    rbp
  18:	c3                   	ret

0000000000000019 <array_count>:
  19:	f3 0f 1e fa          	endbr64
  1d:	55                   	push   rbp
  1e:	48 89 e5             	mov    rbp,rsp
  21:	48 89 7d e8          	mov    QWORD PTR [rbp-0x18],rdi
  25:	c7 45 f8 00 00 00 00 	mov    DWORD PTR [rbp-0x8],0x0
  2c:	c7 45 fc 00 00 00 00 	mov    DWORD PTR [rbp-0x4],0x0
  33:	eb 08                	jmp    3d <array_count+0x24>
  35:	83 45 f8 01          	add    DWORD PTR [rbp-0x8],0x1
  39:	83 45 fc 01          	add    DWORD PTR [rbp-0x4],0x1
  3d:	8b 45 fc             	mov    eax,DWORD PTR [rbp-0x4]
  40:	48 98                	cdqe
  42:	48 8d 14 c5 00 00 00 	lea    rdx,[rax*8+0x0]
  49:	00 
  4a:	48 8b 45 e8          	mov    rax,QWORD PTR [rbp-0x18]
  4e:	48 01 d0             	add    rax,rdx
  51:	48 8b 00             	mov    rax,QWORD PTR [rax]
  54:	48 85 c0             	test   rax,rax
  57:	75 dc                	jne    35 <array_count+0x1c>
  59:	8b 45 f8             	mov    eax,DWORD PTR [rbp-0x8]
  5c:	5d                   	pop    rbp
  5d:	c3                   	ret

000000000000005e <array_append>:
  5e:	f3 0f 1e fa          	endbr64
  62:	55                   	push   rbp
  63:	48 89 e5             	mov    rbp,rsp
  66:	48 83 ec 20          	sub    rsp,0x20
  6a:	48 89 7d e8          	mov    QWORD PTR [rbp-0x18],rdi
  6e:	48 89 75 e0          	mov    QWORD PTR [rbp-0x20],rsi
  72:	48 83 7d e8 00       	cmp    QWORD PTR [rbp-0x18],0x0
  77:	75 07                	jne    80 <array_append+0x22>
  79:	b8 00 00 00 00       	mov    eax,0x0
  7e:	eb 7f                	jmp    ff <array_append+0xa1>
  80:	48 8b 45 e8          	mov    rax,QWORD PTR [rbp-0x18]
  84:	48 89 c7             	mov    rdi,rax
  87:	e8 00 00 00 00       	call   8c <array_append+0x2e>
  8c:	89 45 fc             	mov    DWORD PTR [rbp-0x4],eax
  8f:	8b 45 fc             	mov    eax,DWORD PTR [rbp-0x4]
  92:	8d 50 01             	lea    edx,[rax+0x1]
  95:	89 55 fc             	mov    DWORD PTR [rbp-0x4],edx
  98:	48 98                	cdqe
  9a:	48 8d 14 c5 00 00 00 	lea    rdx,[rax*8+0x0]
  a1:	00 
  a2:	48 8b 45 e8          	mov    rax,QWORD PTR [rbp-0x18]
  a6:	48 01 c2             	add    rdx,rax
  a9:	48 8b 45 e0          	mov    rax,QWORD PTR [rbp-0x20]
  ad:	48 89 02             	mov    QWORD PTR [rdx],rax
  b0:	8b 45 fc             	mov    eax,DWORD PTR [rbp-0x4]
  b3:	83 c0 01             	add    eax,0x1
  b6:	48 98                	cdqe
  b8:	c1 e0 03             	shl    eax,0x3
  bb:	89 c2                	mov    edx,eax
  bd:	48 8b 45 e8          	mov    rax,QWORD PTR [rbp-0x18]
  c1:	89 d6                	mov    esi,edx
  c3:	48 89 c7             	mov    rdi,rax
  c6:	e8 00 00 00 00       	call   cb <array_append+0x6d>
  cb:	48 89 45 f0          	mov    QWORD PTR [rbp-0x10],rax
  cf:	8b 45 fc             	mov    eax,DWORD PTR [rbp-0x4]
  d2:	48 98                	cdqe
  d4:	48 8d 14 c5 00 00 00 	lea    rdx,[rax*8+0x0]
  db:	00 
  dc:	48 8b 45 f0          	mov    rax,QWORD PTR [rbp-0x10]
  e0:	48 01 d0             	add    rax,rdx
  e3:	48 c7 00 00 00 00 00 	mov    QWORD PTR [rax],0x0
  ea:	48 8b 45 e8          	mov    rax,QWORD PTR [rbp-0x18]
  ee:	be 01 00 00 00       	mov    esi,0x1
  f3:	48 89 c7             	mov    rdi,rax
  f6:	e8 00 00 00 00       	call   fb <array_append+0x9d>
  fb:	48 8b 45 f0          	mov    rax,QWORD PTR [rbp-0x10]
  ff:	c9                   	leave
 100:	c3                   	ret

0000000000000101 <array_contains_ptr>:
 101:	f3 0f 1e fa          	endbr64
 105:	55                   	push   rbp
 106:	48 89 e5             	mov    rbp,rsp
 109:	48 89 7d e8          	mov    QWORD PTR [rbp-0x18],rdi
 10d:	48 89 75 e0          	mov    QWORD PTR [rbp-0x20],rsi
 111:	48 83 7d e8 00       	cmp    QWORD PTR [rbp-0x18],0x0
 116:	74 07                	je     11f <array_contains_ptr+0x1e>
 118:	48 83 7d e0 00       	cmp    QWORD PTR [rbp-0x20],0x0
 11d:	75 07                	jne    126 <array_contains_ptr+0x25>
 11f:	b8 ff ff ff ff       	mov    eax,0xffffffff
 124:	eb 50                	jmp    176 <array_contains_ptr+0x75>
 126:	c7 45 fc 00 00 00 00 	mov    DWORD PTR [rbp-0x4],0x0
 12d:	eb 26                	jmp    155 <array_contains_ptr+0x54>
 12f:	8b 45 fc             	mov    eax,DWORD PTR [rbp-0x4]
 132:	48 98                	cdqe
 134:	48 8d 14 c5 00 00 00 	lea    rdx,[rax*8+0x0]
 13b:	00 
 13c:	48 8b 45 e8          	mov    rax,QWORD PTR [rbp-0x18]
 140:	48 01 d0             	add    rax,rdx
 143:	48 8b 00             	mov    rax,QWORD PTR [rax]
 146:	48 39 45 e0          	cmp    QWORD PTR [rbp-0x20],rax
 14a:	75 05                	jne    151 <array_contains_ptr+0x50>
 14c:	8b 45 fc             	mov    eax,DWORD PTR [rbp-0x4]
 14f:	eb 25                	jmp    176 <array_contains_ptr+0x75>
 151:	83 45 fc 01          	add    DWORD PTR [rbp-0x4],0x1
 155:	8b 45 fc             	mov    eax,DWORD PTR [rbp-0x4]
 158:	48 98                	cdqe
 15a:	48 8d 14 c5 00 00 00 	lea    rdx,[rax*8+0x0]
 161:	00 
 162:	48 8b 45 e8          	mov    rax,QWORD PTR [rbp-0x18]
 166:	48 01 d0             	add    rax,rdx
 169:	48 8b 00             	mov    rax,QWORD PTR [rax]
 16c:	48 85 c0             	test   rax,rax
 16f:	75 be                	jne    12f <array_contains_ptr+0x2e>
 171:	b8 ff ff ff ff       	mov    eax,0xffffffff
 176:	5d                   	pop    rbp
 177:	c3                   	ret

0000000000000178 <array_contains_str>:
 178:	f3 0f 1e fa          	endbr64
 17c:	55                   	push   rbp
 17d:	48 89 e5             	mov    rbp,rsp
 180:	48 83 ec 20          	sub    rsp,0x20
 184:	48 89 7d e8          	mov    QWORD PTR [rbp-0x18],rdi
 188:	48 89 75 e0          	mov    QWORD PTR [rbp-0x20],rsi
 18c:	48 83 7d e8 00       	cmp    QWORD PTR [rbp-0x18],0x0
 191:	74 07                	je     19a <array_contains_str+0x22>
 193:	48 83 7d e0 00       	cmp    QWORD PTR [rbp-0x20],0x0
 198:	75 07                	jne    1a1 <array_contains_str+0x29>
 19a:	b8 ff ff ff ff       	mov    eax,0xffffffff
 19f:	eb 7f                	jmp    220 <array_contains_str+0xa8>
 1a1:	c7 45 fc 00 00 00 00 	mov    DWORD PTR [rbp-0x4],0x0
 1a8:	eb 55                	jmp    1ff <array_contains_str+0x87>
 1aa:	8b 45 fc             	mov    eax,DWORD PTR [rbp-0x4]
 1ad:	48 98                	cdqe
 1af:	48 8d 14 c5 00 00 00 	lea    rdx,[rax*8+0x0]
 1b6:	00 
 1b7:	48 8b 45 e8          	mov    rax,QWORD PTR [rbp-0x18]
 1bb:	48 01 d0             	add    rax,rdx
 1be:	48 8b 00             	mov    rax,QWORD PTR [rax]
 1c1:	48 89 c7             	mov    rdi,rax
 1c4:	e8 00 00 00 00       	call   1c9 <array_contains_str+0x51>
 1c9:	48 63 d0             	movsxd rdx,eax
 1cc:	8b 45 fc             	mov    eax,DWORD PTR [rbp-0x4]
 1cf:	48 98                	cdqe
 1d1:	48 8d 0c c5 00 00 00 	lea    rcx,[rax*8+0x0]
 1d8:	00 
 1d9:	48 8b 45 e8          	mov    rax,QWORD PTR [rbp-0x18]
 1dd:	48 01 c8             	add    rax,rcx
 1e0:	48 8b 00             	mov    rax,QWORD PTR [rax]
 1e3:	48 8b 4d e0          	mov    rcx,QWORD PTR [rbp-0x20]
 1e7:	48 89 ce             	mov    rsi,rcx
 1ea:	48 89 c7             	mov    rdi,rax
 1ed:	e8 00 00 00 00       	call   1f2 <array_contains_str+0x7a>
 1f2:	85 c0                	test   eax,eax
 1f4:	74 05                	je     1fb <array_contains_str+0x83>
 1f6:	8b 45 fc             	mov    eax,DWORD PTR [rbp-0x4]
 1f9:	eb 25                	jmp    220 <array_contains_str+0xa8>
 1fb:	83 45 fc 01          	add    DWORD PTR [rbp-0x4],0x1
 1ff:	8b 45 fc             	mov    eax,DWORD PTR [rbp-0x4]
 202:	48 98                	cdqe
 204:	48 8d 14 c5 00 00 00 	lea    rdx,[rax*8+0x0]
 20b:	00 
 20c:	48 8b 45 e8          	mov    rax,QWORD PTR [rbp-0x18]
 210:	48 01 d0             	add    rax,rdx
 213:	48 8b 00             	mov    rax,QWORD PTR [rax]
 216:	48 85 c0             	test   rax,rax
 219:	75 8f                	jne    1aa <array_contains_str+0x32>
 21b:	b8 ff ff ff ff       	mov    eax,0xffffffff
 220:	c9                   	leave
 221:	c3                   	ret

char.o:     file format elf64-x86-64


Disassembly of section .text:

0000000000000000 <is_ascii>:
   0:	f3 0f 1e fa          	endbr64
   4:	55                   	push   rbp
   5:	48 89 e5             	mov    rbp,rsp
   8:	89 f8                	mov    eax,edi
   a:	88 45 fc             	mov    BYTE PTR [rbp-0x4],al
   d:	0f b6 45 fc          	movzx  eax,BYTE PTR [rbp-0x4]
  11:	f7 d0                	not    eax
  13:	c0 e8 07             	shr    al,0x7
  16:	0f b6 c0             	movzx  eax,al
  19:	5d                   	pop    rbp
  1a:	c3                   	ret

000000000000001b <is_ascii_alpha>:
  1b:	f3 0f 1e fa          	endbr64
  1f:	55                   	push   rbp
  20:	48 89 e5             	mov    rbp,rsp
  23:	89 f8                	mov    eax,edi
  25:	88 45 ec             	mov    BYTE PTR [rbp-0x14],al
  28:	0f b6 45 ec          	movzx  eax,BYTE PTR [rbp-0x14]
  2c:	88 45 ff             	mov    BYTE PTR [rbp-0x1],al
  2f:	80 7d ec 61          	cmp    BYTE PTR [rbp-0x14],0x61
  33:	7e 06                	jle    3b <is_ascii_alpha+0x20>
  35:	80 7d ec 79          	cmp    BYTE PTR [rbp-0x14],0x79
  39:	7e 0c                	jle    47 <is_ascii_alpha+0x2c>
  3b:	80 7d ec 41          	cmp    BYTE PTR [rbp-0x14],0x41
  3f:	7e 0d                	jle    4e <is_ascii_alpha+0x33>
  41:	80 7d ec 59          	cmp    BYTE PTR [rbp-0x14],0x59
  45:	7f 07                	jg     4e <is_ascii_alpha+0x33>
  47:	b8 01 00 00 00       	mov    eax,0x1
  4c:	eb 05                	jmp    53 <is_ascii_alpha+0x38>
  4e:	b8 00 00 00 00       	mov    eax,0x0
  53:	5d                   	pop    rbp
  54:	c3                   	ret

0000000000000055 <count_char>:
  55:	f3 0f 1e fa          	endbr64
  59:	55                   	push   rbp
  5a:	48 89 e5             	mov    rbp,rsp
  5d:	48 89 7d e8          	mov    QWORD PTR [rbp-0x18],rdi
  61:	89 f0                	mov    eax,esi
  63:	88 45 e4             	mov    BYTE PTR [rbp-0x1c],al
  66:	48 83 7d e8 00       	cmp    QWORD PTR [rbp-0x18],0x0
  6b:	75 07                	jne    74 <count_char+0x1f>
  6d:	b8 ff ff ff ff       	mov    eax,0xffffffff
  72:	eb 44                	jmp    b8 <count_char+0x63>
  74:	c7 45 f8 00 00 00 00 	mov    DWORD PTR [rbp-0x8],0x0
  7b:	c7 45 fc 00 00 00 00 	mov    DWORD PTR [rbp-0x4],0x0
  82:	eb 1d                	jmp    a1 <count_char+0x4c>
  84:	8b 45 fc             	mov    eax,DWORD PTR [rbp-0x4]
  87:	48 63 d0             	movsxd rdx,eax
  8a:	48 8b 45 e8          	mov    rax,QWORD PTR [rbp-0x18]
  8e:	48 01 d0             	add    rax,rdx
  91:	0f b6 00             	movzx  eax,BYTE PTR [rax]
  94:	38 45 e4             	cmp    BYTE PTR [rbp-0x1c],al
  97:	75 04                	jne    9d <count_char+0x48>
  99:	83 45 f8 01          	add    DWORD PTR [rbp-0x8],0x1
  9d:	83 45 fc 01          	add    DWORD PTR [rbp-0x4],0x1
  a1:	8b 45 fc             	mov    eax,DWORD PTR [rbp-0x4]
  a4:	48 63 d0             	movsxd rdx,eax
  a7:	48 8b 45 e8          	mov    rax,QWORD PTR [rbp-0x18]
  ab:	48 01 d0             	add    rax,rdx
  ae:	0f b6 00             	movzx  eax,BYTE PTR [rax]
  b1:	84 c0                	test   al,al
  b3:	75 cf                	jne    84 <count_char+0x2f>
  b5:	8b 45 f8             	mov    eax,DWORD PTR [rbp-0x8]
  b8:	5d                   	pop    rbp
  b9:	c3                   	ret

00000000000000ba <find_char>:
  ba:	f3 0f 1e fa          	endbr64
  be:	55                   	push   rbp
  bf:	48 89 e5             	mov    rbp,rsp
  c2:	48 83 ec 10          	sub    rsp,0x10
  c6:	48 89 7d f8          	mov    QWORD PTR [rbp-0x8],rdi
  ca:	89 f0                	mov    eax,esi
  cc:	88 45 f4             	mov    BYTE PTR [rbp-0xc],al
  cf:	0f be 4d f4          	movsx  ecx,BYTE PTR [rbp-0xc]
  d3:	48 8b 45 f8          	mov    rax,QWORD PTR [rbp-0x8]
  d7:	ba 01 00 00 00       	mov    edx,0x1
  dc:	89 ce                	mov    esi,ecx
  de:	48 89 c7             	mov    rdi,rax
  e1:	e8 00 00 00 00       	call   e6 <find_char+0x2c>
  e6:	c9                   	leave
  e7:	c3                   	ret

00000000000000e8 <find_char_at>:
  e8:	f3 0f 1e fa          	endbr64
  ec:	55                   	push   rbp
  ed:	48 89 e5             	mov    rbp,rsp
  f0:	48 89 7d e8          	mov    QWORD PTR [rbp-0x18],rdi
  f4:	89 f0                	mov    eax,esi
  f6:	89 55 e0             	mov    DWORD PTR [rbp-0x20],edx
  f9:	88 45 e4             	mov    BYTE PTR [rbp-0x1c],al
  fc:	48 83 7d e8 00       	cmp    QWORD PTR [rbp-0x18],0x0
 101:	75 07                	jne    10a <find_char_at+0x22>
 103:	b8 ff ff ff ff       	mov    eax,0xffffffff
 108:	eb 53                	jmp    15d <find_char_at+0x75>
 10a:	c7 45 f8 00 00 00 00 	mov    DWORD PTR [rbp-0x8],0x0
 111:	c7 45 fc 00 00 00 00 	mov    DWORD PTR [rbp-0x4],0x0
 118:	eb 2a                	jmp    144 <find_char_at+0x5c>
 11a:	8b 45 fc             	mov    eax,DWORD PTR [rbp-0x4]
 11d:	48 63 d0             	movsxd rdx,eax
 120:	48 8b 45 e8          	mov    rax,QWORD PTR [rbp-0x18]
 124:	48 01 d0             	add    rax,rdx
 127:	0f b6 00             	movzx  eax,BYTE PTR [rax]
 12a:	38 45 e4             	cmp    BYTE PTR [rbp-0x1c],al
 12d:	75 04                	jne    133 <find_char_at+0x4b>
 12f:	83 45 f8 01          	add    DWORD PTR [rbp-0x8],0x1
 133:	8b 45 e0             	mov    eax,DWORD PTR [rbp-0x20]
 136:	3b 45 f8             	cmp    eax,DWORD PTR [rbp-0x8]
 139:	75 05                	jne    140 <find_char_at+0x58>
 13b:	8b 45 fc             	mov    eax,DWORD PTR [rbp-0x4]
 13e:	eb 1d                	jmp    15d <find_char_at+0x75>
 140:	83 45 fc 01          	add    DWORD PTR [rbp-0x4],0x1
 144:	8b 45 fc             	mov    eax,DWORD PTR [rbp-0x4]
 147:	48 63 d0             	movsxd rdx,eax
 14a:	48 8b 45 e8          	mov    rax,QWORD PTR [rbp-0x18]
 14e:	48 01 d0             	add    rax,rdx
 151:	0f b6 00             	movzx  eax,BYTE PTR [rax]
 154:	84 c0                	test   al,al
 156:	75 c2                	jne    11a <find_char_at+0x32>
 158:	b8 ff ff ff ff       	mov    eax,0xffffffff
 15d:	5d                   	pop    rbp
 15e:	c3                   	ret

000000000000015f <_find_char_at>:
 15f:	f3 0f 1e fa          	endbr64
 163:	55                   	push   rbp
 164:	48 89 e5             	mov    rbp,rsp
 167:	48 89 7d e8          	mov    QWORD PTR [rbp-0x18],rdi
 16b:	89 f0                	mov    eax,esi
 16d:	89 55 e0             	mov    DWORD PTR [rbp-0x20],edx
 170:	48 89 4d d8          	mov    QWORD PTR [rbp-0x28],rcx
 174:	88 45 e4             	mov    BYTE PTR [rbp-0x1c],al
 177:	48 83 7d e8 00       	cmp    QWORD PTR [rbp-0x18],0x0
 17c:	75 07                	jne    185 <_find_char_at+0x26>
 17e:	b8 ff ff ff ff       	mov    eax,0xffffffff
 183:	eb 60                	jmp    1e5 <_find_char_at+0x86>
 185:	c7 45 fc 00 00 00 00 	mov    DWORD PTR [rbp-0x4],0x0
 18c:	eb 3b                	jmp    1c9 <_find_char_at+0x6a>
 18e:	48 8b 45 d8          	mov    rax,QWORD PTR [rbp-0x28]
 192:	8b 00                	mov    eax,DWORD PTR [rax]
 194:	48 63 d0             	movsxd rdx,eax
 197:	48 8b 45 e8          	mov    rax,QWORD PTR [rbp-0x18]
 19b:	48 01 d0             	add    rax,rdx
 19e:	0f b6 00             	movzx  eax,BYTE PTR [rax]
 1a1:	38 45 e4             	cmp    BYTE PTR [rbp-0x1c],al
 1a4:	75 04                	jne    1aa <_find_char_at+0x4b>
 1a6:	83 45 fc 01          	add    DWORD PTR [rbp-0x4],0x1
 1aa:	8b 45 fc             	mov    eax,DWORD PTR [rbp-0x4]
 1ad:	3b 45 e0             	cmp    eax,DWORD PTR [rbp-0x20]
 1b0:	75 08                	jne    1ba <_find_char_at+0x5b>
 1b2:	48 8b 45 d8          	mov    rax,QWORD PTR [rbp-0x28]
 1b6:	8b 00                	mov    eax,DWORD PTR [rax]
 1b8:	eb 2b                	jmp    1e5 <_find_char_at+0x86>
 1ba:	48 8b 45 d8          	mov    rax,QWORD PTR [rbp-0x28]
 1be:	8b 00                	mov    eax,DWORD PTR [rax]
 1c0:	8d 50 01             	lea    edx,[rax+0x1]
 1c3:	48 8b 45 d8          	mov    rax,QWORD PTR [rbp-0x28]
 1c7:	89 10                	mov    DWORD PTR [rax],edx
 1c9:	48 8b 45 d8          	mov    rax,QWORD PTR [rbp-0x28]
 1cd:	8b 00                	mov    eax,DWORD PTR [rax]
 1cf:	48 63 d0             	movsxd rdx,eax
 1d2:	48 8b 45 e8          	mov    rax,QWORD PTR [rbp-0x18]
 1d6:	48 01 d0             	add    rax,rdx
 1d9:	0f b6 00             	movzx  eax,BYTE PTR [rax]
 1dc:	84 c0                	test   al,al
 1de:	75 ae                	jne    18e <_find_char_at+0x2f>
 1e0:	b8 ff ff ff ff       	mov    eax,0xffffffff
 1e5:	5d                   	pop    rbp
 1e6:	c3                   	ret

00000000000001e7 <replace_char>:
 1e7:	f3 0f 1e fa          	endbr64
 1eb:	55                   	push   rbp
 1ec:	48 89 e5             	mov    rbp,rsp
 1ef:	48 89 7d e8          	mov    QWORD PTR [rbp-0x18],rdi
 1f3:	89 f1                	mov    ecx,esi
 1f5:	89 d0                	mov    eax,edx
 1f7:	89 ca                	mov    edx,ecx
 1f9:	88 55 e4             	mov    BYTE PTR [rbp-0x1c],dl
 1fc:	88 45 e0             	mov    BYTE PTR [rbp-0x20],al
 1ff:	48 83 7d e8 00       	cmp    QWORD PTR [rbp-0x18],0x0
 204:	75 07                	jne    20d <replace_char+0x26>
 206:	b8 00 00 00 00       	mov    eax,0x0
 20b:	eb 57                	jmp    264 <replace_char+0x7d>
 20d:	c7 45 fc 00 00 00 00 	mov    DWORD PTR [rbp-0x4],0x0
 214:	c7 45 f8 00 00 00 00 	mov    DWORD PTR [rbp-0x8],0x0
 21b:	eb 30                	jmp    24d <replace_char+0x66>
 21d:	8b 45 f8             	mov    eax,DWORD PTR [rbp-0x8]
 220:	48 63 d0             	movsxd rdx,eax
 223:	48 8b 45 e8          	mov    rax,QWORD PTR [rbp-0x18]
 227:	48 01 d0             	add    rax,rdx
 22a:	0f b6 00             	movzx  eax,BYTE PTR [rax]
 22d:	38 45 e4             	cmp    BYTE PTR [rbp-0x1c],al
 230:	75 17                	jne    249 <replace_char+0x62>
 232:	8b 45 f8             	mov    eax,DWORD PTR [rbp-0x8]
 235:	48 63 d0             	movsxd rdx,eax
 238:	48 8b 45 e8          	mov    rax,QWORD PTR [rbp-0x18]
 23c:	48 01 c2             	add    rdx,rax
 23f:	0f b6 45 e0          	movzx  eax,BYTE PTR [rbp-0x20]
 243:	88 02                	mov    BYTE PTR [rdx],al
 245:	83 45 fc 01          	add    DWORD PTR [rbp-0x4],0x1
 249:	83 45 f8 01          	add    DWORD PTR [rbp-0x8],0x1
 24d:	8b 45 f8             	mov    eax,DWORD PTR [rbp-0x8]
 250:	48 63 d0             	movsxd rdx,eax
 253:	48 8b 45 e8          	mov    rax,QWORD PTR [rbp-0x18]
 257:	48 01 d0             	add    rax,rdx
 25a:	0f b6 00             	movzx  eax,BYTE PTR [rax]
 25d:	84 c0                	test   al,al
 25f:	75 bc                	jne    21d <replace_char+0x36>
 261:	8b 45 fc             	mov    eax,DWORD PTR [rbp-0x4]
 264:	5d                   	pop    rbp
 265:	c3                   	ret

file.o:     file format elf64-x86-64


Disassembly of section .text:

0000000000000000 <open_file>:
   0:	f3 0f 1e fa          	endbr64
   4:	55                   	push   rbp
   5:	48 89 e5             	mov    rbp,rsp
   8:	48 83 ec 20          	sub    rsp,0x20
   c:	48 89 7d e8          	mov    QWORD PTR [rbp-0x18],rdi
  10:	89 75 e4             	mov    DWORD PTR [rbp-0x1c],esi
  13:	89 55 e0             	mov    DWORD PTR [rbp-0x20],edx
  16:	8b 55 e4             	mov    edx,DWORD PTR [rbp-0x1c]
  19:	8b 45 e0             	mov    eax,DWORD PTR [rbp-0x20]
  1c:	48 63 f0             	movsxd rsi,eax
  1f:	48 8b 45 e8          	mov    rax,QWORD PTR [rbp-0x18]
  23:	48 83 ec 08          	sub    rsp,0x8
  27:	6a 02                	push   0x2
  29:	49 c7 c1 ff ff ff ff 	mov    r9,0xffffffffffffffff
  30:	49 c7 c0 ff ff ff ff 	mov    r8,0xffffffffffffffff
  37:	48 c7 c1 ff ff ff ff 	mov    rcx,0xffffffffffffffff
  3e:	48 89 c7             	mov    rdi,rax
  41:	e8 00 00 00 00       	call   46 <open_file+0x46>
  46:	48 83 c4 10          	add    rsp,0x10
  4a:	48 89 45 f8          	mov    QWORD PTR [rbp-0x8],rax
  4e:	48 83 7d f8 fe       	cmp    QWORD PTR [rbp-0x8],0xfffffffffffffffe
  53:	75 1e                	jne    73 <open_file+0x73>
  55:	ba 0e 00 00 00       	mov    edx,0xe
  5a:	48 8d 05 00 00 00 00 	lea    rax,[rip+0x0]        # 61 <open_file+0x61>
  61:	48 89 c6             	mov    rsi,rax
  64:	48 8d 05 00 00 00 00 	lea    rax,[rip+0x0]        # 6b <open_file+0x6b>
  6b:	48 89 c7             	mov    rdi,rax
  6e:	e8 00 00 00 00       	call   73 <open_file+0x73>
  73:	48 83 7d f8 00       	cmp    QWORD PTR [rbp-0x8],0x0
  78:	79 07                	jns    81 <open_file+0x81>
  7a:	b8 ff ff ff ff       	mov    eax,0xffffffff
  7f:	eb 04                	jmp    85 <open_file+0x85>
  81:	48 8b 45 f8          	mov    rax,QWORD PTR [rbp-0x8]
  85:	c9                   	leave
  86:	c3                   	ret

0000000000000087 <file_content_size>:
  87:	f3 0f 1e fa          	endbr64
  8b:	55                   	push   rbp
  8c:	48 89 e5             	mov    rbp,rsp
  8f:	48 83 ec 20          	sub    rsp,0x20
  93:	89 7d ec             	mov    DWORD PTR [rbp-0x14],edi
  96:	8b 45 ec             	mov    eax,DWORD PTR [rbp-0x14]
  99:	48 83 ec 08          	sub    rsp,0x8
  9d:	6a 08                	push   0x8
  9f:	49 c7 c1 ff ff ff ff 	mov    r9,0xffffffffffffffff
  a6:	49 c7 c0 ff ff ff ff 	mov    r8,0xffffffffffffffff
  ad:	48 c7 c1 ff ff ff ff 	mov    rcx,0xffffffffffffffff
  b4:	ba 02 00 00 00       	mov    edx,0x2
  b9:	be 00 00 00 00       	mov    esi,0x0
  be:	48 89 c7             	mov    rdi,rax
  c1:	e8 00 00 00 00       	call   c6 <file_content_size+0x3f>
  c6:	48 83 c4 10          	add    rsp,0x10
  ca:	48 89 45 f8          	mov    QWORD PTR [rbp-0x8],rax
  ce:	8b 45 ec             	mov    eax,DWORD PTR [rbp-0x14]
  d1:	48 83 ec 08          	sub    rsp,0x8
  d5:	6a 08                	push   0x8
  d7:	49 c7 c1 ff ff ff ff 	mov    r9,0xffffffffffffffff
  de:	49 c7 c0 ff ff ff ff 	mov    r8,0xffffffffffffffff
  e5:	48 c7 c1 ff ff ff ff 	mov    rcx,0xffffffffffffffff
  ec:	ba 00 00 00 00       	mov    edx,0x0
  f1:	be 00 00 00 00       	mov    esi,0x0
  f6:	48 89 c7             	mov    rdi,rax
  f9:	e8 00 00 00 00       	call   fe <file_content_size+0x77>
  fe:	48 83 c4 10          	add    rsp,0x10
 102:	48 8b 45 f8          	mov    rax,QWORD PTR [rbp-0x8]
 106:	c9                   	leave
 107:	c3                   	ret

0000000000000108 <file_read>:
 108:	f3 0f 1e fa          	endbr64
 10c:	55                   	push   rbp
 10d:	48 89 e5             	mov    rbp,rsp
 110:	48 83 ec 10          	sub    rsp,0x10
 114:	89 7d fc             	mov    DWORD PTR [rbp-0x4],edi
 117:	48 89 75 f0          	mov    QWORD PTR [rbp-0x10],rsi
 11b:	89 55 f8             	mov    DWORD PTR [rbp-0x8],edx
 11e:	8b 45 f8             	mov    eax,DWORD PTR [rbp-0x8]
 121:	48 63 d0             	movsxd rdx,eax
 124:	48 8b 75 f0          	mov    rsi,QWORD PTR [rbp-0x10]
 128:	8b 45 fc             	mov    eax,DWORD PTR [rbp-0x4]
 12b:	48 83 ec 08          	sub    rsp,0x8
 12f:	6a 00                	push   0x0
 131:	49 c7 c1 ff ff ff ff 	mov    r9,0xffffffffffffffff
 138:	49 c7 c0 ff ff ff ff 	mov    r8,0xffffffffffffffff
 13f:	48 c7 c1 ff ff ff ff 	mov    rcx,0xffffffffffffffff
 146:	48 89 c7             	mov    rdi,rax
 149:	e8 00 00 00 00       	call   14e <file_read+0x46>
 14e:	48 83 c4 10          	add    rsp,0x10
 152:	c9                   	leave
 153:	c3                   	ret

0000000000000154 <file_write>:
 154:	f3 0f 1e fa          	endbr64
 158:	55                   	push   rbp
 159:	48 89 e5             	mov    rbp,rsp
 15c:	48 83 ec 10          	sub    rsp,0x10
 160:	89 7d fc             	mov    DWORD PTR [rbp-0x4],edi
 163:	48 89 75 f0          	mov    QWORD PTR [rbp-0x10],rsi
 167:	89 55 f8             	mov    DWORD PTR [rbp-0x8],edx
 16a:	8b 45 f8             	mov    eax,DWORD PTR [rbp-0x8]
 16d:	48 63 d0             	movsxd rdx,eax
 170:	48 8b 75 f0          	mov    rsi,QWORD PTR [rbp-0x10]
 174:	8b 45 fc             	mov    eax,DWORD PTR [rbp-0x4]
 177:	48 83 ec 08          	sub    rsp,0x8
 17b:	6a 01                	push   0x1
 17d:	49 c7 c1 ff ff ff ff 	mov    r9,0xffffffffffffffff
 184:	49 c7 c0 ff ff ff ff 	mov    r8,0xffffffffffffffff
 18b:	48 c7 c1 ff ff ff ff 	mov    rcx,0xffffffffffffffff
 192:	48 89 c7             	mov    rdi,rax
 195:	e8 00 00 00 00       	call   19a <file_write+0x46>
 19a:	48 83 c4 10          	add    rsp,0x10
 19e:	c9                   	leave
 19f:	c3                   	ret

00000000000001a0 <file_close>:
 1a0:	f3 0f 1e fa          	endbr64
 1a4:	55                   	push   rbp
 1a5:	48 89 e5             	mov    rbp,rsp
 1a8:	48 83 ec 10          	sub    rsp,0x10
 1ac:	89 7d fc             	mov    DWORD PTR [rbp-0x4],edi
 1af:	8b 45 fc             	mov    eax,DWORD PTR [rbp-0x4]
 1b2:	48 83 ec 08          	sub    rsp,0x8
 1b6:	6a 03                	push   0x3
 1b8:	49 c7 c1 ff ff ff ff 	mov    r9,0xffffffffffffffff
 1bf:	49 c7 c0 ff ff ff ff 	mov    r8,0xffffffffffffffff
 1c6:	48 c7 c1 ff ff ff ff 	mov    rcx,0xffffffffffffffff
 1cd:	48 c7 c2 ff ff ff ff 	mov    rdx,0xffffffffffffffff
 1d4:	48 c7 c6 ff ff ff ff 	mov    rsi,0xffffffffffffffff
 1db:	48 89 c7             	mov    rdi,rax
 1de:	e8 00 00 00 00       	call   1e3 <file_close+0x43>
 1e3:	48 83 c4 10          	add    rsp,0x10
 1e7:	90                   	nop
 1e8:	c9                   	leave
 1e9:	c3                   	ret

int.o:     file format elf64-x86-64


Disassembly of section .text:

0000000000000000 <is_i32_valid>:
   0:	f3 0f 1e fa          	endbr64
   4:	55                   	push   rbp
   5:	48 89 e5             	mov    rbp,rsp
   8:	89 7d fc             	mov    DWORD PTR [rbp-0x4],edi
   b:	8b 45 fc             	mov    eax,DWORD PTR [rbp-0x4]
   e:	f7 d0                	not    eax
  10:	c1 e8 1f             	shr    eax,0x1f
  13:	0f b6 c0             	movzx  eax,al
  16:	5d                   	pop    rbp
  17:	c3                   	ret

0000000000000018 <count_int_digits>:
  18:	f3 0f 1e fa          	endbr64
  1c:	55                   	push   rbp
  1d:	48 89 e5             	mov    rbp,rsp
  20:	89 7d ec             	mov    DWORD PTR [rbp-0x14],edi
  23:	8b 45 ec             	mov    eax,DWORD PTR [rbp-0x14]
  26:	89 45 fc             	mov    DWORD PTR [rbp-0x4],eax
  29:	83 7d fc 00          	cmp    DWORD PTR [rbp-0x4],0x0
  2d:	75 07                	jne    36 <count_int_digits+0x1e>
  2f:	b8 01 00 00 00       	mov    eax,0x1
  34:	eb 3d                	jmp    73 <count_int_digits+0x5b>
  36:	83 7d fc 00          	cmp    DWORD PTR [rbp-0x4],0x0
  3a:	79 03                	jns    3f <count_int_digits+0x27>
  3c:	f7 5d fc             	neg    DWORD PTR [rbp-0x4]
  3f:	c7 45 f8 00 00 00 00 	mov    DWORD PTR [rbp-0x8],0x0
  46:	eb 22                	jmp    6a <count_int_digits+0x52>
  48:	8b 45 fc             	mov    eax,DWORD PTR [rbp-0x4]
  4b:	48 63 d0             	movsxd rdx,eax
  4e:	48 69 d2 67 66 66 66 	imul   rdx,rdx,0x66666667
  55:	48 c1 ea 20          	shr    rdx,0x20
  59:	89 d1                	mov    ecx,edx
  5b:	c1 f9 02             	sar    ecx,0x2
  5e:	99                   	cdq
  5f:	89 c8                	mov    eax,ecx
  61:	29 d0                	sub    eax,edx
  63:	89 45 fc             	mov    DWORD PTR [rbp-0x4],eax
  66:	83 45 f8 01          	add    DWORD PTR [rbp-0x8],0x1
  6a:	83 7d fc 00          	cmp    DWORD PTR [rbp-0x4],0x0
  6e:	7f d8                	jg     48 <count_int_digits+0x30>
  70:	8b 45 f8             	mov    eax,DWORD PTR [rbp-0x8]
  73:	5d                   	pop    rbp
  74:	c3                   	ret

internal.o:     file format elf64-x86-64


Disassembly of section .text:

0000000000000000 <toggle_debug_mode>:
   0:	f3 0f 1e fa          	endbr64
   4:	55                   	push   rbp
   5:	48 89 e5             	mov    rbp,rsp
   8:	8b 05 00 00 00 00    	mov    eax,DWORD PTR [rip+0x0]        # e <toggle_debug_mode+0xe>
   e:	85 c0                	test   eax,eax
  10:	0f 94 c0             	sete   al
  13:	0f b6 c0             	movzx  eax,al
  16:	89 05 00 00 00 00    	mov    DWORD PTR [rip+0x0],eax        # 1c <toggle_debug_mode+0x1c>
  1c:	90                   	nop
  1d:	5d                   	pop    rbp
  1e:	c3                   	ret

000000000000001f <__exit>:
  1f:	f3 0f 1e fa          	endbr64
  23:	55                   	push   rbp
  24:	48 89 e5             	mov    rbp,rsp
  27:	48 83 ec 10          	sub    rsp,0x10
  2b:	89 7d fc             	mov    DWORD PTR [rbp-0x4],edi
  2e:	8b 45 fc             	mov    eax,DWORD PTR [rbp-0x4]
  31:	48 98                	cdqe
  33:	48 83 ec 08          	sub    rsp,0x8
  37:	6a 3c                	push   0x3c
  39:	49 c7 c1 ff ff ff ff 	mov    r9,0xffffffffffffffff
  40:	49 c7 c0 ff ff ff ff 	mov    r8,0xffffffffffffffff
  47:	48 c7 c1 ff ff ff ff 	mov    rcx,0xffffffffffffffff
  4e:	ba 00 00 00 00       	mov    edx,0x0
  53:	be 00 00 00 00       	mov    esi,0x0
  58:	48 89 c7             	mov    rdi,rax
  5b:	e8 00 00 00 00       	call   60 <__exit+0x41>
  60:	48 83 c4 10          	add    rsp,0x10
  64:	90                   	nop
  65:	c9                   	leave
  66:	c3                   	ret

0000000000000067 <get_input>:
  67:	f3 0f 1e fa          	endbr64
  6b:	55                   	push   rbp
  6c:	48 89 e5             	mov    rbp,rsp
  6f:	48 83 ec 20          	sub    rsp,0x20
  73:	48 89 7d e8          	mov    QWORD PTR [rbp-0x18],rdi
  77:	89 75 e4             	mov    DWORD PTR [rbp-0x1c],esi
  7a:	8b 45 e4             	mov    eax,DWORD PTR [rbp-0x1c]
  7d:	48 63 d0             	movsxd rdx,eax
  80:	48 8b 45 e8          	mov    rax,QWORD PTR [rbp-0x18]
  84:	48 83 ec 08          	sub    rsp,0x8
  88:	6a 00                	push   0x0
  8a:	49 c7 c1 ff ff ff ff 	mov    r9,0xffffffffffffffff
  91:	49 c7 c0 ff ff ff ff 	mov    r8,0xffffffffffffffff
  98:	48 c7 c1 ff ff ff ff 	mov    rcx,0xffffffffffffffff
  9f:	48 89 c6             	mov    rsi,rax
  a2:	bf 00 00 00 00       	mov    edi,0x0
  a7:	e8 00 00 00 00       	call   ac <get_input+0x45>
  ac:	48 83 c4 10          	add    rsp,0x10
  b0:	48 89 45 f8          	mov    QWORD PTR [rbp-0x8],rax
  b4:	48 8b 45 f8          	mov    rax,QWORD PTR [rbp-0x8]
  b8:	c9                   	leave
  b9:	c3                   	ret

00000000000000ba <execute>:
  ba:	f3 0f 1e fa          	endbr64
  be:	55                   	push   rbp
  bf:	48 89 e5             	mov    rbp,rsp
  c2:	48 83 ec 20          	sub    rsp,0x20
  c6:	48 89 7d e8          	mov    QWORD PTR [rbp-0x18],rdi
  ca:	48 89 75 e0          	mov    QWORD PTR [rbp-0x20],rsi
  ce:	48 83 7d e8 00       	cmp    QWORD PTR [rbp-0x18],0x0
  d3:	0f 84 f7 00 00 00    	je     1d0 <execute+0x116>
  d9:	48 83 7d e0 00       	cmp    QWORD PTR [rbp-0x20],0x0
  de:	0f 84 ec 00 00 00    	je     1d0 <execute+0x116>
  e4:	48 83 ec 08          	sub    rsp,0x8
  e8:	6a 39                	push   0x39
  ea:	49 c7 c1 ff ff ff ff 	mov    r9,0xffffffffffffffff
  f1:	49 c7 c0 ff ff ff ff 	mov    r8,0xffffffffffffffff
  f8:	48 c7 c1 ff ff ff ff 	mov    rcx,0xffffffffffffffff
  ff:	ba 00 00 00 00       	mov    edx,0x0
 104:	be 00 00 00 00       	mov    esi,0x0
 109:	bf 00 00 00 00       	mov    edi,0x0
 10e:	e8 00 00 00 00       	call   113 <execute+0x59>
 113:	48 83 c4 10          	add    rsp,0x10
 117:	48 89 45 f8          	mov    QWORD PTR [rbp-0x8],rax
 11b:	48 83 7d f8 00       	cmp    QWORD PTR [rbp-0x8],0x0
 120:	75 36                	jne    158 <execute+0x9e>
 122:	48 8b 75 e0          	mov    rsi,QWORD PTR [rbp-0x20]
 126:	48 8b 45 e8          	mov    rax,QWORD PTR [rbp-0x18]
 12a:	48 83 ec 08          	sub    rsp,0x8
 12e:	6a 3b                	push   0x3b
 130:	49 c7 c1 ff ff ff ff 	mov    r9,0xffffffffffffffff
 137:	49 c7 c0 ff ff ff ff 	mov    r8,0xffffffffffffffff
 13e:	48 c7 c1 ff ff ff ff 	mov    rcx,0xffffffffffffffff
 145:	ba 00 00 00 00       	mov    edx,0x0
 14a:	48 89 c7             	mov    rdi,rax
 14d:	e8 00 00 00 00       	call   152 <execute+0x98>
 152:	48 83 c4 10          	add    rsp,0x10
 156:	eb 79                	jmp    1d1 <execute+0x117>
 158:	48 83 7d f8 00       	cmp    QWORD PTR [rbp-0x8],0x0
 15d:	7e 37                	jle    196 <execute+0xdc>
 15f:	48 8b 45 f8          	mov    rax,QWORD PTR [rbp-0x8]
 163:	48 83 ec 08          	sub    rsp,0x8
 167:	6a 3d                	push   0x3d
 169:	49 c7 c1 ff ff ff ff 	mov    r9,0xffffffffffffffff
 170:	49 c7 c0 ff ff ff ff 	mov    r8,0xffffffffffffffff
 177:	48 c7 c1 ff ff ff ff 	mov    rcx,0xffffffffffffffff
 17e:	ba 00 00 00 00       	mov    edx,0x0
 183:	be 00 00 00 00       	mov    esi,0x0
 188:	48 89 c7             	mov    rdi,rax
 18b:	e8 00 00 00 00       	call   190 <execute+0xd6>
 190:	48 83 c4 10          	add    rsp,0x10
 194:	eb 3b                	jmp    1d1 <execute+0x117>
 196:	48 8d 05 00 00 00 00 	lea    rax,[rip+0x0]        # 19d <execute+0xe3>
 19d:	48 83 ec 08          	sub    rsp,0x8
 1a1:	6a 01                	push   0x1
 1a3:	49 c7 c1 ff ff ff ff 	mov    r9,0xffffffffffffffff
 1aa:	49 c7 c0 ff ff ff ff 	mov    r8,0xffffffffffffffff
 1b1:	48 c7 c1 ff ff ff ff 	mov    rcx,0xffffffffffffffff
 1b8:	ba 07 00 00 00       	mov    edx,0x7
 1bd:	48 89 c6             	mov    rsi,rax
 1c0:	bf 01 00 00 00       	mov    edi,0x1
 1c5:	e8 00 00 00 00       	call   1ca <execute+0x110>
 1ca:	48 83 c4 10          	add    rsp,0x10
 1ce:	eb 01                	jmp    1d1 <execute+0x117>
 1d0:	90                   	nop
 1d1:	c9                   	leave
 1d2:	c3                   	ret

00000000000001d3 <print_sz>:
 1d3:	f3 0f 1e fa          	endbr64
 1d7:	55                   	push   rbp
 1d8:	48 89 e5             	mov    rbp,rsp
 1db:	48 83 ec 10          	sub    rsp,0x10
 1df:	48 89 7d f8          	mov    QWORD PTR [rbp-0x8],rdi
 1e3:	89 75 f4             	mov    DWORD PTR [rbp-0xc],esi
 1e6:	8b 45 f4             	mov    eax,DWORD PTR [rbp-0xc]
 1e9:	48 63 d0             	movsxd rdx,eax
 1ec:	48 8b 45 f8          	mov    rax,QWORD PTR [rbp-0x8]
 1f0:	48 83 ec 08          	sub    rsp,0x8
 1f4:	6a 01                	push   0x1
 1f6:	41 b9 00 00 00 00    	mov    r9d,0x0
 1fc:	41 b8 00 00 00 00    	mov    r8d,0x0
 202:	b9 00 00 00 00       	mov    ecx,0x0
 207:	48 89 c6             	mov    rsi,rax
 20a:	bf 01 00 00 00       	mov    edi,0x1
 20f:	e8 00 00 00 00       	call   214 <print_sz+0x41>
 214:	48 83 c4 10          	add    rsp,0x10
 218:	90                   	nop
 219:	c9                   	leave
 21a:	c3                   	ret

000000000000021b <printc>:
 21b:	f3 0f 1e fa          	endbr64
 21f:	55                   	push   rbp
 220:	48 89 e5             	mov    rbp,rsp
 223:	48 83 ec 20          	sub    rsp,0x20
 227:	89 f8                	mov    eax,edi
 229:	88 45 ec             	mov    BYTE PTR [rbp-0x14],al
 22c:	66 c7 45 fe 00 00    	mov    WORD PTR [rbp-0x2],0x0
 232:	0f b6 45 ec          	movzx  eax,BYTE PTR [rbp-0x14]
 236:	88 45 fe             	mov    BYTE PTR [rbp-0x2],al
 239:	48 8d 45 fe          	lea    rax,[rbp-0x2]
 23d:	48 89 c7             	mov    rdi,rax
 240:	e8 00 00 00 00       	call   245 <printc+0x2a>
 245:	90                   	nop
 246:	c9                   	leave
 247:	c3                   	ret

0000000000000248 <printi>:
 248:	f3 0f 1e fa          	endbr64
 24c:	55                   	push   rbp
 24d:	48 89 e5             	mov    rbp,rsp
 250:	48 83 ec 20          	sub    rsp,0x20
 254:	89 7d ec             	mov    DWORD PTR [rbp-0x14],edi
 257:	c7 45 fb 00 00 00 00 	mov    DWORD PTR [rbp-0x5],0x0
 25e:	c6 45 ff 00          	mov    BYTE PTR [rbp-0x1],0x0
 262:	8b 45 ec             	mov    eax,DWORD PTR [rbp-0x14]
 265:	83 c0 30             	add    eax,0x30
 268:	88 45 fb             	mov    BYTE PTR [rbp-0x5],al
 26b:	48 8d 45 fb          	lea    rax,[rbp-0x5]
 26f:	48 89 c7             	mov    rdi,rax
 272:	e8 00 00 00 00       	call   277 <printi+0x2f>
 277:	90                   	nop
 278:	c9                   	leave
 279:	c3                   	ret

000000000000027a <_printi>:
 27a:	f3 0f 1e fa          	endbr64
 27e:	55                   	push   rbp
 27f:	48 89 e5             	mov    rbp,rsp
 282:	48 81 ec c0 00 00 00 	sub    rsp,0xc0
 289:	89 bd 4c ff ff ff    	mov    DWORD PTR [rbp-0xb4],edi
 28f:	8b 85 4c ff ff ff    	mov    eax,DWORD PTR [rbp-0xb4]
 295:	89 45 fc             	mov    DWORD PTR [rbp-0x4],eax
 298:	c7 45 f8 00 00 00 00 	mov    DWORD PTR [rbp-0x8],0x0
 29f:	eb 61                	jmp    302 <_printi+0x88>
 2a1:	8b 55 fc             	mov    edx,DWORD PTR [rbp-0x4]
 2a4:	48 63 c2             	movsxd rax,edx
 2a7:	48 69 c0 67 66 66 66 	imul   rax,rax,0x66666667
 2ae:	48 c1 e8 20          	shr    rax,0x20
 2b2:	89 c1                	mov    ecx,eax
 2b4:	c1 f9 02             	sar    ecx,0x2
 2b7:	89 d0                	mov    eax,edx
 2b9:	c1 f8 1f             	sar    eax,0x1f
 2bc:	29 c1                	sub    ecx,eax
 2be:	89 c8                	mov    eax,ecx
 2c0:	c1 e0 02             	shl    eax,0x2
 2c3:	01 c8                	add    eax,ecx
 2c5:	01 c0                	add    eax,eax
 2c7:	89 d1                	mov    ecx,edx
 2c9:	29 c1                	sub    ecx,eax
 2cb:	89 c8                	mov    eax,ecx
 2cd:	8d 48 30             	lea    ecx,[rax+0x30]
 2d0:	8b 45 f8             	mov    eax,DWORD PTR [rbp-0x8]
 2d3:	8d 50 01             	lea    edx,[rax+0x1]
 2d6:	89 55 f8             	mov    DWORD PTR [rbp-0x8],edx
 2d9:	89 ca                	mov    edx,ecx
 2db:	48 98                	cdqe
 2dd:	88 94 05 50 ff ff ff 	mov    BYTE PTR [rbp+rax*1-0xb0],dl
 2e4:	8b 45 fc             	mov    eax,DWORD PTR [rbp-0x4]
 2e7:	48 63 d0             	movsxd rdx,eax
 2ea:	48 69 d2 67 66 66 66 	imul   rdx,rdx,0x66666667
 2f1:	48 c1 ea 20          	shr    rdx,0x20
 2f5:	89 d1                	mov    ecx,edx
 2f7:	c1 f9 02             	sar    ecx,0x2
 2fa:	99                   	cdq
 2fb:	89 c8                	mov    eax,ecx
 2fd:	29 d0                	sub    eax,edx
 2ff:	89 45 fc             	mov    DWORD PTR [rbp-0x4],eax
 302:	83 7d fc 00          	cmp    DWORD PTR [rbp-0x4],0x0
 306:	75 99                	jne    2a1 <_printi+0x27>
 308:	c7 45 f4 00 00 00 00 	mov    DWORD PTR [rbp-0xc],0x0
 30f:	eb 48                	jmp    359 <_printi+0xdf>
 311:	8b 45 f4             	mov    eax,DWORD PTR [rbp-0xc]
 314:	48 98                	cdqe
 316:	0f b6 84 05 50 ff ff 	movzx  eax,BYTE PTR [rbp+rax*1-0xb0]
 31d:	ff 
 31e:	88 45 f3             	mov    BYTE PTR [rbp-0xd],al
 321:	83 6d f8 01          	sub    DWORD PTR [rbp-0x8],0x1
 325:	8b 45 f8             	mov    eax,DWORD PTR [rbp-0x8]
 328:	48 98                	cdqe
 32a:	0f b6 84 05 50 ff ff 	movzx  eax,BYTE PTR [rbp+rax*1-0xb0]
 331:	ff 
 332:	88 45 f2             	mov    BYTE PTR [rbp-0xe],al
 335:	8b 45 f4             	mov    eax,DWORD PTR [rbp-0xc]
 338:	48 98                	cdqe
 33a:	0f b6 55 f2          	movzx  edx,BYTE PTR [rbp-0xe]
 33e:	88 94 05 50 ff ff ff 	mov    BYTE PTR [rbp+rax*1-0xb0],dl
 345:	8b 45 f8             	mov    eax,DWORD PTR [rbp-0x8]
 348:	48 98                	cdqe
 34a:	0f b6 55 f3          	movzx  edx,BYTE PTR [rbp-0xd]
 34e:	88 94 05 50 ff ff ff 	mov    BYTE PTR [rbp+rax*1-0xb0],dl
 355:	83 45 f4 01          	add    DWORD PTR [rbp-0xc],0x1
 359:	8b 45 f4             	mov    eax,DWORD PTR [rbp-0xc]
 35c:	3b 45 f8             	cmp    eax,DWORD PTR [rbp-0x8]
 35f:	7c b0                	jl     311 <_printi+0x97>
 361:	8b 45 f4             	mov    eax,DWORD PTR [rbp-0xc]
 364:	8d 50 01             	lea    edx,[rax+0x1]
 367:	48 8d 85 50 ff ff ff 	lea    rax,[rbp-0xb0]
 36e:	89 d6                	mov    esi,edx
 370:	48 89 c7             	mov    rdi,rax
 373:	e8 00 00 00 00       	call   378 <_printi+0xfe>
 378:	90                   	nop
 379:	c9                   	leave
 37a:	c3                   	ret

000000000000037b <print>:
 37b:	f3 0f 1e fa          	endbr64
 37f:	55                   	push   rbp
 380:	48 89 e5             	mov    rbp,rsp
 383:	48 83 ec 10          	sub    rsp,0x10
 387:	48 89 7d f8          	mov    QWORD PTR [rbp-0x8],rdi
 38b:	48 8b 45 f8          	mov    rax,QWORD PTR [rbp-0x8]
 38f:	48 89 c7             	mov    rdi,rax
 392:	e8 00 00 00 00       	call   397 <print+0x1c>
 397:	48 63 d0             	movsxd rdx,eax
 39a:	48 8b 45 f8          	mov    rax,QWORD PTR [rbp-0x8]
 39e:	48 83 ec 08          	sub    rsp,0x8
 3a2:	6a 01                	push   0x1
 3a4:	49 c7 c1 ff ff ff ff 	mov    r9,0xffffffffffffffff
 3ab:	49 c7 c0 ff ff ff ff 	mov    r8,0xffffffffffffffff
 3b2:	48 c7 c1 ff ff ff ff 	mov    rcx,0xffffffffffffffff
 3b9:	48 89 c6             	mov    rsi,rax
 3bc:	bf 01 00 00 00       	mov    edi,0x1
 3c1:	e8 00 00 00 00       	call   3c6 <print+0x4b>
 3c6:	48 83 c4 10          	add    rsp,0x10
 3ca:	90                   	nop
 3cb:	c9                   	leave
 3cc:	c3                   	ret

00000000000003cd <println>:
 3cd:	f3 0f 1e fa          	endbr64
 3d1:	55                   	push   rbp
 3d2:	48 89 e5             	mov    rbp,rsp
 3d5:	48 83 ec 10          	sub    rsp,0x10
 3d9:	48 89 7d f8          	mov    QWORD PTR [rbp-0x8],rdi
 3dd:	48 8b 45 f8          	mov    rax,QWORD PTR [rbp-0x8]
 3e1:	48 89 c7             	mov    rdi,rax
 3e4:	e8 00 00 00 00       	call   3e9 <println+0x1c>
 3e9:	48 63 d0             	movsxd rdx,eax
 3ec:	48 8b 45 f8          	mov    rax,QWORD PTR [rbp-0x8]
 3f0:	48 83 ec 08          	sub    rsp,0x8
 3f4:	6a 01                	push   0x1
 3f6:	49 c7 c1 ff ff ff ff 	mov    r9,0xffffffffffffffff
 3fd:	49 c7 c0 ff ff ff ff 	mov    r8,0xffffffffffffffff
 404:	48 c7 c1 ff ff ff ff 	mov    rcx,0xffffffffffffffff
 40b:	48 89 c6             	mov    rsi,rax
 40e:	bf 01 00 00 00       	mov    edi,0x1
 413:	e8 00 00 00 00       	call   418 <println+0x4b>
 418:	48 83 c4 10          	add    rsp,0x10
 41c:	48 8d 05 00 00 00 00 	lea    rax,[rip+0x0]        # 423 <println+0x56>
 423:	48 83 ec 08          	sub    rsp,0x8
 427:	6a 01                	push   0x1
 429:	49 c7 c1 ff ff ff ff 	mov    r9,0xffffffffffffffff
 430:	49 c7 c0 ff ff ff ff 	mov    r8,0xffffffffffffffff
 437:	48 c7 c1 ff ff ff ff 	mov    rcx,0xffffffffffffffff
 43e:	ba 01 00 00 00       	mov    edx,0x1
 443:	48 89 c6             	mov    rsi,rax
 446:	bf 01 00 00 00       	mov    edi,0x1
 44b:	e8 00 00 00 00       	call   450 <println+0x83>
 450:	48 83 c4 10          	add    rsp,0x10
 454:	90                   	nop
 455:	c9                   	leave
 456:	c3                   	ret

0000000000000457 <print_args>:
 457:	f3 0f 1e fa          	endbr64
 45b:	55                   	push   rbp
 45c:	48 89 e5             	mov    rbp,rsp
 45f:	48 83 ec 20          	sub    rsp,0x20
 463:	48 89 7d e8          	mov    QWORD PTR [rbp-0x18],rdi
 467:	c7 45 fc 00 00 00 00 	mov    DWORD PTR [rbp-0x4],0x0
 46e:	eb 23                	jmp    493 <print_args+0x3c>
 470:	8b 45 fc             	mov    eax,DWORD PTR [rbp-0x4]
 473:	48 98                	cdqe
 475:	48 8d 14 c5 00 00 00 	lea    rdx,[rax*8+0x0]
 47c:	00 
 47d:	48 8b 45 e8          	mov    rax,QWORD PTR [rbp-0x18]
 481:	48 01 d0             	add    rax,rdx
 484:	48 8b 00             	mov    rax,QWORD PTR [rax]
 487:	48 89 c7             	mov    rdi,rax
 48a:	e8 00 00 00 00       	call   48f <print_args+0x38>
 48f:	83 45 fc 01          	add    DWORD PTR [rbp-0x4],0x1
 493:	8b 45 fc             	mov    eax,DWORD PTR [rbp-0x4]
 496:	48 98                	cdqe
 498:	48 8d 14 c5 00 00 00 	lea    rdx,[rax*8+0x0]
 49f:	00 
 4a0:	48 8b 45 e8          	mov    rax,QWORD PTR [rbp-0x18]
 4a4:	48 01 d0             	add    rax,rdx
 4a7:	48 8b 00             	mov    rax,QWORD PTR [rax]
 4aa:	48 85 c0             	test   rax,rax
 4ad:	75 c1                	jne    470 <print_args+0x19>
 4af:	90                   	nop
 4b0:	90                   	nop
 4b1:	c9                   	leave
 4b2:	c3                   	ret

00000000000004b3 <to_heap>:
 4b3:	f3 0f 1e fa          	endbr64
 4b7:	55                   	push   rbp
 4b8:	48 89 e5             	mov    rbp,rsp
 4bb:	48 83 ec 20          	sub    rsp,0x20
 4bf:	48 89 7d e8          	mov    QWORD PTR [rbp-0x18],rdi
 4c3:	89 75 e4             	mov    DWORD PTR [rbp-0x1c],esi
 4c6:	8b 45 e4             	mov    eax,DWORD PTR [rbp-0x1c]
 4c9:	83 c0 01             	add    eax,0x1
 4cc:	89 c6                	mov    esi,eax
 4ce:	bf 00 00 00 00       	mov    edi,0x0
 4d3:	e8 00 00 00 00       	call   4d8 <to_heap+0x25>
 4d8:	48 89 45 f8          	mov    QWORD PTR [rbp-0x8],rax
 4dc:	48 83 7d f8 00       	cmp    QWORD PTR [rbp-0x8],0x0
 4e1:	75 07                	jne    4ea <to_heap+0x37>
 4e3:	b8 00 00 00 00       	mov    eax,0x0
 4e8:	eb 2d                	jmp    517 <to_heap+0x64>
 4ea:	8b 45 e4             	mov    eax,DWORD PTR [rbp-0x1c]
 4ed:	48 63 d0             	movsxd rdx,eax
 4f0:	48 8b 4d e8          	mov    rcx,QWORD PTR [rbp-0x18]
 4f4:	48 8b 45 f8          	mov    rax,QWORD PTR [rbp-0x8]
 4f8:	48 89 ce             	mov    rsi,rcx
 4fb:	48 89 c7             	mov    rdi,rax
 4fe:	e8 00 00 00 00       	call   503 <to_heap+0x50>
 503:	8b 45 e4             	mov    eax,DWORD PTR [rbp-0x1c]
 506:	48 63 d0             	movsxd rdx,eax
 509:	48 8b 45 f8          	mov    rax,QWORD PTR [rbp-0x8]
 50d:	48 01 d0             	add    rax,rdx
 510:	c6 00 00             	mov    BYTE PTR [rax],0x0
 513:	48 8b 45 f8          	mov    rax,QWORD PTR [rbp-0x8]
 517:	c9                   	leave
 518:	c3                   	ret

0000000000000519 <__clibp_panic>:
 519:	f3 0f 1e fa          	endbr64
 51d:	55                   	push   rbp
 51e:	48 89 e5             	mov    rbp,rsp
 521:	48 83 ec 20          	sub    rsp,0x20
 525:	48 89 7d f8          	mov    QWORD PTR [rbp-0x8],rdi
 529:	48 89 75 f0          	mov    QWORD PTR [rbp-0x10],rsi
 52d:	89 55 ec             	mov    DWORD PTR [rbp-0x14],edx
 530:	48 8b 45 f0          	mov    rax,QWORD PTR [rbp-0x10]
 534:	48 89 c7             	mov    rdi,rax
 537:	e8 00 00 00 00       	call   53c <__clibp_panic+0x23>
 53c:	48 8d 05 00 00 00 00 	lea    rax,[rip+0x0]        # 543 <__clibp_panic+0x2a>
 543:	48 89 c7             	mov    rdi,rax
 546:	e8 00 00 00 00       	call   54b <__clibp_panic+0x32>
 54b:	8b 45 ec             	mov    eax,DWORD PTR [rbp-0x14]
 54e:	89 c7                	mov    edi,eax
 550:	e8 00 00 00 00       	call   555 <__clibp_panic+0x3c>
 555:	48 8d 05 00 00 00 00 	lea    rax,[rip+0x0]        # 55c <__clibp_panic+0x43>
 55c:	48 89 c7             	mov    rdi,rax
 55f:	e8 00 00 00 00       	call   564 <__clibp_panic+0x4b>
 564:	48 8b 45 f8          	mov    rax,QWORD PTR [rbp-0x8]
 568:	48 89 c7             	mov    rdi,rax
 56b:	e8 00 00 00 00       	call   570 <__clibp_panic+0x57>
 570:	bf 01 00 00 00       	mov    edi,0x1
 575:	e8 00 00 00 00       	call   57a <__clibp_panic+0x61>
 57a:	90                   	nop
 57b:	c9                   	leave
 57c:	c3                   	ret

map.o:     file format elf64-x86-64


Disassembly of section .text:

0000000000000000 <init_map>:
   0:	f3 0f 1e fa          	endbr64
   4:	55                   	push   rbp
   5:	48 89 e5             	mov    rbp,rsp
   8:	48 83 ec 10          	sub    rsp,0x10
   c:	be 10 00 00 00       	mov    esi,0x10
  11:	bf 00 00 00 00       	mov    edi,0x0
  16:	e8 00 00 00 00       	call   1b <init_map+0x1b>
  1b:	48 89 45 f8          	mov    QWORD PTR [rbp-0x8],rax
  1f:	48 83 7d f8 00       	cmp    QWORD PTR [rbp-0x8],0x0
  24:	75 1e                	jne    44 <init_map+0x44>
  26:	ba 07 00 00 00       	mov    edx,0x7
  2b:	48 8d 05 00 00 00 00 	lea    rax,[rip+0x0]        # 32 <init_map+0x32>
  32:	48 89 c6             	mov    rsi,rax
  35:	48 8d 05 00 00 00 00 	lea    rax,[rip+0x0]        # 3c <init_map+0x3c>
  3c:	48 89 c7             	mov    rdi,rax
  3f:	e8 00 00 00 00       	call   44 <init_map+0x44>
  44:	be 10 00 00 00       	mov    esi,0x10
  49:	bf 00 00 00 00       	mov    edi,0x0
  4e:	e8 00 00 00 00       	call   53 <init_map+0x53>
  53:	48 8b 55 f8          	mov    rdx,QWORD PTR [rbp-0x8]
  57:	48 89 02             	mov    QWORD PTR [rdx],rax
  5a:	48 8b 45 f8          	mov    rax,QWORD PTR [rbp-0x8]
  5e:	c7 40 08 00 00 00 00 	mov    DWORD PTR [rax+0x8],0x0
  65:	48 8b 45 f8          	mov    rax,QWORD PTR [rbp-0x8]
  69:	c9                   	leave
  6a:	c3                   	ret

000000000000006b <map_append>:
  6b:	f3 0f 1e fa          	endbr64
  6f:	55                   	push   rbp
  70:	48 89 e5             	mov    rbp,rsp
  73:	48 83 ec 30          	sub    rsp,0x30
  77:	48 89 7d e8          	mov    QWORD PTR [rbp-0x18],rdi
  7b:	48 89 75 e0          	mov    QWORD PTR [rbp-0x20],rsi
  7f:	48 89 55 d8          	mov    QWORD PTR [rbp-0x28],rdx
  83:	48 83 7d e8 00       	cmp    QWORD PTR [rbp-0x18],0x0
  88:	74 0e                	je     98 <map_append+0x2d>
  8a:	48 83 7d e0 00       	cmp    QWORD PTR [rbp-0x20],0x0
  8f:	74 07                	je     98 <map_append+0x2d>
  91:	48 83 7d d8 00       	cmp    QWORD PTR [rbp-0x28],0x0
  96:	75 0a                	jne    a2 <map_append+0x37>
  98:	b8 01 00 00 00       	mov    eax,0x1
  9d:	e9 91 00 00 00       	jmp    133 <map_append+0xc8>
  a2:	be 10 00 00 00       	mov    esi,0x10
  a7:	bf 00 00 00 00       	mov    edi,0x0
  ac:	e8 00 00 00 00       	call   b1 <map_append+0x46>
  b1:	48 89 45 f8          	mov    QWORD PTR [rbp-0x8],rax
  b5:	48 8b 45 e0          	mov    rax,QWORD PTR [rbp-0x20]
  b9:	48 89 c7             	mov    rdi,rax
  bc:	e8 00 00 00 00       	call   c1 <map_append+0x56>
  c1:	48 8b 55 f8          	mov    rdx,QWORD PTR [rbp-0x8]
  c5:	48 89 02             	mov    QWORD PTR [rdx],rax
  c8:	48 8b 45 d8          	mov    rax,QWORD PTR [rbp-0x28]
  cc:	48 89 c7             	mov    rdi,rax
  cf:	e8 00 00 00 00       	call   d4 <map_append+0x69>
  d4:	48 8b 55 f8          	mov    rdx,QWORD PTR [rbp-0x8]
  d8:	48 89 42 08          	mov    QWORD PTR [rdx+0x8],rax
  dc:	48 8b 45 e8          	mov    rax,QWORD PTR [rbp-0x18]
  e0:	48 8b 30             	mov    rsi,QWORD PTR [rax]
  e3:	48 8b 45 e8          	mov    rax,QWORD PTR [rbp-0x18]
  e7:	8b 40 08             	mov    eax,DWORD PTR [rax+0x8]
  ea:	8d 48 01             	lea    ecx,[rax+0x1]
  ed:	48 8b 55 e8          	mov    rdx,QWORD PTR [rbp-0x18]
  f1:	89 4a 08             	mov    DWORD PTR [rdx+0x8],ecx
  f4:	48 98                	cdqe
  f6:	48 c1 e0 03          	shl    rax,0x3
  fa:	48 8d 14 06          	lea    rdx,[rsi+rax*1]
  fe:	48 8b 45 f8          	mov    rax,QWORD PTR [rbp-0x8]
 102:	48 89 02             	mov    QWORD PTR [rdx],rax
 105:	48 8b 45 e8          	mov    rax,QWORD PTR [rbp-0x18]
 109:	8b 40 08             	mov    eax,DWORD PTR [rax+0x8]
 10c:	83 c0 01             	add    eax,0x1
 10f:	48 98                	cdqe
 111:	c1 e0 04             	shl    eax,0x4
 114:	89 c2                	mov    edx,eax
 116:	48 8b 45 e8          	mov    rax,QWORD PTR [rbp-0x18]
 11a:	48 8b 00             	mov    rax,QWORD PTR [rax]
 11d:	89 d6                	mov    esi,edx
 11f:	48 89 c7             	mov    rdi,rax
 122:	e8 00 00 00 00       	call   127 <map_append+0xbc>
 127:	48 8b 55 e8          	mov    rdx,QWORD PTR [rbp-0x18]
 12b:	48 89 02             	mov    QWORD PTR [rdx],rax
 12e:	b8 01 00 00 00       	mov    eax,0x1
 133:	c9                   	leave
 134:	c3                   	ret

0000000000000135 <find_key>:
 135:	f3 0f 1e fa          	endbr64
 139:	55                   	push   rbp
 13a:	48 89 e5             	mov    rbp,rsp
 13d:	48 83 ec 20          	sub    rsp,0x20
 141:	48 89 7d e8          	mov    QWORD PTR [rbp-0x18],rdi
 145:	48 89 75 e0          	mov    QWORD PTR [rbp-0x20],rsi
 149:	48 83 7d e8 00       	cmp    QWORD PTR [rbp-0x18],0x0
 14e:	74 07                	je     157 <find_key+0x22>
 150:	48 83 7d e0 00       	cmp    QWORD PTR [rbp-0x20],0x0
 155:	75 07                	jne    15e <find_key+0x29>
 157:	b8 00 00 00 00       	mov    eax,0x0
 15c:	eb 77                	jmp    1d5 <find_key+0xa0>
 15e:	c7 45 fc 00 00 00 00 	mov    DWORD PTR [rbp-0x4],0x0
 165:	eb 5d                	jmp    1c4 <find_key+0x8f>
 167:	48 8b 45 e0          	mov    rax,QWORD PTR [rbp-0x20]
 16b:	48 89 c7             	mov    rdi,rax
 16e:	e8 00 00 00 00       	call   173 <find_key+0x3e>
 173:	48 63 d0             	movsxd rdx,eax
 176:	48 8b 45 e8          	mov    rax,QWORD PTR [rbp-0x18]
 17a:	48 8b 00             	mov    rax,QWORD PTR [rax]
 17d:	8b 4d fc             	mov    ecx,DWORD PTR [rbp-0x4]
 180:	48 63 c9             	movsxd rcx,ecx
 183:	48 c1 e1 03          	shl    rcx,0x3
 187:	48 01 c8             	add    rax,rcx
 18a:	48 8b 00             	mov    rax,QWORD PTR [rax]
 18d:	48 8b 00             	mov    rax,QWORD PTR [rax]
 190:	48 8b 4d e0          	mov    rcx,QWORD PTR [rbp-0x20]
 194:	48 89 ce             	mov    rsi,rcx
 197:	48 89 c7             	mov    rdi,rax
 19a:	e8 00 00 00 00       	call   19f <find_key+0x6a>
 19f:	85 c0                	test   eax,eax
 1a1:	74 1d                	je     1c0 <find_key+0x8b>
 1a3:	48 8b 45 e8          	mov    rax,QWORD PTR [rbp-0x18]
 1a7:	48 8b 00             	mov    rax,QWORD PTR [rax]
 1aa:	8b 55 fc             	mov    edx,DWORD PTR [rbp-0x4]
 1ad:	48 63 d2             	movsxd rdx,edx
 1b0:	48 c1 e2 03          	shl    rdx,0x3
 1b4:	48 01 d0             	add    rax,rdx
 1b7:	48 8b 00             	mov    rax,QWORD PTR [rax]
 1ba:	48 8b 40 08          	mov    rax,QWORD PTR [rax+0x8]
 1be:	eb 15                	jmp    1d5 <find_key+0xa0>
 1c0:	83 45 fc 01          	add    DWORD PTR [rbp-0x4],0x1
 1c4:	48 8b 45 e8          	mov    rax,QWORD PTR [rbp-0x18]
 1c8:	8b 40 08             	mov    eax,DWORD PTR [rax+0x8]
 1cb:	39 45 fc             	cmp    DWORD PTR [rbp-0x4],eax
 1ce:	7c 97                	jl     167 <find_key+0x32>
 1d0:	b8 00 00 00 00       	mov    eax,0x0
 1d5:	c9                   	leave
 1d6:	c3                   	ret

mem.o:     file format elf64-x86-64


Disassembly of section .text:

0000000000000000 <memzero>:
   0:	f3 0f 1e fa          	endbr64
   4:	55                   	push   rbp
   5:	48 89 e5             	mov    rbp,rsp
   8:	48 83 ec 10          	sub    rsp,0x10
   c:	48 89 7d f8          	mov    QWORD PTR [rbp-0x8],rdi
  10:	48 89 75 f0          	mov    QWORD PTR [rbp-0x10],rsi
  14:	48 8b 55 f0          	mov    rdx,QWORD PTR [rbp-0x10]
  18:	48 8b 45 f8          	mov    rax,QWORD PTR [rbp-0x8]
  1c:	be 00 00 00 00       	mov    esi,0x0
  21:	48 89 c7             	mov    rdi,rax
  24:	e8 00 00 00 00       	call   29 <memzero+0x29>
  29:	90                   	nop
  2a:	c9                   	leave
  2b:	c3                   	ret

000000000000002c <mem_cmp>:
  2c:	f3 0f 1e fa          	endbr64
  30:	55                   	push   rbp
  31:	48 89 e5             	mov    rbp,rsp
  34:	48 89 7d e8          	mov    QWORD PTR [rbp-0x18],rdi
  38:	48 89 75 e0          	mov    QWORD PTR [rbp-0x20],rsi
  3c:	48 89 55 d8          	mov    QWORD PTR [rbp-0x28],rdx
  40:	c7 45 fc 00 00 00 00 	mov    DWORD PTR [rbp-0x4],0x0
  47:	eb 2f                	jmp    78 <mem_cmp+0x4c>
  49:	8b 45 fc             	mov    eax,DWORD PTR [rbp-0x4]
  4c:	48 63 d0             	movsxd rdx,eax
  4f:	48 8b 45 e8          	mov    rax,QWORD PTR [rbp-0x18]
  53:	48 01 d0             	add    rax,rdx
  56:	0f b6 10             	movzx  edx,BYTE PTR [rax]
  59:	8b 45 fc             	mov    eax,DWORD PTR [rbp-0x4]
  5c:	48 63 c8             	movsxd rcx,eax
  5f:	48 8b 45 e0          	mov    rax,QWORD PTR [rbp-0x20]
  63:	48 01 c8             	add    rax,rcx
  66:	0f b6 00             	movzx  eax,BYTE PTR [rax]
  69:	38 c2                	cmp    dl,al
  6b:	74 07                	je     74 <mem_cmp+0x48>
  6d:	b8 00 00 00 00       	mov    eax,0x0
  72:	eb 14                	jmp    88 <mem_cmp+0x5c>
  74:	83 45 fc 01          	add    DWORD PTR [rbp-0x4],0x1
  78:	8b 45 fc             	mov    eax,DWORD PTR [rbp-0x4]
  7b:	48 98                	cdqe
  7d:	48 3b 45 d8          	cmp    rax,QWORD PTR [rbp-0x28]
  81:	72 c6                	jb     49 <mem_cmp+0x1d>
  83:	b8 01 00 00 00       	mov    eax,0x1
  88:	5d                   	pop    rbp
  89:	c3                   	ret

000000000000008a <mem_cpy>:
  8a:	f3 0f 1e fa          	endbr64
  8e:	55                   	push   rbp
  8f:	48 89 e5             	mov    rbp,rsp
  92:	48 89 7d e8          	mov    QWORD PTR [rbp-0x18],rdi
  96:	48 89 75 e0          	mov    QWORD PTR [rbp-0x20],rsi
  9a:	48 89 55 d8          	mov    QWORD PTR [rbp-0x28],rdx
  9e:	c7 45 fc 00 00 00 00 	mov    DWORD PTR [rbp-0x4],0x0
  a5:	eb 23                	jmp    ca <mem_cpy+0x40>
  a7:	8b 45 fc             	mov    eax,DWORD PTR [rbp-0x4]
  aa:	48 63 d0             	movsxd rdx,eax
  ad:	48 8b 45 e0          	mov    rax,QWORD PTR [rbp-0x20]
  b1:	48 01 d0             	add    rax,rdx
  b4:	8b 55 fc             	mov    edx,DWORD PTR [rbp-0x4]
  b7:	48 63 ca             	movsxd rcx,edx
  ba:	48 8b 55 e8          	mov    rdx,QWORD PTR [rbp-0x18]
  be:	48 01 ca             	add    rdx,rcx
  c1:	0f b6 00             	movzx  eax,BYTE PTR [rax]
  c4:	88 02                	mov    BYTE PTR [rdx],al
  c6:	83 45 fc 01          	add    DWORD PTR [rbp-0x4],0x1
  ca:	8b 45 fc             	mov    eax,DWORD PTR [rbp-0x4]
  cd:	48 98                	cdqe
  cf:	48 3b 45 d8          	cmp    rax,QWORD PTR [rbp-0x28]
  d3:	72 d2                	jb     a7 <mem_cpy+0x1d>
  d5:	90                   	nop
  d6:	90                   	nop
  d7:	5d                   	pop    rbp
  d8:	c3                   	ret

00000000000000d9 <mem_set>:
  d9:	f3 0f 1e fa          	endbr64
  dd:	55                   	push   rbp
  de:	48 89 e5             	mov    rbp,rsp
  e1:	48 89 7d e8          	mov    QWORD PTR [rbp-0x18],rdi
  e5:	89 f0                	mov    eax,esi
  e7:	48 89 55 d8          	mov    QWORD PTR [rbp-0x28],rdx
  eb:	88 45 e4             	mov    BYTE PTR [rbp-0x1c],al
  ee:	c7 45 fc 00 00 00 00 	mov    DWORD PTR [rbp-0x4],0x0
  f5:	eb 17                	jmp    10e <mem_set+0x35>
  f7:	8b 45 fc             	mov    eax,DWORD PTR [rbp-0x4]
  fa:	48 63 d0             	movsxd rdx,eax
  fd:	48 8b 45 e8          	mov    rax,QWORD PTR [rbp-0x18]
 101:	48 01 c2             	add    rdx,rax
 104:	0f b6 45 e4          	movzx  eax,BYTE PTR [rbp-0x1c]
 108:	88 02                	mov    BYTE PTR [rdx],al
 10a:	83 45 fc 01          	add    DWORD PTR [rbp-0x4],0x1
 10e:	8b 45 fc             	mov    eax,DWORD PTR [rbp-0x4]
 111:	48 98                	cdqe
 113:	48 3b 45 d8          	cmp    rax,QWORD PTR [rbp-0x28]
 117:	72 de                	jb     f7 <mem_set+0x1e>
 119:	90                   	nop
 11a:	90                   	nop
 11b:	5d                   	pop    rbp
 11c:	c3                   	ret

socket.o:     file format elf64-x86-64


Disassembly of section .text:

0000000000000000 <listen_tcp>:
   0:	f3 0f 1e fa          	endbr64
   4:	55                   	push   rbp
   5:	48 89 e5             	mov    rbp,rsp
   8:	48 83 ec 50          	sub    rsp,0x50
   c:	48 89 7d b8          	mov    QWORD PTR [rbp-0x48],rdi
  10:	89 75 b4             	mov    DWORD PTR [rbp-0x4c],esi
  13:	89 55 b0             	mov    DWORD PTR [rbp-0x50],edx
  16:	48 83 ec 08          	sub    rsp,0x8
  1a:	6a 29                	push   0x29
  1c:	41 b9 00 00 00 00    	mov    r9d,0x0
  22:	41 b8 00 00 00 00    	mov    r8d,0x0
  28:	b9 00 00 00 00       	mov    ecx,0x0
  2d:	ba 00 00 00 00       	mov    edx,0x0
  32:	be 01 00 00 00       	mov    esi,0x1
  37:	bf 02 00 00 00       	mov    edi,0x2
  3c:	e8 00 00 00 00       	call   41 <listen_tcp+0x41>
  41:	48 83 c4 10          	add    rsp,0x10
  45:	48 89 45 f8          	mov    QWORD PTR [rbp-0x8],rax
  49:	48 83 7d f8 00       	cmp    QWORD PTR [rbp-0x8],0x0
  4e:	79 1e                	jns    6e <listen_tcp+0x6e>
  50:	ba 07 00 00 00       	mov    edx,0x7
  55:	48 8d 05 00 00 00 00 	lea    rax,[rip+0x0]        # 5c <listen_tcp+0x5c>
  5c:	48 89 c6             	mov    rsi,rax
  5f:	48 8d 05 00 00 00 00 	lea    rax,[rip+0x0]        # 66 <listen_tcp+0x66>
  66:	48 89 c7             	mov    rdi,rax
  69:	e8 00 00 00 00       	call   6e <listen_tcp+0x6e>
  6e:	8b 05 00 00 00 00    	mov    eax,DWORD PTR [rip+0x0]        # 74 <listen_tcp+0x74>
  74:	85 c0                	test   eax,eax
  76:	74 29                	je     a1 <listen_tcp+0xa1>
  78:	48 8d 05 00 00 00 00 	lea    rax,[rip+0x0]        # 7f <listen_tcp+0x7f>
  7f:	48 89 c7             	mov    rdi,rax
  82:	e8 00 00 00 00       	call   87 <listen_tcp+0x87>
  87:	48 8b 45 f8          	mov    rax,QWORD PTR [rbp-0x8]
  8b:	89 c7                	mov    edi,eax
  8d:	e8 00 00 00 00       	call   92 <listen_tcp+0x92>
  92:	48 8d 05 00 00 00 00 	lea    rax,[rip+0x0]        # 99 <listen_tcp+0x99>
  99:	48 89 c7             	mov    rdi,rax
  9c:	e8 00 00 00 00       	call   a1 <listen_tcp+0xa1>
  a1:	c7 45 dc 01 00 00 00 	mov    DWORD PTR [rbp-0x24],0x1
  a8:	48 8d 55 dc          	lea    rdx,[rbp-0x24]
  ac:	48 8b 45 f8          	mov    rax,QWORD PTR [rbp-0x8]
  b0:	48 83 ec 08          	sub    rsp,0x8
  b4:	6a 36                	push   0x36
  b6:	41 b9 00 00 00 00    	mov    r9d,0x0
  bc:	41 b8 04 00 00 00    	mov    r8d,0x4
  c2:	48 89 d1             	mov    rcx,rdx
  c5:	ba 02 00 00 00       	mov    edx,0x2
  ca:	be 01 00 00 00       	mov    esi,0x1
  cf:	48 89 c7             	mov    rdi,rax
  d2:	e8 00 00 00 00       	call   d7 <listen_tcp+0xd7>
  d7:	48 83 c4 10          	add    rsp,0x10
  db:	48 89 45 f0          	mov    QWORD PTR [rbp-0x10],rax
  df:	48 83 7d f0 00       	cmp    QWORD PTR [rbp-0x10],0x0
  e4:	79 1e                	jns    104 <listen_tcp+0x104>
  e6:	ba 10 00 00 00       	mov    edx,0x10
  eb:	48 8d 05 00 00 00 00 	lea    rax,[rip+0x0]        # f2 <listen_tcp+0xf2>
  f2:	48 89 c6             	mov    rsi,rax
  f5:	48 8d 05 00 00 00 00 	lea    rax,[rip+0x0]        # fc <listen_tcp+0xfc>
  fc:	48 89 c7             	mov    rdi,rax
  ff:	e8 00 00 00 00       	call   104 <listen_tcp+0x104>
 104:	48 8d 45 c0          	lea    rax,[rbp-0x40]
 108:	ba 10 00 00 00       	mov    edx,0x10
 10d:	be 00 00 00 00       	mov    esi,0x0
 112:	48 89 c7             	mov    rdi,rax
 115:	e8 00 00 00 00       	call   11a <listen_tcp+0x11a>
 11a:	66 c7 45 c0 02 00    	mov    WORD PTR [rbp-0x40],0x2
 120:	8b 45 b4             	mov    eax,DWORD PTR [rbp-0x4c]
 123:	0f b7 c0             	movzx  eax,ax
 126:	89 c7                	mov    edi,eax
 128:	e8 00 00 00 00       	call   12d <listen_tcp+0x12d>
 12d:	66 89 45 c2          	mov    WORD PTR [rbp-0x3e],ax
 131:	c7 45 c4 00 00 00 00 	mov    DWORD PTR [rbp-0x3c],0x0
 138:	48 8d 75 c0          	lea    rsi,[rbp-0x40]
 13c:	48 8b 45 f8          	mov    rax,QWORD PTR [rbp-0x8]
 140:	48 83 ec 08          	sub    rsp,0x8
 144:	6a 31                	push   0x31
 146:	41 b9 00 00 00 00    	mov    r9d,0x0
 14c:	41 b8 00 00 00 00    	mov    r8d,0x0
 152:	b9 00 00 00 00       	mov    ecx,0x0
 157:	ba 10 00 00 00       	mov    edx,0x10
 15c:	48 89 c7             	mov    rdi,rax
 15f:	e8 00 00 00 00       	call   164 <listen_tcp+0x164>
 164:	48 83 c4 10          	add    rsp,0x10
 168:	48 89 45 e8          	mov    QWORD PTR [rbp-0x18],rax
 16c:	48 83 7d e8 00       	cmp    QWORD PTR [rbp-0x18],0x0
 171:	79 1e                	jns    191 <listen_tcp+0x191>
 173:	ba 1b 00 00 00       	mov    edx,0x1b
 178:	48 8d 05 00 00 00 00 	lea    rax,[rip+0x0]        # 17f <listen_tcp+0x17f>
 17f:	48 89 c6             	mov    rsi,rax
 182:	48 8d 05 00 00 00 00 	lea    rax,[rip+0x0]        # 189 <listen_tcp+0x189>
 189:	48 89 c7             	mov    rdi,rax
 18c:	e8 00 00 00 00       	call   191 <listen_tcp+0x191>
 191:	8b 45 b0             	mov    eax,DWORD PTR [rbp-0x50]
 194:	48 63 f0             	movsxd rsi,eax
 197:	48 8b 45 f8          	mov    rax,QWORD PTR [rbp-0x8]
 19b:	48 83 ec 08          	sub    rsp,0x8
 19f:	6a 32                	push   0x32
 1a1:	41 b9 00 00 00 00    	mov    r9d,0x0
 1a7:	41 b8 00 00 00 00    	mov    r8d,0x0
 1ad:	b9 00 00 00 00       	mov    ecx,0x0
 1b2:	ba 00 00 00 00       	mov    edx,0x0
 1b7:	48 89 c7             	mov    rdi,rax
 1ba:	e8 00 00 00 00       	call   1bf <listen_tcp+0x1bf>
 1bf:	48 83 c4 10          	add    rsp,0x10
 1c3:	48 89 45 e8          	mov    QWORD PTR [rbp-0x18],rax
 1c7:	48 83 7d e8 00       	cmp    QWORD PTR [rbp-0x18],0x0
 1cc:	79 1e                	jns    1ec <listen_tcp+0x1ec>
 1ce:	ba 21 00 00 00       	mov    edx,0x21
 1d3:	48 8d 05 00 00 00 00 	lea    rax,[rip+0x0]        # 1da <listen_tcp+0x1da>
 1da:	48 89 c6             	mov    rsi,rax
 1dd:	48 8d 05 00 00 00 00 	lea    rax,[rip+0x0]        # 1e4 <listen_tcp+0x1e4>
 1e4:	48 89 c7             	mov    rdi,rax
 1e7:	e8 00 00 00 00       	call   1ec <listen_tcp+0x1ec>
 1ec:	be 18 00 00 00       	mov    esi,0x18
 1f1:	bf 00 00 00 00       	mov    edi,0x0
 1f6:	e8 00 00 00 00       	call   1fb <listen_tcp+0x1fb>
 1fb:	48 89 45 e0          	mov    QWORD PTR [rbp-0x20],rax
 1ff:	48 8b 45 f8          	mov    rax,QWORD PTR [rbp-0x8]
 203:	89 c2                	mov    edx,eax
 205:	48 8b 45 e0          	mov    rax,QWORD PTR [rbp-0x20]
 209:	89 10                	mov    DWORD PTR [rax],edx
 20b:	48 8b 4d e0          	mov    rcx,QWORD PTR [rbp-0x20]
 20f:	48 8b 45 c0          	mov    rax,QWORD PTR [rbp-0x40]
 213:	48 8b 55 c8          	mov    rdx,QWORD PTR [rbp-0x38]
 217:	48 89 41 04          	mov    QWORD PTR [rcx+0x4],rax
 21b:	48 89 51 0c          	mov    QWORD PTR [rcx+0xc],rdx
 21f:	48 8b 45 e0          	mov    rax,QWORD PTR [rbp-0x20]
 223:	c9                   	leave
 224:	c3                   	ret

0000000000000225 <sock_accept>:
 225:	f3 0f 1e fa          	endbr64
 229:	55                   	push   rbp
 22a:	48 89 e5             	mov    rbp,rsp
 22d:	48 83 ec 20          	sub    rsp,0x20
 231:	48 89 7d e8          	mov    QWORD PTR [rbp-0x18],rdi
 235:	89 75 e4             	mov    DWORD PTR [rbp-0x1c],esi
 238:	48 8b 45 e8          	mov    rax,QWORD PTR [rbp-0x18]
 23c:	8b 00                	mov    eax,DWORD PTR [rax]
 23e:	48 98                	cdqe
 240:	48 83 ec 08          	sub    rsp,0x8
 244:	6a 2b                	push   0x2b
 246:	49 c7 c1 ff ff ff ff 	mov    r9,0xffffffffffffffff
 24d:	49 c7 c0 ff ff ff ff 	mov    r8,0xffffffffffffffff
 254:	48 c7 c1 ff ff ff ff 	mov    rcx,0xffffffffffffffff
 25b:	ba 00 00 00 00       	mov    edx,0x0
 260:	be 00 00 00 00       	mov    esi,0x0
 265:	48 89 c7             	mov    rdi,rax
 268:	e8 00 00 00 00       	call   26d <sock_accept+0x48>
 26d:	48 83 c4 10          	add    rsp,0x10
 271:	48 89 45 f8          	mov    QWORD PTR [rbp-0x8],rax
 275:	48 83 7d f8 00       	cmp    QWORD PTR [rbp-0x8],0x0
 27a:	79 07                	jns    283 <sock_accept+0x5e>
 27c:	b8 00 00 00 00       	mov    eax,0x0
 281:	eb 2d                	jmp    2b0 <sock_accept+0x8b>
 283:	be 18 00 00 00       	mov    esi,0x18
 288:	bf 00 00 00 00       	mov    edi,0x0
 28d:	e8 00 00 00 00       	call   292 <sock_accept+0x6d>
 292:	48 89 45 f0          	mov    QWORD PTR [rbp-0x10],rax
 296:	48 8b 45 f8          	mov    rax,QWORD PTR [rbp-0x8]
 29a:	89 c2                	mov    edx,eax
 29c:	48 8b 45 f0          	mov    rax,QWORD PTR [rbp-0x10]
 2a0:	89 10                	mov    DWORD PTR [rax],edx
 2a2:	48 8b 45 f0          	mov    rax,QWORD PTR [rbp-0x10]
 2a6:	8b 55 e4             	mov    edx,DWORD PTR [rbp-0x1c]
 2a9:	89 50 14             	mov    DWORD PTR [rax+0x14],edx
 2ac:	48 8b 45 f0          	mov    rax,QWORD PTR [rbp-0x10]
 2b0:	c9                   	leave
 2b1:	c3                   	ret

00000000000002b2 <create_socket>:
 2b2:	f3 0f 1e fa          	endbr64
 2b6:	55                   	push   rbp
 2b7:	48 89 e5             	mov    rbp,rsp
 2ba:	48 83 ec 10          	sub    rsp,0x10
 2be:	89 7d fc             	mov    DWORD PTR [rbp-0x4],edi
 2c1:	89 75 f8             	mov    DWORD PTR [rbp-0x8],esi
 2c4:	89 55 f4             	mov    DWORD PTR [rbp-0xc],edx
 2c7:	8b 45 f4             	mov    eax,DWORD PTR [rbp-0xc]
 2ca:	48 63 d0             	movsxd rdx,eax
 2cd:	8b 45 f8             	mov    eax,DWORD PTR [rbp-0x8]
 2d0:	48 63 f0             	movsxd rsi,eax
 2d3:	8b 45 fc             	mov    eax,DWORD PTR [rbp-0x4]
 2d6:	48 98                	cdqe
 2d8:	48 83 ec 08          	sub    rsp,0x8
 2dc:	6a 29                	push   0x29
 2de:	41 b9 00 00 00 00    	mov    r9d,0x0
 2e4:	41 b8 00 00 00 00    	mov    r8d,0x0
 2ea:	b9 00 00 00 00       	mov    ecx,0x0
 2ef:	48 89 c7             	mov    rdi,rax
 2f2:	e8 00 00 00 00       	call   2f7 <create_socket+0x45>
 2f7:	48 83 c4 10          	add    rsp,0x10
 2fb:	c9                   	leave
 2fc:	c3                   	ret

00000000000002fd <sock_write>:
 2fd:	f3 0f 1e fa          	endbr64
 301:	55                   	push   rbp
 302:	48 89 e5             	mov    rbp,rsp
 305:	48 83 ec 10          	sub    rsp,0x10
 309:	48 89 7d f8          	mov    QWORD PTR [rbp-0x8],rdi
 30d:	48 89 75 f0          	mov    QWORD PTR [rbp-0x10],rsi
 311:	48 8b 45 f0          	mov    rax,QWORD PTR [rbp-0x10]
 315:	48 89 c7             	mov    rdi,rax
 318:	e8 00 00 00 00       	call   31d <sock_write+0x20>
 31d:	48 63 d0             	movsxd rdx,eax
 320:	48 8b 75 f0          	mov    rsi,QWORD PTR [rbp-0x10]
 324:	48 8b 45 f8          	mov    rax,QWORD PTR [rbp-0x8]
 328:	8b 00                	mov    eax,DWORD PTR [rax]
 32a:	48 98                	cdqe
 32c:	48 83 ec 08          	sub    rsp,0x8
 330:	6a 01                	push   0x1
 332:	49 c7 c1 ff ff ff ff 	mov    r9,0xffffffffffffffff
 339:	49 c7 c0 ff ff ff ff 	mov    r8,0xffffffffffffffff
 340:	48 c7 c1 ff ff ff ff 	mov    rcx,0xffffffffffffffff
 347:	48 89 c7             	mov    rdi,rax
 34a:	e8 00 00 00 00       	call   34f <sock_write+0x52>
 34f:	48 83 c4 10          	add    rsp,0x10
 353:	c9                   	leave
 354:	c3                   	ret

0000000000000355 <sock_read>:
 355:	f3 0f 1e fa          	endbr64
 359:	55                   	push   rbp
 35a:	48 89 e5             	mov    rbp,rsp
 35d:	53                   	push   rbx
 35e:	48 83 ec 38          	sub    rsp,0x38
 362:	48 89 7d c8          	mov    QWORD PTR [rbp-0x38],rdi
 366:	48 89 e0             	mov    rax,rsp
 369:	48 89 c3             	mov    rbx,rax
 36c:	48 8b 45 c8          	mov    rax,QWORD PTR [rbp-0x38]
 370:	8b 40 14             	mov    eax,DWORD PTR [rax+0x14]
 373:	48 63 d0             	movsxd rdx,eax
 376:	48 83 ea 01          	sub    rdx,0x1
 37a:	48 89 55 e8          	mov    QWORD PTR [rbp-0x18],rdx
 37e:	48 98                	cdqe
 380:	ba 10 00 00 00       	mov    edx,0x10
 385:	48 83 ea 01          	sub    rdx,0x1
 389:	48 01 d0             	add    rax,rdx
 38c:	bf 10 00 00 00       	mov    edi,0x10
 391:	ba 00 00 00 00       	mov    edx,0x0
 396:	48 f7 f7             	div    rdi
 399:	48 6b c0 10          	imul   rax,rax,0x10
 39d:	48 89 c1             	mov    rcx,rax
 3a0:	48 81 e1 00 f0 ff ff 	and    rcx,0xfffffffffffff000
 3a7:	48 89 e2             	mov    rdx,rsp
 3aa:	48 29 ca             	sub    rdx,rcx
 3ad:	48 39 d4             	cmp    rsp,rdx
 3b0:	74 12                	je     3c4 <sock_read+0x6f>
 3b2:	48 81 ec 00 10 00 00 	sub    rsp,0x1000
 3b9:	48 83 8c 24 f8 0f 00 	or     QWORD PTR [rsp+0xff8],0x0
 3c0:	00 00 
 3c2:	eb e9                	jmp    3ad <sock_read+0x58>
 3c4:	48 89 c2             	mov    rdx,rax
 3c7:	81 e2 ff 0f 00 00    	and    edx,0xfff
 3cd:	48 29 d4             	sub    rsp,rdx
 3d0:	48 89 c2             	mov    rdx,rax
 3d3:	81 e2 ff 0f 00 00    	and    edx,0xfff
 3d9:	48 85 d2             	test   rdx,rdx
 3dc:	74 10                	je     3ee <sock_read+0x99>
 3de:	25 ff 0f 00 00       	and    eax,0xfff
 3e3:	48 83 e8 08          	sub    rax,0x8
 3e7:	48 01 e0             	add    rax,rsp
 3ea:	48 83 08 00          	or     QWORD PTR [rax],0x0
 3ee:	48 89 e0             	mov    rax,rsp
 3f1:	48 83 c0 00          	add    rax,0x0
 3f5:	48 89 45 e0          	mov    QWORD PTR [rbp-0x20],rax
 3f9:	48 8b 45 c8          	mov    rax,QWORD PTR [rbp-0x38]
 3fd:	8b 40 14             	mov    eax,DWORD PTR [rax+0x14]
 400:	48 63 d0             	movsxd rdx,eax
 403:	48 8b 75 e0          	mov    rsi,QWORD PTR [rbp-0x20]
 407:	48 8b 45 c8          	mov    rax,QWORD PTR [rbp-0x38]
 40b:	8b 00                	mov    eax,DWORD PTR [rax]
 40d:	48 98                	cdqe
 40f:	48 83 ec 08          	sub    rsp,0x8
 413:	6a 00                	push   0x0
 415:	41 b9 00 00 00 00    	mov    r9d,0x0
 41b:	41 b8 00 00 00 00    	mov    r8d,0x0
 421:	b9 00 00 00 00       	mov    ecx,0x0
 426:	48 89 c7             	mov    rdi,rax
 429:	e8 00 00 00 00       	call   42e <sock_read+0xd9>
 42e:	48 83 c4 10          	add    rsp,0x10
 432:	48 89 45 d8          	mov    QWORD PTR [rbp-0x28],rax
 436:	48 83 7d d8 00       	cmp    QWORD PTR [rbp-0x28],0x0
 43b:	7e 48                	jle    485 <sock_read+0x130>
 43d:	48 8b 45 d8          	mov    rax,QWORD PTR [rbp-0x28]
 441:	83 c0 01             	add    eax,0x1
 444:	89 c6                	mov    esi,eax
 446:	bf 00 00 00 00       	mov    edi,0x0
 44b:	e8 00 00 00 00       	call   450 <sock_read+0xfb>
 450:	48 89 45 d0          	mov    QWORD PTR [rbp-0x30],rax
 454:	48 8b 45 c8          	mov    rax,QWORD PTR [rbp-0x38]
 458:	8b 40 14             	mov    eax,DWORD PTR [rax+0x14]
 45b:	48 63 d0             	movsxd rdx,eax
 45e:	48 8b 4d e0          	mov    rcx,QWORD PTR [rbp-0x20]
 462:	48 8b 45 d0          	mov    rax,QWORD PTR [rbp-0x30]
 466:	48 89 ce             	mov    rsi,rcx
 469:	48 89 c7             	mov    rdi,rax
 46c:	e8 00 00 00 00       	call   471 <sock_read+0x11c>
 471:	48 8b 55 d8          	mov    rdx,QWORD PTR [rbp-0x28]
 475:	48 8b 45 d0          	mov    rax,QWORD PTR [rbp-0x30]
 479:	48 01 d0             	add    rax,rdx
 47c:	c6 00 00             	mov    BYTE PTR [rax],0x0
 47f:	48 8b 45 d0          	mov    rax,QWORD PTR [rbp-0x30]
 483:	eb 05                	jmp    48a <sock_read+0x135>
 485:	b8 00 00 00 00       	mov    eax,0x0
 48a:	48 89 dc             	mov    rsp,rbx
 48d:	48 8b 5d f8          	mov    rbx,QWORD PTR [rbp-0x8]
 491:	c9                   	leave
 492:	c3                   	ret

0000000000000493 <sock_close>:
 493:	f3 0f 1e fa          	endbr64
 497:	55                   	push   rbp
 498:	48 89 e5             	mov    rbp,rsp
 49b:	48 83 ec 10          	sub    rsp,0x10
 49f:	48 89 7d f8          	mov    QWORD PTR [rbp-0x8],rdi
 4a3:	48 8b 45 f8          	mov    rax,QWORD PTR [rbp-0x8]
 4a7:	8b 00                	mov    eax,DWORD PTR [rax]
 4a9:	48 98                	cdqe
 4ab:	48 83 ec 08          	sub    rsp,0x8
 4af:	6a 03                	push   0x3
 4b1:	49 c7 c1 ff ff ff ff 	mov    r9,0xffffffffffffffff
 4b8:	49 c7 c0 ff ff ff ff 	mov    r8,0xffffffffffffffff
 4bf:	48 c7 c1 ff ff ff ff 	mov    rcx,0xffffffffffffffff
 4c6:	48 c7 c2 ff ff ff ff 	mov    rdx,0xffffffffffffffff
 4cd:	48 c7 c6 ff ff ff ff 	mov    rsi,0xffffffffffffffff
 4d4:	48 89 c7             	mov    rdi,rax
 4d7:	e8 00 00 00 00       	call   4dc <sock_close+0x49>
 4dc:	48 83 c4 10          	add    rsp,0x10
 4e0:	48 8b 45 f8          	mov    rax,QWORD PTR [rbp-0x8]
 4e4:	be 01 00 00 00       	mov    esi,0x1
 4e9:	48 89 c7             	mov    rdi,rax
 4ec:	e8 00 00 00 00       	call   4f1 <sock_close+0x5e>
 4f1:	90                   	nop
 4f2:	c9                   	leave
 4f3:	c3                   	ret

00000000000004f4 <parse_ipv4>:
 4f4:	f3 0f 1e fa          	endbr64
 4f8:	55                   	push   rbp
 4f9:	48 89 e5             	mov    rbp,rsp
 4fc:	48 89 7d e8          	mov    QWORD PTR [rbp-0x18],rdi
 500:	48 89 75 e0          	mov    QWORD PTR [rbp-0x20],rsi
 504:	c7 45 fc 00 00 00 00 	mov    DWORD PTR [rbp-0x4],0x0
 50b:	c7 45 f8 00 00 00 00 	mov    DWORD PTR [rbp-0x8],0x0
 512:	c7 45 f4 18 00 00 00 	mov    DWORD PTR [rbp-0xc],0x18
 519:	c7 45 f0 00 00 00 00 	mov    DWORD PTR [rbp-0x10],0x0
 520:	48 83 7d e8 00       	cmp    QWORD PTR [rbp-0x18],0x0
 525:	74 0b                	je     532 <parse_ipv4+0x3e>
 527:	48 83 7d e0 00       	cmp    QWORD PTR [rbp-0x20],0x0
 52c:	0f 85 9a 00 00 00    	jne    5cc <parse_ipv4+0xd8>
 532:	b8 00 00 00 00       	mov    eax,0x0
 537:	e9 c0 00 00 00       	jmp    5fc <parse_ipv4+0x108>
 53c:	48 8b 45 e8          	mov    rax,QWORD PTR [rbp-0x18]
 540:	0f b6 00             	movzx  eax,BYTE PTR [rax]
 543:	3c 2f                	cmp    al,0x2f
 545:	7e 3b                	jle    582 <parse_ipv4+0x8e>
 547:	48 8b 45 e8          	mov    rax,QWORD PTR [rbp-0x18]
 54b:	0f b6 00             	movzx  eax,BYTE PTR [rax]
 54e:	3c 39                	cmp    al,0x39
 550:	7f 30                	jg     582 <parse_ipv4+0x8e>
 552:	8b 55 f8             	mov    edx,DWORD PTR [rbp-0x8]
 555:	89 d0                	mov    eax,edx
 557:	c1 e0 02             	shl    eax,0x2
 55a:	01 d0                	add    eax,edx
 55c:	01 c0                	add    eax,eax
 55e:	89 c2                	mov    edx,eax
 560:	48 8b 45 e8          	mov    rax,QWORD PTR [rbp-0x18]
 564:	0f b6 00             	movzx  eax,BYTE PTR [rax]
 567:	0f be c0             	movsx  eax,al
 56a:	83 e8 30             	sub    eax,0x30
 56d:	01 d0                	add    eax,edx
 56f:	89 45 f8             	mov    DWORD PTR [rbp-0x8],eax
 572:	81 7d f8 ff 00 00 00 	cmp    DWORD PTR [rbp-0x8],0xff
 579:	7e 4c                	jle    5c7 <parse_ipv4+0xd3>
 57b:	b8 00 00 00 00       	mov    eax,0x0
 580:	eb 7a                	jmp    5fc <parse_ipv4+0x108>
 582:	48 8b 45 e8          	mov    rax,QWORD PTR [rbp-0x18]
 586:	0f b6 00             	movzx  eax,BYTE PTR [rax]
 589:	3c 2e                	cmp    al,0x2e
 58b:	75 33                	jne    5c0 <parse_ipv4+0xcc>
 58d:	83 7d f0 02          	cmp    DWORD PTR [rbp-0x10],0x2
 591:	7f 06                	jg     599 <parse_ipv4+0xa5>
 593:	83 7d f4 00          	cmp    DWORD PTR [rbp-0xc],0x0
 597:	79 07                	jns    5a0 <parse_ipv4+0xac>
 599:	b8 00 00 00 00       	mov    eax,0x0
 59e:	eb 5c                	jmp    5fc <parse_ipv4+0x108>
 5a0:	8b 45 f4             	mov    eax,DWORD PTR [rbp-0xc]
 5a3:	8b 55 f8             	mov    edx,DWORD PTR [rbp-0x8]
 5a6:	89 c1                	mov    ecx,eax
 5a8:	d3 e2                	shl    edx,cl
 5aa:	89 d0                	mov    eax,edx
 5ac:	09 45 fc             	or     DWORD PTR [rbp-0x4],eax
 5af:	83 6d f4 08          	sub    DWORD PTR [rbp-0xc],0x8
 5b3:	c7 45 f8 00 00 00 00 	mov    DWORD PTR [rbp-0x8],0x0
 5ba:	83 45 f0 01          	add    DWORD PTR [rbp-0x10],0x1
 5be:	eb 07                	jmp    5c7 <parse_ipv4+0xd3>
 5c0:	b8 00 00 00 00       	mov    eax,0x0
 5c5:	eb 35                	jmp    5fc <parse_ipv4+0x108>
 5c7:	48 83 45 e8 01       	add    QWORD PTR [rbp-0x18],0x1
 5cc:	48 8b 45 e8          	mov    rax,QWORD PTR [rbp-0x18]
 5d0:	0f b6 00             	movzx  eax,BYTE PTR [rax]
 5d3:	84 c0                	test   al,al
 5d5:	0f 85 61 ff ff ff    	jne    53c <parse_ipv4+0x48>
 5db:	83 7d f0 03          	cmp    DWORD PTR [rbp-0x10],0x3
 5df:	74 07                	je     5e8 <parse_ipv4+0xf4>
 5e1:	b8 00 00 00 00       	mov    eax,0x0
 5e6:	eb 14                	jmp    5fc <parse_ipv4+0x108>
 5e8:	8b 45 f8             	mov    eax,DWORD PTR [rbp-0x8]
 5eb:	09 45 fc             	or     DWORD PTR [rbp-0x4],eax
 5ee:	48 8b 45 e0          	mov    rax,QWORD PTR [rbp-0x20]
 5f2:	8b 55 fc             	mov    edx,DWORD PTR [rbp-0x4]
 5f5:	89 10                	mov    DWORD PTR [rax],edx
 5f7:	b8 01 00 00 00       	mov    eax,0x1
 5fc:	5d                   	pop    rbp
 5fd:	c3                   	ret

00000000000005fe <convert_ip>:
 5fe:	f3 0f 1e fa          	endbr64
 602:	55                   	push   rbp
 603:	48 89 e5             	mov    rbp,rsp
 606:	48 83 ec 40          	sub    rsp,0x40
 60a:	89 7d cc             	mov    DWORD PTR [rbp-0x34],edi
 60d:	8b 45 cc             	mov    eax,DWORD PTR [rbp-0x34]
 610:	c1 e8 18             	shr    eax,0x18
 613:	88 45 ff             	mov    BYTE PTR [rbp-0x1],al
 616:	8b 45 cc             	mov    eax,DWORD PTR [rbp-0x34]
 619:	c1 e8 10             	shr    eax,0x10
 61c:	88 45 fe             	mov    BYTE PTR [rbp-0x2],al
 61f:	8b 45 cc             	mov    eax,DWORD PTR [rbp-0x34]
 622:	c1 e8 08             	shr    eax,0x8
 625:	88 45 fd             	mov    BYTE PTR [rbp-0x3],al
 628:	8b 45 cc             	mov    eax,DWORD PTR [rbp-0x34]
 62b:	88 45 fc             	mov    BYTE PTR [rbp-0x4],al
 62e:	48 8d 45 ff          	lea    rax,[rbp-0x1]
 632:	48 89 45 d0          	mov    QWORD PTR [rbp-0x30],rax
 636:	48 8d 45 fe          	lea    rax,[rbp-0x2]
 63a:	48 89 45 d8          	mov    QWORD PTR [rbp-0x28],rax
 63e:	48 8d 45 fd          	lea    rax,[rbp-0x3]
 642:	48 89 45 e0          	mov    QWORD PTR [rbp-0x20],rax
 646:	48 8d 45 fc          	lea    rax,[rbp-0x4]
 64a:	48 89 45 e8          	mov    QWORD PTR [rbp-0x18],rax
 64e:	48 c7 45 f0 00 00 00 	mov    QWORD PTR [rbp-0x10],0x0
 655:	00 
 656:	48 8d 45 d0          	lea    rax,[rbp-0x30]
 65a:	48 89 c2             	mov    rdx,rax
 65d:	48 8d 05 00 00 00 00 	lea    rax,[rip+0x0]        # 664 <convert_ip+0x66>
 664:	48 89 c6             	mov    rsi,rax
 667:	48 8d 05 00 00 00 00 	lea    rax,[rip+0x0]        # 66e <convert_ip+0x70>
 66e:	48 89 c7             	mov    rdi,rax
 671:	e8 00 00 00 00       	call   676 <convert_ip+0x78>
 676:	48 8d 05 00 00 00 00 	lea    rax,[rip+0x0]        # 67d <convert_ip+0x7f>
 67d:	c9                   	leave
 67e:	c3                   	ret

000000000000067f <_htons>:
 67f:	f3 0f 1e fa          	endbr64
 683:	55                   	push   rbp
 684:	48 89 e5             	mov    rbp,rsp
 687:	89 f8                	mov    eax,edi
 689:	66 89 45 fc          	mov    WORD PTR [rbp-0x4],ax
 68d:	0f b7 45 fc          	movzx  eax,WORD PTR [rbp-0x4]
 691:	c1 e0 08             	shl    eax,0x8
 694:	89 c2                	mov    edx,eax
 696:	0f b7 45 fc          	movzx  eax,WORD PTR [rbp-0x4]
 69a:	66 c1 e8 08          	shr    ax,0x8
 69e:	09 d0                	or     eax,edx
 6a0:	5d                   	pop    rbp
 6a1:	c3                   	ret

00000000000006a2 <_htonl>:
 6a2:	f3 0f 1e fa          	endbr64
 6a6:	55                   	push   rbp
 6a7:	48 89 e5             	mov    rbp,rsp
 6aa:	89 7d fc             	mov    DWORD PTR [rbp-0x4],edi
 6ad:	8b 45 fc             	mov    eax,DWORD PTR [rbp-0x4]
 6b0:	c1 e0 18             	shl    eax,0x18
 6b3:	89 c2                	mov    edx,eax
 6b5:	8b 45 fc             	mov    eax,DWORD PTR [rbp-0x4]
 6b8:	c1 e0 08             	shl    eax,0x8
 6bb:	25 00 00 ff 00       	and    eax,0xff0000
 6c0:	09 c2                	or     edx,eax
 6c2:	8b 45 fc             	mov    eax,DWORD PTR [rbp-0x4]
 6c5:	c1 e8 08             	shr    eax,0x8
 6c8:	25 00 ff 00 00       	and    eax,0xff00
 6cd:	09 c2                	or     edx,eax
 6cf:	8b 45 fc             	mov    eax,DWORD PTR [rbp-0x4]
 6d2:	c1 e8 18             	shr    eax,0x18
 6d5:	09 d0                	or     eax,edx
 6d7:	5d                   	pop    rbp
 6d8:	c3                   	ret

start_up.o:     file format elf64-x86-64


Disassembly of section .text:

0000000000000000 <_mem_cpy>:
   0:	f3 0f 1e fa          	endbr64
   4:	55                   	push   rbp
   5:	48 89 e5             	mov    rbp,rsp
   8:	48 89 7d e8          	mov    QWORD PTR [rbp-0x18],rdi
   c:	48 89 75 e0          	mov    QWORD PTR [rbp-0x20],rsi
  10:	89 55 dc             	mov    DWORD PTR [rbp-0x24],edx
  13:	c7 45 fc 00 00 00 00 	mov    DWORD PTR [rbp-0x4],0x0
  1a:	eb 23                	jmp    3f <_mem_cpy+0x3f>
  1c:	8b 45 fc             	mov    eax,DWORD PTR [rbp-0x4]
  1f:	48 63 d0             	movsxd rdx,eax
  22:	48 8b 45 e0          	mov    rax,QWORD PTR [rbp-0x20]
  26:	48 01 d0             	add    rax,rdx
  29:	8b 55 fc             	mov    edx,DWORD PTR [rbp-0x4]
  2c:	48 63 ca             	movsxd rcx,edx
  2f:	48 8b 55 e8          	mov    rdx,QWORD PTR [rbp-0x18]
  33:	48 01 ca             	add    rdx,rcx
  36:	0f b6 00             	movzx  eax,BYTE PTR [rax]
  39:	88 02                	mov    BYTE PTR [rdx],al
  3b:	83 45 fc 01          	add    DWORD PTR [rbp-0x4],0x1
  3f:	8b 45 fc             	mov    eax,DWORD PTR [rbp-0x4]
  42:	3b 45 dc             	cmp    eax,DWORD PTR [rbp-0x24]
  45:	7c d5                	jl     1c <_mem_cpy+0x1c>
  47:	90                   	nop
  48:	90                   	nop
  49:	5d                   	pop    rbp
  4a:	c3                   	ret

000000000000004b <_str_len>:
  4b:	f3 0f 1e fa          	endbr64
  4f:	55                   	push   rbp
  50:	48 89 e5             	mov    rbp,rsp
  53:	48 89 7d e8          	mov    QWORD PTR [rbp-0x18],rdi
  57:	c7 45 fc 00 00 00 00 	mov    DWORD PTR [rbp-0x4],0x0
  5e:	c7 45 f8 00 00 00 00 	mov    DWORD PTR [rbp-0x8],0x0
  65:	eb 08                	jmp    6f <_str_len+0x24>
  67:	83 45 fc 01          	add    DWORD PTR [rbp-0x4],0x1
  6b:	83 45 f8 01          	add    DWORD PTR [rbp-0x8],0x1
  6f:	8b 45 f8             	mov    eax,DWORD PTR [rbp-0x8]
  72:	48 63 d0             	movsxd rdx,eax
  75:	48 8b 45 e8          	mov    rax,QWORD PTR [rbp-0x18]
  79:	48 01 d0             	add    rax,rdx
  7c:	0f b6 00             	movzx  eax,BYTE PTR [rax]
  7f:	84 c0                	test   al,al
  81:	75 e4                	jne    67 <_str_len+0x1c>
  83:	8b 45 fc             	mov    eax,DWORD PTR [rbp-0x4]
  86:	5d                   	pop    rbp
  87:	c3                   	ret

0000000000000088 <get_cmd_info>:
  88:	f3 0f 1e fa          	endbr64
  8c:	55                   	push   rbp
  8d:	48 89 e5             	mov    rbp,rsp
  90:	48 81 ec 20 04 00 00 	sub    rsp,0x420
  97:	48 89 bd e8 fb ff ff 	mov    QWORD PTR [rbp-0x418],rdi
  9e:	48 8d 05 00 00 00 00 	lea    rax,[rip+0x0]        # a5 <get_cmd_info+0x1d>
  a5:	48 83 ec 08          	sub    rsp,0x8
  a9:	6a 02                	push   0x2
  ab:	49 c7 c1 ff ff ff ff 	mov    r9,0xffffffffffffffff
  b2:	49 c7 c0 ff ff ff ff 	mov    r8,0xffffffffffffffff
  b9:	48 c7 c1 ff ff ff ff 	mov    rcx,0xffffffffffffffff
  c0:	ba 00 00 00 00       	mov    edx,0x0
  c5:	be 00 00 00 00       	mov    esi,0x0
  ca:	48 89 c7             	mov    rdi,rax
  cd:	e8 00 00 00 00       	call   d2 <get_cmd_info+0x4a>
  d2:	48 83 c4 10          	add    rsp,0x10
  d6:	48 89 45 f8          	mov    QWORD PTR [rbp-0x8],rax
  da:	48 83 7d f8 00       	cmp    QWORD PTR [rbp-0x8],0x0
  df:	7f 0a                	jg     eb <get_cmd_info+0x63>
  e1:	b8 ff ff ff ff       	mov    eax,0xffffffff
  e6:	e9 aa 00 00 00       	jmp    195 <get_cmd_info+0x10d>
  eb:	48 8d 95 f0 fb ff ff 	lea    rdx,[rbp-0x410]
  f2:	b8 00 00 00 00       	mov    eax,0x0
  f7:	b9 80 00 00 00       	mov    ecx,0x80
  fc:	48 89 d7             	mov    rdi,rdx
  ff:	f3 48 ab             	rep stos QWORD PTR es:[rdi],rax
 102:	48 8d b5 f0 fb ff ff 	lea    rsi,[rbp-0x410]
 109:	48 8b 45 f8          	mov    rax,QWORD PTR [rbp-0x8]
 10d:	48 83 ec 08          	sub    rsp,0x8
 111:	6a 00                	push   0x0
 113:	49 c7 c1 ff ff ff ff 	mov    r9,0xffffffffffffffff
 11a:	49 c7 c0 ff ff ff ff 	mov    r8,0xffffffffffffffff
 121:	48 c7 c1 ff ff ff ff 	mov    rcx,0xffffffffffffffff
 128:	ba ff 00 00 00       	mov    edx,0xff
 12d:	48 89 c7             	mov    rdi,rax
 130:	e8 00 00 00 00       	call   135 <get_cmd_info+0xad>
 135:	48 83 c4 10          	add    rsp,0x10
 139:	48 89 45 f0          	mov    QWORD PTR [rbp-0x10],rax
 13d:	48 8b 45 f0          	mov    rax,QWORD PTR [rbp-0x10]
 141:	89 c2                	mov    edx,eax
 143:	48 8d 8d f0 fb ff ff 	lea    rcx,[rbp-0x410]
 14a:	48 8b 85 e8 fb ff ff 	mov    rax,QWORD PTR [rbp-0x418]
 151:	48 89 ce             	mov    rsi,rcx
 154:	48 89 c7             	mov    rdi,rax
 157:	e8 a4 fe ff ff       	call   0 <_mem_cpy>
 15c:	48 8b 45 f8          	mov    rax,QWORD PTR [rbp-0x8]
 160:	48 83 ec 08          	sub    rsp,0x8
 164:	6a 03                	push   0x3
 166:	49 c7 c1 ff ff ff ff 	mov    r9,0xffffffffffffffff
 16d:	49 c7 c0 ff ff ff ff 	mov    r8,0xffffffffffffffff
 174:	48 c7 c1 ff ff ff ff 	mov    rcx,0xffffffffffffffff
 17b:	ba 00 00 00 00       	mov    edx,0x0
 180:	be 00 00 00 00       	mov    esi,0x0
 185:	48 89 c7             	mov    rdi,rax
 188:	e8 00 00 00 00       	call   18d <get_cmd_info+0x105>
 18d:	48 83 c4 10          	add    rsp,0x10
 191:	48 8b 45 f0          	mov    rax,QWORD PTR [rbp-0x10]
 195:	c9                   	leave
 196:	c3                   	ret

0000000000000197 <_count_char>:
 197:	f3 0f 1e fa          	endbr64
 19b:	55                   	push   rbp
 19c:	48 89 e5             	mov    rbp,rsp
 19f:	48 89 7d e8          	mov    QWORD PTR [rbp-0x18],rdi
 1a3:	89 f0                	mov    eax,esi
 1a5:	89 55 e0             	mov    DWORD PTR [rbp-0x20],edx
 1a8:	88 45 e4             	mov    BYTE PTR [rbp-0x1c],al
 1ab:	c7 45 fc 00 00 00 00 	mov    DWORD PTR [rbp-0x4],0x0
 1b2:	c7 45 f8 00 00 00 00 	mov    DWORD PTR [rbp-0x8],0x0
 1b9:	eb 1d                	jmp    1d8 <_count_char+0x41>
 1bb:	8b 45 f8             	mov    eax,DWORD PTR [rbp-0x8]
 1be:	48 63 d0             	movsxd rdx,eax
 1c1:	48 8b 45 e8          	mov    rax,QWORD PTR [rbp-0x18]
 1c5:	48 01 d0             	add    rax,rdx
 1c8:	0f b6 00             	movzx  eax,BYTE PTR [rax]
 1cb:	38 45 e4             	cmp    BYTE PTR [rbp-0x1c],al
 1ce:	75 04                	jne    1d4 <_count_char+0x3d>
 1d0:	83 45 fc 01          	add    DWORD PTR [rbp-0x4],0x1
 1d4:	83 45 f8 01          	add    DWORD PTR [rbp-0x8],0x1
 1d8:	8b 45 f8             	mov    eax,DWORD PTR [rbp-0x8]
 1db:	3b 45 e0             	cmp    eax,DWORD PTR [rbp-0x20]
 1de:	7c db                	jl     1bb <_count_char+0x24>
 1e0:	8b 45 fc             	mov    eax,DWORD PTR [rbp-0x4]
 1e3:	5d                   	pop    rbp
 1e4:	c3                   	ret

00000000000001e5 <_find_char>:
 1e5:	f3 0f 1e fa          	endbr64
 1e9:	55                   	push   rbp
 1ea:	48 89 e5             	mov    rbp,rsp
 1ed:	48 89 7d e8          	mov    QWORD PTR [rbp-0x18],rdi
 1f1:	89 f0                	mov    eax,esi
 1f3:	89 55 e0             	mov    DWORD PTR [rbp-0x20],edx
 1f6:	89 4d dc             	mov    DWORD PTR [rbp-0x24],ecx
 1f9:	88 45 e4             	mov    BYTE PTR [rbp-0x1c],al
 1fc:	c7 45 fc 00 00 00 00 	mov    DWORD PTR [rbp-0x4],0x0
 203:	c7 45 f8 00 00 00 00 	mov    DWORD PTR [rbp-0x8],0x0
 20a:	eb 2a                	jmp    236 <_find_char+0x51>
 20c:	8b 45 f8             	mov    eax,DWORD PTR [rbp-0x8]
 20f:	48 63 d0             	movsxd rdx,eax
 212:	48 8b 45 e8          	mov    rax,QWORD PTR [rbp-0x18]
 216:	48 01 d0             	add    rax,rdx
 219:	0f b6 00             	movzx  eax,BYTE PTR [rax]
 21c:	38 45 e4             	cmp    BYTE PTR [rbp-0x1c],al
 21f:	75 04                	jne    225 <_find_char+0x40>
 221:	83 45 fc 01          	add    DWORD PTR [rbp-0x4],0x1
 225:	8b 45 fc             	mov    eax,DWORD PTR [rbp-0x4]
 228:	3b 45 dc             	cmp    eax,DWORD PTR [rbp-0x24]
 22b:	75 05                	jne    232 <_find_char+0x4d>
 22d:	8b 45 f8             	mov    eax,DWORD PTR [rbp-0x8]
 230:	eb 11                	jmp    243 <_find_char+0x5e>
 232:	83 45 f8 01          	add    DWORD PTR [rbp-0x8],0x1
 236:	8b 45 f8             	mov    eax,DWORD PTR [rbp-0x8]
 239:	3b 45 e0             	cmp    eax,DWORD PTR [rbp-0x20]
 23c:	7c ce                	jl     20c <_find_char+0x27>
 23e:	b8 ff ff ff ff       	mov    eax,0xffffffff
 243:	5d                   	pop    rbp
 244:	c3                   	ret

0000000000000245 <get_pid>:
 245:	f3 0f 1e fa          	endbr64
 249:	55                   	push   rbp
 24a:	48 89 e5             	mov    rbp,rsp
 24d:	48 83 ec 08          	sub    rsp,0x8
 251:	6a 27                	push   0x27
 253:	49 c7 c1 ff ff ff ff 	mov    r9,0xffffffffffffffff
 25a:	49 c7 c0 ff ff ff ff 	mov    r8,0xffffffffffffffff
 261:	48 c7 c1 ff ff ff ff 	mov    rcx,0xffffffffffffffff
 268:	ba 00 00 00 00       	mov    edx,0x0
 26d:	be 00 00 00 00       	mov    esi,0x0
 272:	bf 00 00 00 00       	mov    edi,0x0
 277:	e8 00 00 00 00       	call   27c <get_pid+0x37>
 27c:	48 83 c4 10          	add    rsp,0x10
 280:	c9                   	leave
 281:	c3                   	ret

0000000000000282 <get_args>:
 282:	f3 0f 1e fa          	endbr64
 286:	55                   	push   rbp
 287:	48 89 e5             	mov    rbp,rsp
 28a:	48 81 ec 40 04 00 00 	sub    rsp,0x440
 291:	48 89 bd c8 fb ff ff 	mov    QWORD PTR [rbp-0x438],rdi
 298:	c7 45 fc 00 00 00 00 	mov    DWORD PTR [rbp-0x4],0x0
 29f:	48 8d 95 d0 fb ff ff 	lea    rdx,[rbp-0x430]
 2a6:	b8 00 00 00 00       	mov    eax,0x0
 2ab:	b9 80 00 00 00       	mov    ecx,0x80
 2b0:	48 89 d7             	mov    rdi,rdx
 2b3:	f3 48 ab             	rep stos QWORD PTR es:[rdi],rax
 2b6:	48 8d 85 d0 fb ff ff 	lea    rax,[rbp-0x430]
 2bd:	48 89 c7             	mov    rdi,rax
 2c0:	e8 c3 fd ff ff       	call   88 <get_cmd_info>
 2c5:	89 45 f0             	mov    DWORD PTR [rbp-0x10],eax
 2c8:	48 8d 85 d0 fb ff ff 	lea    rax,[rbp-0x430]
 2cf:	48 89 45 e8          	mov    QWORD PTR [rbp-0x18],rax
 2d3:	8b 55 f0             	mov    edx,DWORD PTR [rbp-0x10]
 2d6:	48 8d 85 d0 fb ff ff 	lea    rax,[rbp-0x430]
 2dd:	be 00 00 00 00       	mov    esi,0x0
 2e2:	48 89 c7             	mov    rdi,rax
 2e5:	e8 ad fe ff ff       	call   197 <_count_char>
 2ea:	89 45 e4             	mov    DWORD PTR [rbp-0x1c],eax
 2ed:	c7 45 f8 00 00 00 00 	mov    DWORD PTR [rbp-0x8],0x0
 2f4:	c7 45 f4 00 00 00 00 	mov    DWORD PTR [rbp-0xc],0x0
 2fb:	c7 45 e0 00 00 00 00 	mov    DWORD PTR [rbp-0x20],0x0
 302:	eb 59                	jmp    35d <get_args+0xdb>
 304:	8b 45 f4             	mov    eax,DWORD PTR [rbp-0xc]
 307:	8d 50 01             	lea    edx,[rax+0x1]
 30a:	89 55 f4             	mov    DWORD PTR [rbp-0xc],edx
 30d:	8b 55 f0             	mov    edx,DWORD PTR [rbp-0x10]
 310:	48 8b 7d e8          	mov    rdi,QWORD PTR [rbp-0x18]
 314:	89 c1                	mov    ecx,eax
 316:	be 00 00 00 00       	mov    esi,0x0
 31b:	e8 c5 fe ff ff       	call   1e5 <_find_char>
 320:	89 45 dc             	mov    DWORD PTR [rbp-0x24],eax
 323:	83 7d dc ff          	cmp    DWORD PTR [rbp-0x24],0xffffffff
 327:	74 3e                	je     367 <get_args+0xe5>
 329:	8b 45 dc             	mov    eax,DWORD PTR [rbp-0x24]
 32c:	48 98                	cdqe
 32e:	48 8d 48 01          	lea    rcx,[rax+0x1]
 332:	8b 45 fc             	mov    eax,DWORD PTR [rbp-0x4]
 335:	8d 50 01             	lea    edx,[rax+0x1]
 338:	89 55 fc             	mov    DWORD PTR [rbp-0x4],edx
 33b:	48 98                	cdqe
 33d:	48 8d 14 c5 00 00 00 	lea    rdx,[rax*8+0x0]
 344:	00 
 345:	48 8b 85 c8 fb ff ff 	mov    rax,QWORD PTR [rbp-0x438]
 34c:	48 01 d0             	add    rax,rdx
 34f:	48 8b 55 e8          	mov    rdx,QWORD PTR [rbp-0x18]
 353:	48 01 ca             	add    rdx,rcx
 356:	48 89 10             	mov    QWORD PTR [rax],rdx
 359:	83 45 f8 01          	add    DWORD PTR [rbp-0x8],0x1
 35d:	8b 45 f8             	mov    eax,DWORD PTR [rbp-0x8]
 360:	3b 45 e4             	cmp    eax,DWORD PTR [rbp-0x1c]
 363:	7c 9f                	jl     304 <get_args+0x82>
 365:	eb 01                	jmp    368 <get_args+0xe6>
 367:	90                   	nop
 368:	8b 45 fc             	mov    eax,DWORD PTR [rbp-0x4]
 36b:	c9                   	leave
 36c:	c3                   	ret

str.o:     file format elf64-x86-64


Disassembly of section .text:

0000000000000000 <ptr_to_str>:
   0:	f3 0f 1e fa          	endbr64
   4:	55                   	push   rbp
   5:	48 89 e5             	mov    rbp,rsp
   8:	48 89 7d e8          	mov    QWORD PTR [rbp-0x18],rdi
   c:	48 89 75 e0          	mov    QWORD PTR [rbp-0x20],rsi
  10:	48 8b 45 e8          	mov    rax,QWORD PTR [rbp-0x18]
  14:	48 89 45 f0          	mov    QWORD PTR [rbp-0x10],rax
  18:	48 8b 45 e0          	mov    rax,QWORD PTR [rbp-0x20]
  1c:	c6 00 30             	mov    BYTE PTR [rax],0x30
  1f:	48 8b 45 e0          	mov    rax,QWORD PTR [rbp-0x20]
  23:	48 83 c0 01          	add    rax,0x1
  27:	c6 00 78             	mov    BYTE PTR [rax],0x78
  2a:	c7 45 fc 02 00 00 00 	mov    DWORD PTR [rbp-0x4],0x2
  31:	c7 45 f8 0f 00 00 00 	mov    DWORD PTR [rbp-0x8],0xf
  38:	eb 3c                	jmp    76 <ptr_to_str+0x76>
  3a:	8b 45 f8             	mov    eax,DWORD PTR [rbp-0x8]
  3d:	c1 e0 02             	shl    eax,0x2
  40:	48 8b 55 f0          	mov    rdx,QWORD PTR [rbp-0x10]
  44:	89 c1                	mov    ecx,eax
  46:	48 d3 ea             	shr    rdx,cl
  49:	48 89 d0             	mov    rax,rdx
  4c:	83 e0 0f             	and    eax,0xf
  4f:	48 89 c1             	mov    rcx,rax
  52:	8b 45 fc             	mov    eax,DWORD PTR [rbp-0x4]
  55:	8d 50 01             	lea    edx,[rax+0x1]
  58:	89 55 fc             	mov    DWORD PTR [rbp-0x4],edx
  5b:	48 63 d0             	movsxd rdx,eax
  5e:	48 8b 45 e0          	mov    rax,QWORD PTR [rbp-0x20]
  62:	48 01 c2             	add    rdx,rax
  65:	48 8d 05 00 00 00 00 	lea    rax,[rip+0x0]        # 6c <ptr_to_str+0x6c>
  6c:	0f b6 04 01          	movzx  eax,BYTE PTR [rcx+rax*1]
  70:	88 02                	mov    BYTE PTR [rdx],al
  72:	83 6d f8 01          	sub    DWORD PTR [rbp-0x8],0x1
  76:	83 7d f8 00          	cmp    DWORD PTR [rbp-0x8],0x0
  7a:	79 be                	jns    3a <ptr_to_str+0x3a>
  7c:	8b 45 fc             	mov    eax,DWORD PTR [rbp-0x4]
  7f:	48 63 d0             	movsxd rdx,eax
  82:	48 8b 45 e0          	mov    rax,QWORD PTR [rbp-0x20]
  86:	48 01 d0             	add    rax,rdx
  89:	c6 00 00             	mov    BYTE PTR [rax],0x0
  8c:	90                   	nop
  8d:	5d                   	pop    rbp
  8e:	c3                   	ret

000000000000008f <int_to_str>:
  8f:	f3 0f 1e fa          	endbr64
  93:	55                   	push   rbp
  94:	48 89 e5             	mov    rbp,rsp
  97:	48 83 ec 30          	sub    rsp,0x30
  9b:	89 7d dc             	mov    DWORD PTR [rbp-0x24],edi
  9e:	c7 45 fc 00 00 00 00 	mov    DWORD PTR [rbp-0x4],0x0
  a5:	c6 45 fb 01          	mov    BYTE PTR [rbp-0x5],0x1
  a9:	83 7d dc 00          	cmp    DWORD PTR [rbp-0x24],0x0
  ad:	75 19                	jne    c8 <int_to_str+0x39>
  af:	c6 45 e7 30          	mov    BYTE PTR [rbp-0x19],0x30
  b3:	c6 45 e8 00          	mov    BYTE PTR [rbp-0x18],0x0
  b7:	48 8d 45 e7          	lea    rax,[rbp-0x19]
  bb:	48 89 c7             	mov    rdi,rax
  be:	e8 00 00 00 00       	call   c3 <int_to_str+0x34>
  c3:	e9 f6 00 00 00       	jmp    1be <int_to_str+0x12f>
  c8:	83 7d dc 00          	cmp    DWORD PTR [rbp-0x24],0x0
  cc:	79 67                	jns    135 <int_to_str+0xa6>
  ce:	c6 45 fb 01          	mov    BYTE PTR [rbp-0x5],0x1
  d2:	f7 5d dc             	neg    DWORD PTR [rbp-0x24]
  d5:	eb 5e                	jmp    135 <int_to_str+0xa6>
  d7:	8b 55 dc             	mov    edx,DWORD PTR [rbp-0x24]
  da:	48 63 c2             	movsxd rax,edx
  dd:	48 69 c0 67 66 66 66 	imul   rax,rax,0x66666667
  e4:	48 c1 e8 20          	shr    rax,0x20
  e8:	89 c1                	mov    ecx,eax
  ea:	c1 f9 02             	sar    ecx,0x2
  ed:	89 d0                	mov    eax,edx
  ef:	c1 f8 1f             	sar    eax,0x1f
  f2:	29 c1                	sub    ecx,eax
  f4:	89 c8                	mov    eax,ecx
  f6:	c1 e0 02             	shl    eax,0x2
  f9:	01 c8                	add    eax,ecx
  fb:	01 c0                	add    eax,eax
  fd:	89 d1                	mov    ecx,edx
  ff:	29 c1                	sub    ecx,eax
 101:	89 c8                	mov    eax,ecx
 103:	8d 48 30             	lea    ecx,[rax+0x30]
 106:	8b 45 fc             	mov    eax,DWORD PTR [rbp-0x4]
 109:	8d 50 01             	lea    edx,[rax+0x1]
 10c:	89 55 fc             	mov    DWORD PTR [rbp-0x4],edx
 10f:	89 ca                	mov    edx,ecx
 111:	48 98                	cdqe
 113:	88 54 05 e7          	mov    BYTE PTR [rbp+rax*1-0x19],dl
 117:	8b 45 dc             	mov    eax,DWORD PTR [rbp-0x24]
 11a:	48 63 d0             	movsxd rdx,eax
 11d:	48 69 d2 67 66 66 66 	imul   rdx,rdx,0x66666667
 124:	48 c1 ea 20          	shr    rdx,0x20
 128:	89 d1                	mov    ecx,edx
 12a:	c1 f9 02             	sar    ecx,0x2
 12d:	99                   	cdq
 12e:	89 c8                	mov    eax,ecx
 130:	29 d0                	sub    eax,edx
 132:	89 45 dc             	mov    DWORD PTR [rbp-0x24],eax
 135:	83 7d dc 00          	cmp    DWORD PTR [rbp-0x24],0x0
 139:	75 9c                	jne    d7 <int_to_str+0x48>
 13b:	80 7d fb 00          	cmp    BYTE PTR [rbp-0x5],0x0
 13f:	74 10                	je     151 <int_to_str+0xc2>
 141:	8b 45 fc             	mov    eax,DWORD PTR [rbp-0x4]
 144:	8d 50 01             	lea    edx,[rax+0x1]
 147:	89 55 fc             	mov    DWORD PTR [rbp-0x4],edx
 14a:	48 98                	cdqe
 14c:	c6 44 05 e7 2d       	mov    BYTE PTR [rbp+rax*1-0x19],0x2d
 151:	c7 45 f4 00 00 00 00 	mov    DWORD PTR [rbp-0xc],0x0
 158:	eb 3d                	jmp    197 <int_to_str+0x108>
 15a:	8b 45 f4             	mov    eax,DWORD PTR [rbp-0xc]
 15d:	48 98                	cdqe
 15f:	0f b6 44 05 e7       	movzx  eax,BYTE PTR [rbp+rax*1-0x19]
 164:	88 45 f3             	mov    BYTE PTR [rbp-0xd],al
 167:	8b 45 fc             	mov    eax,DWORD PTR [rbp-0x4]
 16a:	2b 45 f4             	sub    eax,DWORD PTR [rbp-0xc]
 16d:	83 e8 01             	sub    eax,0x1
 170:	48 98                	cdqe
 172:	0f b6 54 05 e7       	movzx  edx,BYTE PTR [rbp+rax*1-0x19]
 177:	8b 45 f4             	mov    eax,DWORD PTR [rbp-0xc]
 17a:	48 98                	cdqe
 17c:	88 54 05 e7          	mov    BYTE PTR [rbp+rax*1-0x19],dl
 180:	8b 45 fc             	mov    eax,DWORD PTR [rbp-0x4]
 183:	2b 45 f4             	sub    eax,DWORD PTR [rbp-0xc]
 186:	83 e8 01             	sub    eax,0x1
 189:	48 98                	cdqe
 18b:	0f b6 55 f3          	movzx  edx,BYTE PTR [rbp-0xd]
 18f:	88 54 05 e7          	mov    BYTE PTR [rbp+rax*1-0x19],dl
 193:	83 45 f4 01          	add    DWORD PTR [rbp-0xc],0x1
 197:	8b 45 fc             	mov    eax,DWORD PTR [rbp-0x4]
 19a:	89 c2                	mov    edx,eax
 19c:	c1 ea 1f             	shr    edx,0x1f
 19f:	01 d0                	add    eax,edx
 1a1:	d1 f8                	sar    eax,1
 1a3:	39 45 f4             	cmp    DWORD PTR [rbp-0xc],eax
 1a6:	7c b2                	jl     15a <int_to_str+0xcb>
 1a8:	8b 45 fc             	mov    eax,DWORD PTR [rbp-0x4]
 1ab:	48 98                	cdqe
 1ad:	c6 44 05 e7 00       	mov    BYTE PTR [rbp+rax*1-0x19],0x0
 1b2:	48 8d 45 e7          	lea    rax,[rbp-0x19]
 1b6:	48 89 c7             	mov    rdi,rax
 1b9:	e8 00 00 00 00       	call   1be <int_to_str+0x12f>
 1be:	c9                   	leave
 1bf:	c3                   	ret

00000000000001c0 <_sprintf>:
 1c0:	f3 0f 1e fa          	endbr64
 1c4:	55                   	push   rbp
 1c5:	48 89 e5             	mov    rbp,rsp
 1c8:	48 83 ec 70          	sub    rsp,0x70
 1cc:	48 89 7d a8          	mov    QWORD PTR [rbp-0x58],rdi
 1d0:	48 89 75 a0          	mov    QWORD PTR [rbp-0x60],rsi
 1d4:	48 89 55 98          	mov    QWORD PTR [rbp-0x68],rdx
 1d8:	c7 45 fc 00 00 00 00 	mov    DWORD PTR [rbp-0x4],0x0
 1df:	c7 45 f8 00 00 00 00 	mov    DWORD PTR [rbp-0x8],0x0
 1e6:	c7 45 f4 00 00 00 00 	mov    DWORD PTR [rbp-0xc],0x0
 1ed:	e9 39 02 00 00       	jmp    42b <_sprintf+0x26b>
 1f2:	8b 45 f4             	mov    eax,DWORD PTR [rbp-0xc]
 1f5:	48 63 d0             	movsxd rdx,eax
 1f8:	48 8b 45 a0          	mov    rax,QWORD PTR [rbp-0x60]
 1fc:	48 01 d0             	add    rax,rdx
 1ff:	0f b6 00             	movzx  eax,BYTE PTR [rax]
 202:	3c 25                	cmp    al,0x25
 204:	0f 85 9c 00 00 00    	jne    2a6 <_sprintf+0xe6>
 20a:	8b 45 f4             	mov    eax,DWORD PTR [rbp-0xc]
 20d:	48 98                	cdqe
 20f:	48 8d 50 01          	lea    rdx,[rax+0x1]
 213:	48 8b 45 a0          	mov    rax,QWORD PTR [rbp-0x60]
 217:	48 01 d0             	add    rax,rdx
 21a:	0f b6 00             	movzx  eax,BYTE PTR [rax]
 21d:	3c 73                	cmp    al,0x73
 21f:	0f 85 81 00 00 00    	jne    2a6 <_sprintf+0xe6>
 225:	8b 45 fc             	mov    eax,DWORD PTR [rbp-0x4]
 228:	48 98                	cdqe
 22a:	48 8d 14 c5 00 00 00 	lea    rdx,[rax*8+0x0]
 231:	00 
 232:	48 8b 45 98          	mov    rax,QWORD PTR [rbp-0x68]
 236:	48 01 d0             	add    rax,rdx
 239:	48 8b 00             	mov    rax,QWORD PTR [rax]
 23c:	48 89 45 e8          	mov    QWORD PTR [rbp-0x18],rax
 240:	48 83 7d e8 00       	cmp    QWORD PTR [rbp-0x18],0x0
 245:	75 0b                	jne    252 <_sprintf+0x92>
 247:	48 8d 05 00 00 00 00 	lea    rax,[rip+0x0]        # 24e <_sprintf+0x8e>
 24e:	48 89 45 e8          	mov    QWORD PTR [rbp-0x18],rax
 252:	c7 45 e4 00 00 00 00 	mov    DWORD PTR [rbp-0x1c],0x0
 259:	eb 2a                	jmp    285 <_sprintf+0xc5>
 25b:	8b 45 e4             	mov    eax,DWORD PTR [rbp-0x1c]
 25e:	48 63 d0             	movsxd rdx,eax
 261:	48 8b 45 e8          	mov    rax,QWORD PTR [rbp-0x18]
 265:	48 8d 0c 02          	lea    rcx,[rdx+rax*1]
 269:	8b 45 f8             	mov    eax,DWORD PTR [rbp-0x8]
 26c:	8d 50 01             	lea    edx,[rax+0x1]
 26f:	89 55 f8             	mov    DWORD PTR [rbp-0x8],edx
 272:	48 63 d0             	movsxd rdx,eax
 275:	48 8b 45 a8          	mov    rax,QWORD PTR [rbp-0x58]
 279:	48 01 c2             	add    rdx,rax
 27c:	0f b6 01             	movzx  eax,BYTE PTR [rcx]
 27f:	88 02                	mov    BYTE PTR [rdx],al
 281:	83 45 e4 01          	add    DWORD PTR [rbp-0x1c],0x1
 285:	8b 45 e4             	mov    eax,DWORD PTR [rbp-0x1c]
 288:	48 63 d0             	movsxd rdx,eax
 28b:	48 8b 45 e8          	mov    rax,QWORD PTR [rbp-0x18]
 28f:	48 01 d0             	add    rax,rdx
 292:	0f b6 00             	movzx  eax,BYTE PTR [rax]
 295:	84 c0                	test   al,al
 297:	75 c2                	jne    25b <_sprintf+0x9b>
 299:	83 45 fc 01          	add    DWORD PTR [rbp-0x4],0x1
 29d:	83 45 f4 01          	add    DWORD PTR [rbp-0xc],0x1
 2a1:	e9 81 01 00 00       	jmp    427 <_sprintf+0x267>
 2a6:	8b 45 f4             	mov    eax,DWORD PTR [rbp-0xc]
 2a9:	48 63 d0             	movsxd rdx,eax
 2ac:	48 8b 45 a0          	mov    rax,QWORD PTR [rbp-0x60]
 2b0:	48 01 d0             	add    rax,rdx
 2b3:	0f b6 00             	movzx  eax,BYTE PTR [rax]
 2b6:	3c 25                	cmp    al,0x25
 2b8:	0f 85 aa 00 00 00    	jne    368 <_sprintf+0x1a8>
 2be:	8b 45 f4             	mov    eax,DWORD PTR [rbp-0xc]
 2c1:	48 98                	cdqe
 2c3:	48 8d 50 01          	lea    rdx,[rax+0x1]
 2c7:	48 8b 45 a0          	mov    rax,QWORD PTR [rbp-0x60]
 2cb:	48 01 d0             	add    rax,rdx
 2ce:	0f b6 00             	movzx  eax,BYTE PTR [rax]
 2d1:	3c 64                	cmp    al,0x64
 2d3:	0f 85 8f 00 00 00    	jne    368 <_sprintf+0x1a8>
 2d9:	8b 45 fc             	mov    eax,DWORD PTR [rbp-0x4]
 2dc:	48 98                	cdqe
 2de:	48 8d 14 c5 00 00 00 	lea    rdx,[rax*8+0x0]
 2e5:	00 
 2e6:	48 8b 45 98          	mov    rax,QWORD PTR [rbp-0x68]
 2ea:	48 01 d0             	add    rax,rdx
 2ed:	48 8b 00             	mov    rax,QWORD PTR [rax]
 2f0:	8b 00                	mov    eax,DWORD PTR [rax]
 2f2:	89 45 d8             	mov    DWORD PTR [rbp-0x28],eax
 2f5:	8b 45 d8             	mov    eax,DWORD PTR [rbp-0x28]
 2f8:	89 c7                	mov    edi,eax
 2fa:	e8 00 00 00 00       	call   2ff <_sprintf+0x13f>
 2ff:	48 89 45 d0          	mov    QWORD PTR [rbp-0x30],rax
 303:	c7 45 e0 00 00 00 00 	mov    DWORD PTR [rbp-0x20],0x0
 30a:	eb 2a                	jmp    336 <_sprintf+0x176>
 30c:	8b 45 e0             	mov    eax,DWORD PTR [rbp-0x20]
 30f:	48 63 d0             	movsxd rdx,eax
 312:	48 8b 45 d0          	mov    rax,QWORD PTR [rbp-0x30]
 316:	48 8d 0c 02          	lea    rcx,[rdx+rax*1]
 31a:	8b 45 f8             	mov    eax,DWORD PTR [rbp-0x8]
 31d:	8d 50 01             	lea    edx,[rax+0x1]
 320:	89 55 f8             	mov    DWORD PTR [rbp-0x8],edx
 323:	48 63 d0             	movsxd rdx,eax
 326:	48 8b 45 a8          	mov    rax,QWORD PTR [rbp-0x58]
 32a:	48 01 c2             	add    rdx,rax
 32d:	0f b6 01             	movzx  eax,BYTE PTR [rcx]
 330:	88 02                	mov    BYTE PTR [rdx],al
 332:	83 45 e0 01          	add    DWORD PTR [rbp-0x20],0x1
 336:	8b 45 e0             	mov    eax,DWORD PTR [rbp-0x20]
 339:	48 63 d0             	movsxd rdx,eax
 33c:	48 8b 45 d0          	mov    rax,QWORD PTR [rbp-0x30]
 340:	48 01 d0             	add    rax,rdx
 343:	0f b6 00             	movzx  eax,BYTE PTR [rax]
 346:	84 c0                	test   al,al
 348:	75 c2                	jne    30c <_sprintf+0x14c>
 34a:	48 8b 45 d0          	mov    rax,QWORD PTR [rbp-0x30]
 34e:	be 01 00 00 00       	mov    esi,0x1
 353:	48 89 c7             	mov    rdi,rax
 356:	e8 00 00 00 00       	call   35b <_sprintf+0x19b>
 35b:	83 45 fc 01          	add    DWORD PTR [rbp-0x4],0x1
 35f:	83 45 f4 01          	add    DWORD PTR [rbp-0xc],0x1
 363:	e9 bf 00 00 00       	jmp    427 <_sprintf+0x267>
 368:	8b 45 f4             	mov    eax,DWORD PTR [rbp-0xc]
 36b:	48 63 d0             	movsxd rdx,eax
 36e:	48 8b 45 a0          	mov    rax,QWORD PTR [rbp-0x60]
 372:	48 01 d0             	add    rax,rdx
 375:	0f b6 00             	movzx  eax,BYTE PTR [rax]
 378:	3c 25                	cmp    al,0x25
 37a:	0f 85 81 00 00 00    	jne    401 <_sprintf+0x241>
 380:	8b 45 f4             	mov    eax,DWORD PTR [rbp-0xc]
 383:	48 98                	cdqe
 385:	48 8d 50 01          	lea    rdx,[rax+0x1]
 389:	48 8b 45 a0          	mov    rax,QWORD PTR [rbp-0x60]
 38d:	48 01 d0             	add    rax,rdx
 390:	0f b6 00             	movzx  eax,BYTE PTR [rax]
 393:	3c 70                	cmp    al,0x70
 395:	75 6a                	jne    401 <_sprintf+0x241>
 397:	8b 45 fc             	mov    eax,DWORD PTR [rbp-0x4]
 39a:	48 98                	cdqe
 39c:	48 8d 14 c5 00 00 00 	lea    rdx,[rax*8+0x0]
 3a3:	00 
 3a4:	48 8b 45 98          	mov    rax,QWORD PTR [rbp-0x68]
 3a8:	48 01 d0             	add    rax,rdx
 3ab:	48 8b 00             	mov    rax,QWORD PTR [rax]
 3ae:	48 8d 55 b0          	lea    rdx,[rbp-0x50]
 3b2:	48 89 d6             	mov    rsi,rdx
 3b5:	48 89 c7             	mov    rdi,rax
 3b8:	e8 00 00 00 00       	call   3bd <_sprintf+0x1fd>
 3bd:	c7 45 dc 00 00 00 00 	mov    DWORD PTR [rbp-0x24],0x0
 3c4:	eb 23                	jmp    3e9 <_sprintf+0x229>
 3c6:	8b 45 f8             	mov    eax,DWORD PTR [rbp-0x8]
 3c9:	8d 50 01             	lea    edx,[rax+0x1]
 3cc:	89 55 f8             	mov    DWORD PTR [rbp-0x8],edx
 3cf:	48 63 d0             	movsxd rdx,eax
 3d2:	48 8b 45 a8          	mov    rax,QWORD PTR [rbp-0x58]
 3d6:	48 01 c2             	add    rdx,rax
 3d9:	8b 45 dc             	mov    eax,DWORD PTR [rbp-0x24]
 3dc:	48 98                	cdqe
 3de:	0f b6 44 05 b0       	movzx  eax,BYTE PTR [rbp+rax*1-0x50]
 3e3:	88 02                	mov    BYTE PTR [rdx],al
 3e5:	83 45 dc 01          	add    DWORD PTR [rbp-0x24],0x1
 3e9:	8b 45 dc             	mov    eax,DWORD PTR [rbp-0x24]
 3ec:	48 98                	cdqe
 3ee:	0f b6 44 05 b0       	movzx  eax,BYTE PTR [rbp+rax*1-0x50]
 3f3:	84 c0                	test   al,al
 3f5:	75 cf                	jne    3c6 <_sprintf+0x206>
 3f7:	83 45 fc 01          	add    DWORD PTR [rbp-0x4],0x1
 3fb:	83 45 f4 01          	add    DWORD PTR [rbp-0xc],0x1
 3ff:	eb 26                	jmp    427 <_sprintf+0x267>
 401:	8b 45 f4             	mov    eax,DWORD PTR [rbp-0xc]
 404:	48 63 d0             	movsxd rdx,eax
 407:	48 8b 45 a0          	mov    rax,QWORD PTR [rbp-0x60]
 40b:	48 8d 0c 02          	lea    rcx,[rdx+rax*1]
 40f:	8b 45 f8             	mov    eax,DWORD PTR [rbp-0x8]
 412:	8d 50 01             	lea    edx,[rax+0x1]
 415:	89 55 f8             	mov    DWORD PTR [rbp-0x8],edx
 418:	48 63 d0             	movsxd rdx,eax
 41b:	48 8b 45 a8          	mov    rax,QWORD PTR [rbp-0x58]
 41f:	48 01 c2             	add    rdx,rax
 422:	0f b6 01             	movzx  eax,BYTE PTR [rcx]
 425:	88 02                	mov    BYTE PTR [rdx],al
 427:	83 45 f4 01          	add    DWORD PTR [rbp-0xc],0x1
 42b:	8b 45 f4             	mov    eax,DWORD PTR [rbp-0xc]
 42e:	48 63 d0             	movsxd rdx,eax
 431:	48 8b 45 a0          	mov    rax,QWORD PTR [rbp-0x60]
 435:	48 01 d0             	add    rax,rdx
 438:	0f b6 00             	movzx  eax,BYTE PTR [rax]
 43b:	84 c0                	test   al,al
 43d:	0f 85 af fd ff ff    	jne    1f2 <_sprintf+0x32>
 443:	8b 45 f8             	mov    eax,DWORD PTR [rbp-0x8]
 446:	48 63 d0             	movsxd rdx,eax
 449:	48 8b 45 a8          	mov    rax,QWORD PTR [rbp-0x58]
 44d:	48 01 d0             	add    rax,rdx
 450:	c6 00 00             	mov    BYTE PTR [rax],0x0
 453:	90                   	nop
 454:	c9                   	leave
 455:	c3                   	ret

0000000000000456 <istr>:
 456:	f3 0f 1e fa          	endbr64
 45a:	55                   	push   rbp
 45b:	48 89 e5             	mov    rbp,rsp
 45e:	48 81 ec a8 01 00 00 	sub    rsp,0x1a8
 465:	48 89 bd e8 fd ff ff 	mov    QWORD PTR [rbp-0x218],rdi
 46c:	89 b5 e4 fd ff ff    	mov    DWORD PTR [rbp-0x21c],esi
 472:	8b 85 e4 fd ff ff    	mov    eax,DWORD PTR [rbp-0x21c]
 478:	89 45 fc             	mov    DWORD PTR [rbp-0x4],eax
 47b:	c7 45 f8 00 00 00 00 	mov    DWORD PTR [rbp-0x8],0x0
 482:	48 8d 95 f0 fd ff ff 	lea    rdx,[rbp-0x210]
 489:	b8 00 00 00 00       	mov    eax,0x0
 48e:	b9 3e 00 00 00       	mov    ecx,0x3e
 493:	48 89 d7             	mov    rdi,rdx
 496:	f3 48 ab             	rep stos QWORD PTR es:[rdi],rax
 499:	48 89 fa             	mov    rdx,rdi
 49c:	89 02                	mov    DWORD PTR [rdx],eax
 49e:	48 83 c2 04          	add    rdx,0x4
 4a2:	eb 61                	jmp    505 <istr+0xaf>
 4a4:	8b 55 fc             	mov    edx,DWORD PTR [rbp-0x4]
 4a7:	48 63 c2             	movsxd rax,edx
 4aa:	48 69 c0 67 66 66 66 	imul   rax,rax,0x66666667
 4b1:	48 c1 e8 20          	shr    rax,0x20
 4b5:	89 c1                	mov    ecx,eax
 4b7:	c1 f9 02             	sar    ecx,0x2
 4ba:	89 d0                	mov    eax,edx
 4bc:	c1 f8 1f             	sar    eax,0x1f
 4bf:	29 c1                	sub    ecx,eax
 4c1:	89 c8                	mov    eax,ecx
 4c3:	c1 e0 02             	shl    eax,0x2
 4c6:	01 c8                	add    eax,ecx
 4c8:	01 c0                	add    eax,eax
 4ca:	89 d1                	mov    ecx,edx
 4cc:	29 c1                	sub    ecx,eax
 4ce:	89 c8                	mov    eax,ecx
 4d0:	8d 48 30             	lea    ecx,[rax+0x30]
 4d3:	8b 45 f8             	mov    eax,DWORD PTR [rbp-0x8]
 4d6:	8d 50 01             	lea    edx,[rax+0x1]
 4d9:	89 55 f8             	mov    DWORD PTR [rbp-0x8],edx
 4dc:	89 ca                	mov    edx,ecx
 4de:	48 98                	cdqe
 4e0:	88 94 05 f0 fd ff ff 	mov    BYTE PTR [rbp+rax*1-0x210],dl
 4e7:	8b 45 fc             	mov    eax,DWORD PTR [rbp-0x4]
 4ea:	48 63 d0             	movsxd rdx,eax
 4ed:	48 69 d2 67 66 66 66 	imul   rdx,rdx,0x66666667
 4f4:	48 c1 ea 20          	shr    rdx,0x20
 4f8:	89 d1                	mov    ecx,edx
 4fa:	c1 f9 02             	sar    ecx,0x2
 4fd:	99                   	cdq
 4fe:	89 c8                	mov    eax,ecx
 500:	29 d0                	sub    eax,edx
 502:	89 45 fc             	mov    DWORD PTR [rbp-0x4],eax
 505:	83 7d fc 00          	cmp    DWORD PTR [rbp-0x4],0x0
 509:	75 99                	jne    4a4 <istr+0x4e>
 50b:	c7 45 f4 00 00 00 00 	mov    DWORD PTR [rbp-0xc],0x0
 512:	eb 48                	jmp    55c <istr+0x106>
 514:	8b 45 f4             	mov    eax,DWORD PTR [rbp-0xc]
 517:	48 98                	cdqe
 519:	0f b6 84 05 f0 fd ff 	movzx  eax,BYTE PTR [rbp+rax*1-0x210]
 520:	ff 
 521:	88 45 ef             	mov    BYTE PTR [rbp-0x11],al
 524:	83 6d f8 01          	sub    DWORD PTR [rbp-0x8],0x1
 528:	8b 45 f8             	mov    eax,DWORD PTR [rbp-0x8]
 52b:	48 98                	cdqe
 52d:	0f b6 84 05 f0 fd ff 	movzx  eax,BYTE PTR [rbp+rax*1-0x210]
 534:	ff 
 535:	88 45 ee             	mov    BYTE PTR [rbp-0x12],al
 538:	8b 45 f4             	mov    eax,DWORD PTR [rbp-0xc]
 53b:	48 98                	cdqe
 53d:	0f b6 55 ee          	movzx  edx,BYTE PTR [rbp-0x12]
 541:	88 94 05 f0 fd ff ff 	mov    BYTE PTR [rbp+rax*1-0x210],dl
 548:	8b 45 f8             	mov    eax,DWORD PTR [rbp-0x8]
 54b:	48 98                	cdqe
 54d:	0f b6 55 ef          	movzx  edx,BYTE PTR [rbp-0x11]
 551:	88 94 05 f0 fd ff ff 	mov    BYTE PTR [rbp+rax*1-0x210],dl
 558:	83 45 f4 01          	add    DWORD PTR [rbp-0xc],0x1
 55c:	8b 45 f4             	mov    eax,DWORD PTR [rbp-0xc]
 55f:	3b 45 f8             	cmp    eax,DWORD PTR [rbp-0x8]
 562:	7c b0                	jl     514 <istr+0xbe>
 564:	c7 45 f0 00 00 00 00 	mov    DWORD PTR [rbp-0x10],0x0
 56b:	eb 23                	jmp    590 <istr+0x13a>
 56d:	8b 45 f0             	mov    eax,DWORD PTR [rbp-0x10]
 570:	48 63 d0             	movsxd rdx,eax
 573:	48 8b 85 e8 fd ff ff 	mov    rax,QWORD PTR [rbp-0x218]
 57a:	48 01 c2             	add    rdx,rax
 57d:	8b 45 f0             	mov    eax,DWORD PTR [rbp-0x10]
 580:	48 98                	cdqe
 582:	0f b6 84 05 f0 fd ff 	movzx  eax,BYTE PTR [rbp+rax*1-0x210]
 589:	ff 
 58a:	88 02                	mov    BYTE PTR [rdx],al
 58c:	83 45 f0 01          	add    DWORD PTR [rbp-0x10],0x1
 590:	8b 45 f0             	mov    eax,DWORD PTR [rbp-0x10]
 593:	48 98                	cdqe
 595:	0f b6 84 05 f0 fd ff 	movzx  eax,BYTE PTR [rbp+rax*1-0x210]
 59c:	ff 
 59d:	84 c0                	test   al,al
 59f:	75 cc                	jne    56d <istr+0x117>
 5a1:	90                   	nop
 5a2:	90                   	nop
 5a3:	c9                   	leave
 5a4:	c3                   	ret

00000000000005a5 <str_dup>:
 5a5:	f3 0f 1e fa          	endbr64
 5a9:	55                   	push   rbp
 5aa:	48 89 e5             	mov    rbp,rsp
 5ad:	48 83 ec 20          	sub    rsp,0x20
 5b1:	48 89 7d e8          	mov    QWORD PTR [rbp-0x18],rdi
 5b5:	48 8b 45 e8          	mov    rax,QWORD PTR [rbp-0x18]
 5b9:	48 89 c7             	mov    rdi,rax
 5bc:	e8 00 00 00 00       	call   5c1 <str_dup+0x1c>
 5c1:	89 45 fc             	mov    DWORD PTR [rbp-0x4],eax
 5c4:	8b 45 fc             	mov    eax,DWORD PTR [rbp-0x4]
 5c7:	83 c0 01             	add    eax,0x1
 5ca:	89 c6                	mov    esi,eax
 5cc:	bf 00 00 00 00       	mov    edi,0x0
 5d1:	e8 00 00 00 00       	call   5d6 <str_dup+0x31>
 5d6:	48 89 45 f0          	mov    QWORD PTR [rbp-0x10],rax
 5da:	8b 45 fc             	mov    eax,DWORD PTR [rbp-0x4]
 5dd:	48 63 d0             	movsxd rdx,eax
 5e0:	48 8b 4d e8          	mov    rcx,QWORD PTR [rbp-0x18]
 5e4:	48 8b 45 f0          	mov    rax,QWORD PTR [rbp-0x10]
 5e8:	48 89 ce             	mov    rsi,rcx
 5eb:	48 89 c7             	mov    rdi,rax
 5ee:	e8 00 00 00 00       	call   5f3 <str_dup+0x4e>
 5f3:	8b 45 fc             	mov    eax,DWORD PTR [rbp-0x4]
 5f6:	48 63 d0             	movsxd rdx,eax
 5f9:	48 8b 45 f0          	mov    rax,QWORD PTR [rbp-0x10]
 5fd:	48 01 d0             	add    rax,rdx
 600:	c6 00 00             	mov    BYTE PTR [rax],0x0
 603:	48 8b 45 f0          	mov    rax,QWORD PTR [rbp-0x10]
 607:	c9                   	leave
 608:	c3                   	ret

0000000000000609 <str_len>:
 609:	f3 0f 1e fa          	endbr64
 60d:	55                   	push   rbp
 60e:	48 89 e5             	mov    rbp,rsp
 611:	48 89 7d e8          	mov    QWORD PTR [rbp-0x18],rdi
 615:	48 83 7d e8 00       	cmp    QWORD PTR [rbp-0x18],0x0
 61a:	75 07                	jne    623 <str_len+0x1a>
 61c:	b8 00 00 00 00       	mov    eax,0x0
 621:	eb 2f                	jmp    652 <str_len+0x49>
 623:	c7 45 fc 00 00 00 00 	mov    DWORD PTR [rbp-0x4],0x0
 62a:	c7 45 f8 00 00 00 00 	mov    DWORD PTR [rbp-0x8],0x0
 631:	eb 08                	jmp    63b <str_len+0x32>
 633:	83 45 fc 01          	add    DWORD PTR [rbp-0x4],0x1
 637:	83 45 f8 01          	add    DWORD PTR [rbp-0x8],0x1
 63b:	8b 45 f8             	mov    eax,DWORD PTR [rbp-0x8]
 63e:	48 63 d0             	movsxd rdx,eax
 641:	48 8b 45 e8          	mov    rax,QWORD PTR [rbp-0x18]
 645:	48 01 d0             	add    rax,rdx
 648:	0f b6 00             	movzx  eax,BYTE PTR [rax]
 64b:	84 c0                	test   al,al
 64d:	75 e4                	jne    633 <str_len+0x2a>
 64f:	8b 45 fc             	mov    eax,DWORD PTR [rbp-0x4]
 652:	5d                   	pop    rbp
 653:	c3                   	ret

0000000000000654 <str_cmp>:
 654:	f3 0f 1e fa          	endbr64
 658:	55                   	push   rbp
 659:	48 89 e5             	mov    rbp,rsp
 65c:	48 89 7d e8          	mov    QWORD PTR [rbp-0x18],rdi
 660:	48 89 75 e0          	mov    QWORD PTR [rbp-0x20],rsi
 664:	48 83 7d e8 00       	cmp    QWORD PTR [rbp-0x18],0x0
 669:	74 07                	je     672 <str_cmp+0x1e>
 66b:	48 83 7d e0 00       	cmp    QWORD PTR [rbp-0x20],0x0
 670:	75 07                	jne    679 <str_cmp+0x25>
 672:	b8 01 00 00 00       	mov    eax,0x1
 677:	eb 52                	jmp    6cb <str_cmp+0x77>
 679:	c7 45 fc 00 00 00 00 	mov    DWORD PTR [rbp-0x4],0x0
 680:	8b 45 fc             	mov    eax,DWORD PTR [rbp-0x4]
 683:	48 63 d0             	movsxd rdx,eax
 686:	48 8b 45 e8          	mov    rax,QWORD PTR [rbp-0x18]
 68a:	48 01 d0             	add    rax,rdx
 68d:	0f b6 10             	movzx  edx,BYTE PTR [rax]
 690:	8b 45 fc             	mov    eax,DWORD PTR [rbp-0x4]
 693:	48 63 c8             	movsxd rcx,eax
 696:	48 8b 45 e0          	mov    rax,QWORD PTR [rbp-0x20]
 69a:	48 01 c8             	add    rax,rcx
 69d:	0f b6 00             	movzx  eax,BYTE PTR [rax]
 6a0:	38 c2                	cmp    dl,al
 6a2:	74 07                	je     6ab <str_cmp+0x57>
 6a4:	b8 01 00 00 00       	mov    eax,0x1
 6a9:	eb 20                	jmp    6cb <str_cmp+0x77>
 6ab:	8b 45 fc             	mov    eax,DWORD PTR [rbp-0x4]
 6ae:	48 63 d0             	movsxd rdx,eax
 6b1:	48 8b 45 e8          	mov    rax,QWORD PTR [rbp-0x18]
 6b5:	48 01 d0             	add    rax,rdx
 6b8:	0f b6 00             	movzx  eax,BYTE PTR [rax]
 6bb:	84 c0                	test   al,al
 6bd:	74 06                	je     6c5 <str_cmp+0x71>
 6bf:	83 45 fc 01          	add    DWORD PTR [rbp-0x4],0x1
 6c3:	eb bb                	jmp    680 <str_cmp+0x2c>
 6c5:	90                   	nop
 6c6:	b8 01 00 00 00       	mov    eax,0x1
 6cb:	5d                   	pop    rbp
 6cc:	c3                   	ret

00000000000006cd <str_append>:
 6cd:	f3 0f 1e fa          	endbr64
 6d1:	55                   	push   rbp
 6d2:	48 89 e5             	mov    rbp,rsp
 6d5:	48 83 ec 20          	sub    rsp,0x20
 6d9:	48 89 7d e8          	mov    QWORD PTR [rbp-0x18],rdi
 6dd:	48 89 75 e0          	mov    QWORD PTR [rbp-0x20],rsi
 6e1:	48 83 7d e8 00       	cmp    QWORD PTR [rbp-0x18],0x0
 6e6:	74 07                	je     6ef <str_append+0x22>
 6e8:	48 83 7d e0 00       	cmp    QWORD PTR [rbp-0x20],0x0
 6ed:	75 07                	jne    6f6 <str_append+0x29>
 6ef:	b8 00 00 00 00       	mov    eax,0x0
 6f4:	eb 6b                	jmp    761 <str_append+0x94>
 6f6:	48 8b 45 e8          	mov    rax,QWORD PTR [rbp-0x18]
 6fa:	48 89 c7             	mov    rdi,rax
 6fd:	e8 00 00 00 00       	call   702 <str_append+0x35>
 702:	89 45 fc             	mov    DWORD PTR [rbp-0x4],eax
 705:	c7 45 f8 00 00 00 00 	mov    DWORD PTR [rbp-0x8],0x0
 70c:	eb 2a                	jmp    738 <str_append+0x6b>
 70e:	8b 45 f8             	mov    eax,DWORD PTR [rbp-0x8]
 711:	48 63 d0             	movsxd rdx,eax
 714:	48 8b 45 e0          	mov    rax,QWORD PTR [rbp-0x20]
 718:	48 8d 0c 02          	lea    rcx,[rdx+rax*1]
 71c:	8b 45 fc             	mov    eax,DWORD PTR [rbp-0x4]
 71f:	8d 50 01             	lea    edx,[rax+0x1]
 722:	89 55 fc             	mov    DWORD PTR [rbp-0x4],edx
 725:	48 63 d0             	movsxd rdx,eax
 728:	48 8b 45 e8          	mov    rax,QWORD PTR [rbp-0x18]
 72c:	48 01 c2             	add    rdx,rax
 72f:	0f b6 01             	movzx  eax,BYTE PTR [rcx]
 732:	88 02                	mov    BYTE PTR [rdx],al
 734:	83 45 f8 01          	add    DWORD PTR [rbp-0x8],0x1
 738:	8b 45 f8             	mov    eax,DWORD PTR [rbp-0x8]
 73b:	48 63 d0             	movsxd rdx,eax
 73e:	48 8b 45 e0          	mov    rax,QWORD PTR [rbp-0x20]
 742:	48 01 d0             	add    rax,rdx
 745:	0f b6 00             	movzx  eax,BYTE PTR [rax]
 748:	84 c0                	test   al,al
 74a:	75 c2                	jne    70e <str_append+0x41>
 74c:	8b 45 fc             	mov    eax,DWORD PTR [rbp-0x4]
 74f:	48 63 d0             	movsxd rdx,eax
 752:	48 8b 45 e8          	mov    rax,QWORD PTR [rbp-0x18]
 756:	48 01 d0             	add    rax,rdx
 759:	c6 00 00             	mov    BYTE PTR [rax],0x0
 75c:	b8 01 00 00 00       	mov    eax,0x1
 761:	c9                   	leave
 762:	c3                   	ret

0000000000000763 <find_string>:
 763:	f3 0f 1e fa          	endbr64
 767:	55                   	push   rbp
 768:	48 89 e5             	mov    rbp,rsp
 76b:	48 83 ec 20          	sub    rsp,0x20
 76f:	48 89 7d e8          	mov    QWORD PTR [rbp-0x18],rdi
 773:	48 89 75 e0          	mov    QWORD PTR [rbp-0x20],rsi
 777:	48 83 7d e8 00       	cmp    QWORD PTR [rbp-0x18],0x0
 77c:	74 07                	je     785 <find_string+0x22>
 77e:	48 83 7d e0 00       	cmp    QWORD PTR [rbp-0x20],0x0
 783:	75 0a                	jne    78f <find_string+0x2c>
 785:	b8 ff ff ff ff       	mov    eax,0xffffffff
 78a:	e9 bb 00 00 00       	jmp    84a <find_string+0xe7>
 78f:	48 8b 45 e8          	mov    rax,QWORD PTR [rbp-0x18]
 793:	48 89 c7             	mov    rdi,rax
 796:	e8 00 00 00 00       	call   79b <find_string+0x38>
 79b:	89 45 f4             	mov    DWORD PTR [rbp-0xc],eax
 79e:	48 8b 45 e0          	mov    rax,QWORD PTR [rbp-0x20]
 7a2:	48 89 c7             	mov    rdi,rax
 7a5:	e8 00 00 00 00       	call   7aa <find_string+0x47>
 7aa:	89 45 f0             	mov    DWORD PTR [rbp-0x10],eax
 7ad:	c7 45 fc 00 00 00 00 	mov    DWORD PTR [rbp-0x4],0x0
 7b4:	e9 80 00 00 00       	jmp    839 <find_string+0xd6>
 7b9:	c7 45 f8 00 00 00 00 	mov    DWORD PTR [rbp-0x8],0x0
 7c0:	eb 68                	jmp    82a <find_string+0xc7>
 7c2:	8b 55 fc             	mov    edx,DWORD PTR [rbp-0x4]
 7c5:	8b 45 f8             	mov    eax,DWORD PTR [rbp-0x8]
 7c8:	01 d0                	add    eax,edx
 7ca:	48 63 d0             	movsxd rdx,eax
 7cd:	48 8b 45 e8          	mov    rax,QWORD PTR [rbp-0x18]
 7d1:	48 01 d0             	add    rax,rdx
 7d4:	0f b6 10             	movzx  edx,BYTE PTR [rax]
 7d7:	8b 45 f8             	mov    eax,DWORD PTR [rbp-0x8]
 7da:	48 63 c8             	movsxd rcx,eax
 7dd:	48 8b 45 e0          	mov    rax,QWORD PTR [rbp-0x20]
 7e1:	48 01 c8             	add    rax,rcx
 7e4:	0f b6 00             	movzx  eax,BYTE PTR [rax]
 7e7:	38 c2                	cmp    dl,al
 7e9:	75 12                	jne    7fd <find_string+0x9a>
 7eb:	8b 45 f0             	mov    eax,DWORD PTR [rbp-0x10]
 7ee:	83 e8 01             	sub    eax,0x1
 7f1:	39 45 f8             	cmp    DWORD PTR [rbp-0x8],eax
 7f4:	75 07                	jne    7fd <find_string+0x9a>
 7f6:	b8 01 00 00 00       	mov    eax,0x1
 7fb:	eb 4d                	jmp    84a <find_string+0xe7>
 7fd:	8b 55 fc             	mov    edx,DWORD PTR [rbp-0x4]
 800:	8b 45 f8             	mov    eax,DWORD PTR [rbp-0x8]
 803:	01 d0                	add    eax,edx
 805:	48 63 d0             	movsxd rdx,eax
 808:	48 8b 45 e8          	mov    rax,QWORD PTR [rbp-0x18]
 80c:	48 01 d0             	add    rax,rdx
 80f:	0f b6 10             	movzx  edx,BYTE PTR [rax]
 812:	8b 45 f8             	mov    eax,DWORD PTR [rbp-0x8]
 815:	48 63 c8             	movsxd rcx,eax
 818:	48 8b 45 e0          	mov    rax,QWORD PTR [rbp-0x20]
 81c:	48 01 c8             	add    rax,rcx
 81f:	0f b6 00             	movzx  eax,BYTE PTR [rax]
 822:	38 c2                	cmp    dl,al
 824:	75 0e                	jne    834 <find_string+0xd1>
 826:	83 45 f8 01          	add    DWORD PTR [rbp-0x8],0x1
 82a:	8b 45 f8             	mov    eax,DWORD PTR [rbp-0x8]
 82d:	3b 45 f0             	cmp    eax,DWORD PTR [rbp-0x10]
 830:	7c 90                	jl     7c2 <find_string+0x5f>
 832:	eb 01                	jmp    835 <find_string+0xd2>
 834:	90                   	nop
 835:	83 45 fc 01          	add    DWORD PTR [rbp-0x4],0x1
 839:	8b 45 fc             	mov    eax,DWORD PTR [rbp-0x4]
 83c:	3b 45 f4             	cmp    eax,DWORD PTR [rbp-0xc]
 83f:	0f 8e 74 ff ff ff    	jle    7b9 <find_string+0x56>
 845:	b8 ff ff ff ff       	mov    eax,0xffffffff
 84a:	c9                   	leave
 84b:	c3                   	ret

000000000000084c <split_lines>:
 84c:	f3 0f 1e fa          	endbr64
 850:	55                   	push   rbp
 851:	48 89 e5             	mov    rbp,rsp
 854:	41 54                	push   r12
 856:	53                   	push   rbx
 857:	48 83 ec 50          	sub    rsp,0x50
 85b:	48 89 7d a8          	mov    QWORD PTR [rbp-0x58],rdi
 85f:	48 89 75 a0          	mov    QWORD PTR [rbp-0x60],rsi
 863:	48 89 e0             	mov    rax,rsp
 866:	49 89 c4             	mov    r12,rax
 869:	48 83 7d a8 00       	cmp    QWORD PTR [rbp-0x58],0x0
 86e:	75 0a                	jne    87a <split_lines+0x2e>
 870:	b8 00 00 00 00       	mov    eax,0x0
 875:	e9 58 02 00 00       	jmp    ad2 <split_lines+0x286>
 87a:	48 8b 45 a8          	mov    rax,QWORD PTR [rbp-0x58]
 87e:	48 89 c7             	mov    rdi,rax
 881:	e8 00 00 00 00       	call   886 <split_lines+0x3a>
 886:	89 45 dc             	mov    DWORD PTR [rbp-0x24],eax
 889:	48 8b 45 a8          	mov    rax,QWORD PTR [rbp-0x58]
 88d:	be 0a 00 00 00       	mov    esi,0xa
 892:	48 89 c7             	mov    rdi,rax
 895:	e8 00 00 00 00       	call   89a <split_lines+0x4e>
 89a:	89 45 d8             	mov    DWORD PTR [rbp-0x28],eax
 89d:	8b 45 d8             	mov    eax,DWORD PTR [rbp-0x28]
 8a0:	83 c0 01             	add    eax,0x1
 8a3:	89 c6                	mov    esi,eax
 8a5:	bf 08 00 00 00       	mov    edi,0x8
 8aa:	e8 00 00 00 00       	call   8af <split_lines+0x63>
 8af:	48 89 45 e8          	mov    QWORD PTR [rbp-0x18],rax
 8b3:	48 8b 45 a0          	mov    rax,QWORD PTR [rbp-0x60]
 8b7:	c7 00 00 00 00 00    	mov    DWORD PTR [rax],0x0
 8bd:	c7 45 e4 00 00 00 00 	mov    DWORD PTR [rbp-0x1c],0x0
 8c4:	8b 45 dc             	mov    eax,DWORD PTR [rbp-0x24]
 8c7:	48 63 d0             	movsxd rdx,eax
 8ca:	48 83 ea 01          	sub    rdx,0x1
 8ce:	48 89 55 d0          	mov    QWORD PTR [rbp-0x30],rdx
 8d2:	48 98                	cdqe
 8d4:	ba 10 00 00 00       	mov    edx,0x10
 8d9:	48 83 ea 01          	sub    rdx,0x1
 8dd:	48 01 d0             	add    rax,rdx
 8e0:	bb 10 00 00 00       	mov    ebx,0x10
 8e5:	ba 00 00 00 00       	mov    edx,0x0
 8ea:	48 f7 f3             	div    rbx
 8ed:	48 6b c0 10          	imul   rax,rax,0x10
 8f1:	48 89 c1             	mov    rcx,rax
 8f4:	48 81 e1 00 f0 ff ff 	and    rcx,0xfffffffffffff000
 8fb:	48 89 e2             	mov    rdx,rsp
 8fe:	48 29 ca             	sub    rdx,rcx
 901:	48 39 d4             	cmp    rsp,rdx
 904:	74 12                	je     918 <split_lines+0xcc>
 906:	48 81 ec 00 10 00 00 	sub    rsp,0x1000
 90d:	48 83 8c 24 f8 0f 00 	or     QWORD PTR [rsp+0xff8],0x0
 914:	00 00 
 916:	eb e9                	jmp    901 <split_lines+0xb5>
 918:	48 89 c2             	mov    rdx,rax
 91b:	81 e2 ff 0f 00 00    	and    edx,0xfff
 921:	48 29 d4             	sub    rsp,rdx
 924:	48 89 c2             	mov    rdx,rax
 927:	81 e2 ff 0f 00 00    	and    edx,0xfff
 92d:	48 85 d2             	test   rdx,rdx
 930:	74 10                	je     942 <split_lines+0xf6>
 932:	25 ff 0f 00 00       	and    eax,0xfff
 937:	48 83 e8 08          	sub    rax,0x8
 93b:	48 01 e0             	add    rax,rsp
 93e:	48 83 08 00          	or     QWORD PTR [rax],0x0
 942:	48 89 e0             	mov    rax,rsp
 945:	48 83 c0 00          	add    rax,0x0
 949:	48 89 45 c8          	mov    QWORD PTR [rbp-0x38],rax
 94d:	c7 45 e0 00 00 00 00 	mov    DWORD PTR [rbp-0x20],0x0
 954:	e9 44 01 00 00       	jmp    a9d <split_lines+0x251>
 959:	8b 45 e0             	mov    eax,DWORD PTR [rbp-0x20]
 95c:	48 63 d0             	movsxd rdx,eax
 95f:	48 8b 45 a8          	mov    rax,QWORD PTR [rbp-0x58]
 963:	48 01 d0             	add    rax,rdx
 966:	0f b6 00             	movzx  eax,BYTE PTR [rax]
 969:	84 c0                	test   al,al
 96b:	0f 84 3a 01 00 00    	je     aab <split_lines+0x25f>
 971:	8b 45 e0             	mov    eax,DWORD PTR [rbp-0x20]
 974:	48 63 d0             	movsxd rdx,eax
 977:	48 8b 45 a8          	mov    rax,QWORD PTR [rbp-0x58]
 97b:	48 01 d0             	add    rax,rdx
 97e:	0f b6 00             	movzx  eax,BYTE PTR [rax]
 981:	3c 0a                	cmp    al,0xa
 983:	0f 85 e0 00 00 00    	jne    a69 <split_lines+0x21d>
 989:	48 8b 45 c8          	mov    rax,QWORD PTR [rbp-0x38]
 98d:	48 89 c7             	mov    rdi,rax
 990:	e8 00 00 00 00       	call   995 <split_lines+0x149>
 995:	89 45 c4             	mov    DWORD PTR [rbp-0x3c],eax
 998:	83 7d c4 00          	cmp    DWORD PTR [rbp-0x3c],0x0
 99c:	75 0f                	jne    9ad <split_lines+0x161>
 99e:	48 8b 45 c8          	mov    rax,QWORD PTR [rbp-0x38]
 9a2:	c6 00 20             	mov    BYTE PTR [rax],0x20
 9a5:	48 8b 45 c8          	mov    rax,QWORD PTR [rbp-0x38]
 9a9:	c6 40 01 00          	mov    BYTE PTR [rax+0x1],0x0
 9ad:	48 8b 55 c8          	mov    rdx,QWORD PTR [rbp-0x38]
 9b1:	8b 45 e4             	mov    eax,DWORD PTR [rbp-0x1c]
 9b4:	48 98                	cdqe
 9b6:	c6 04 02 00          	mov    BYTE PTR [rdx+rax*1],0x0
 9ba:	48 8b 45 a0          	mov    rax,QWORD PTR [rbp-0x60]
 9be:	8b 00                	mov    eax,DWORD PTR [rax]
 9c0:	8d 48 01             	lea    ecx,[rax+0x1]
 9c3:	48 8b 55 a0          	mov    rdx,QWORD PTR [rbp-0x60]
 9c7:	89 0a                	mov    DWORD PTR [rdx],ecx
 9c9:	48 98                	cdqe
 9cb:	48 8d 14 c5 00 00 00 	lea    rdx,[rax*8+0x0]
 9d2:	00 
 9d3:	48 8b 45 e8          	mov    rax,QWORD PTR [rbp-0x18]
 9d7:	48 8d 1c 02          	lea    rbx,[rdx+rax*1]
 9db:	48 8b 45 c8          	mov    rax,QWORD PTR [rbp-0x38]
 9df:	48 89 c7             	mov    rdi,rax
 9e2:	e8 00 00 00 00       	call   9e7 <split_lines+0x19b>
 9e7:	48 89 03             	mov    QWORD PTR [rbx],rax
 9ea:	48 8b 45 a0          	mov    rax,QWORD PTR [rbp-0x60]
 9ee:	8b 00                	mov    eax,DWORD PTR [rax]
 9f0:	83 c0 01             	add    eax,0x1
 9f3:	48 98                	cdqe
 9f5:	c1 e0 03             	shl    eax,0x3
 9f8:	89 c2                	mov    edx,eax
 9fa:	48 8b 45 e8          	mov    rax,QWORD PTR [rbp-0x18]
 9fe:	89 d6                	mov    esi,edx
 a00:	48 89 c7             	mov    rdi,rax
 a03:	e8 00 00 00 00       	call   a08 <split_lines+0x1bc>
 a08:	48 89 45 b8          	mov    QWORD PTR [rbp-0x48],rax
 a0c:	48 8b 45 e8          	mov    rax,QWORD PTR [rbp-0x18]
 a10:	be 01 00 00 00       	mov    esi,0x1
 a15:	48 89 c7             	mov    rdi,rax
 a18:	e8 00 00 00 00       	call   a1d <split_lines+0x1d1>
 a1d:	48 8b 45 b8          	mov    rax,QWORD PTR [rbp-0x48]
 a21:	48 89 45 e8          	mov    QWORD PTR [rbp-0x18],rax
 a25:	48 83 7d e8 00       	cmp    QWORD PTR [rbp-0x18],0x0
 a2a:	75 0f                	jne    a3b <split_lines+0x1ef>
 a2c:	48 8d 05 00 00 00 00 	lea    rax,[rip+0x0]        # a33 <split_lines+0x1e7>
 a33:	48 89 c7             	mov    rdi,rax
 a36:	e8 00 00 00 00       	call   a3b <split_lines+0x1ef>
 a3b:	48 8b 45 a0          	mov    rax,QWORD PTR [rbp-0x60]
 a3f:	8b 00                	mov    eax,DWORD PTR [rax]
 a41:	48 98                	cdqe
 a43:	48 8d 14 c5 00 00 00 	lea    rdx,[rax*8+0x0]
 a4a:	00 
 a4b:	48 8b 45 e8          	mov    rax,QWORD PTR [rbp-0x18]
 a4f:	48 01 d0             	add    rax,rdx
 a52:	48 c7 00 00 00 00 00 	mov    QWORD PTR [rax],0x0
 a59:	48 8b 45 c8          	mov    rax,QWORD PTR [rbp-0x38]
 a5d:	c6 00 00             	mov    BYTE PTR [rax],0x0
 a60:	c7 45 e4 00 00 00 00 	mov    DWORD PTR [rbp-0x1c],0x0
 a67:	eb 30                	jmp    a99 <split_lines+0x24d>
 a69:	8b 45 e0             	mov    eax,DWORD PTR [rbp-0x20]
 a6c:	48 63 d0             	movsxd rdx,eax
 a6f:	48 8b 45 a8          	mov    rax,QWORD PTR [rbp-0x58]
 a73:	48 8d 0c 02          	lea    rcx,[rdx+rax*1]
 a77:	8b 45 e4             	mov    eax,DWORD PTR [rbp-0x1c]
 a7a:	8d 50 01             	lea    edx,[rax+0x1]
 a7d:	89 55 e4             	mov    DWORD PTR [rbp-0x1c],edx
 a80:	0f b6 09             	movzx  ecx,BYTE PTR [rcx]
 a83:	48 8b 55 c8          	mov    rdx,QWORD PTR [rbp-0x38]
 a87:	48 98                	cdqe
 a89:	88 0c 02             	mov    BYTE PTR [rdx+rax*1],cl
 a8c:	48 8b 55 c8          	mov    rdx,QWORD PTR [rbp-0x38]
 a90:	8b 45 e4             	mov    eax,DWORD PTR [rbp-0x1c]
 a93:	48 98                	cdqe
 a95:	c6 04 02 00          	mov    BYTE PTR [rdx+rax*1],0x0
 a99:	83 45 e0 01          	add    DWORD PTR [rbp-0x20],0x1
 a9d:	8b 45 e0             	mov    eax,DWORD PTR [rbp-0x20]
 aa0:	3b 45 dc             	cmp    eax,DWORD PTR [rbp-0x24]
 aa3:	0f 8c b0 fe ff ff    	jl     959 <split_lines+0x10d>
 aa9:	eb 01                	jmp    aac <split_lines+0x260>
 aab:	90                   	nop
 aac:	48 8b 45 a0          	mov    rax,QWORD PTR [rbp-0x60]
 ab0:	8b 00                	mov    eax,DWORD PTR [rax]
 ab2:	85 c0                	test   eax,eax
 ab4:	7e 06                	jle    abc <split_lines+0x270>
 ab6:	48 8b 45 e8          	mov    rax,QWORD PTR [rbp-0x18]
 aba:	eb 16                	jmp    ad2 <split_lines+0x286>
 abc:	48 8b 45 e8          	mov    rax,QWORD PTR [rbp-0x18]
 ac0:	be 01 00 00 00       	mov    esi,0x1
 ac5:	48 89 c7             	mov    rdi,rax
 ac8:	e8 00 00 00 00       	call   acd <split_lines+0x281>
 acd:	b8 00 00 00 00       	mov    eax,0x0
 ad2:	4c 89 e4             	mov    rsp,r12
 ad5:	48 8d 65 f0          	lea    rsp,[rbp-0x10]
 ad9:	5b                   	pop    rbx
 ada:	41 5c                	pop    r12
 adc:	5d                   	pop    rbp
 add:	c3                   	ret

0000000000000ade <split_string>:
 ade:	f3 0f 1e fa          	endbr64
 ae2:	55                   	push   rbp
 ae3:	48 89 e5             	mov    rbp,rsp
 ae6:	41 54                	push   r12
 ae8:	53                   	push   rbx
 ae9:	48 83 ec 60          	sub    rsp,0x60
 aed:	48 89 7d a8          	mov    QWORD PTR [rbp-0x58],rdi
 af1:	89 f0                	mov    eax,esi
 af3:	48 89 55 98          	mov    QWORD PTR [rbp-0x68],rdx
 af7:	88 45 a4             	mov    BYTE PTR [rbp-0x5c],al
 afa:	48 89 e0             	mov    rax,rsp
 afd:	49 89 c4             	mov    r12,rax
 b00:	48 83 7d a8 00       	cmp    QWORD PTR [rbp-0x58],0x0
 b05:	75 0a                	jne    b11 <split_string+0x33>
 b07:	b8 00 00 00 00       	mov    eax,0x0
 b0c:	e9 4c 02 00 00       	jmp    d5d <split_string+0x27f>
 b11:	48 8b 45 a8          	mov    rax,QWORD PTR [rbp-0x58]
 b15:	48 89 c7             	mov    rdi,rax
 b18:	e8 00 00 00 00       	call   b1d <split_string+0x3f>
 b1d:	89 45 dc             	mov    DWORD PTR [rbp-0x24],eax
 b20:	48 8b 45 a8          	mov    rax,QWORD PTR [rbp-0x58]
 b24:	be 0a 00 00 00       	mov    esi,0xa
 b29:	48 89 c7             	mov    rdi,rax
 b2c:	e8 00 00 00 00       	call   b31 <split_string+0x53>
 b31:	89 45 d8             	mov    DWORD PTR [rbp-0x28],eax
 b34:	8b 45 d8             	mov    eax,DWORD PTR [rbp-0x28]
 b37:	83 c0 01             	add    eax,0x1
 b3a:	89 c6                	mov    esi,eax
 b3c:	bf 08 00 00 00       	mov    edi,0x8
 b41:	e8 00 00 00 00       	call   b46 <split_string+0x68>
 b46:	48 89 45 e8          	mov    QWORD PTR [rbp-0x18],rax
 b4a:	48 8b 45 98          	mov    rax,QWORD PTR [rbp-0x68]
 b4e:	c7 00 00 00 00 00    	mov    DWORD PTR [rax],0x0
 b54:	c7 45 e4 00 00 00 00 	mov    DWORD PTR [rbp-0x1c],0x0
 b5b:	8b 45 dc             	mov    eax,DWORD PTR [rbp-0x24]
 b5e:	48 63 d0             	movsxd rdx,eax
 b61:	48 83 ea 01          	sub    rdx,0x1
 b65:	48 89 55 d0          	mov    QWORD PTR [rbp-0x30],rdx
 b69:	48 98                	cdqe
 b6b:	ba 10 00 00 00       	mov    edx,0x10
 b70:	48 83 ea 01          	sub    rdx,0x1
 b74:	48 01 d0             	add    rax,rdx
 b77:	bb 10 00 00 00       	mov    ebx,0x10
 b7c:	ba 00 00 00 00       	mov    edx,0x0
 b81:	48 f7 f3             	div    rbx
 b84:	48 6b c0 10          	imul   rax,rax,0x10
 b88:	48 89 c1             	mov    rcx,rax
 b8b:	48 81 e1 00 f0 ff ff 	and    rcx,0xfffffffffffff000
 b92:	48 89 e2             	mov    rdx,rsp
 b95:	48 29 ca             	sub    rdx,rcx
 b98:	48 39 d4             	cmp    rsp,rdx
 b9b:	74 12                	je     baf <split_string+0xd1>
 b9d:	48 81 ec 00 10 00 00 	sub    rsp,0x1000
 ba4:	48 83 8c 24 f8 0f 00 	or     QWORD PTR [rsp+0xff8],0x0
 bab:	00 00 
 bad:	eb e9                	jmp    b98 <split_string+0xba>
 baf:	48 89 c2             	mov    rdx,rax
 bb2:	81 e2 ff 0f 00 00    	and    edx,0xfff
 bb8:	48 29 d4             	sub    rsp,rdx
 bbb:	48 89 c2             	mov    rdx,rax
 bbe:	81 e2 ff 0f 00 00    	and    edx,0xfff
 bc4:	48 85 d2             	test   rdx,rdx
 bc7:	74 10                	je     bd9 <split_string+0xfb>
 bc9:	25 ff 0f 00 00       	and    eax,0xfff
 bce:	48 83 e8 08          	sub    rax,0x8
 bd2:	48 01 e0             	add    rax,rsp
 bd5:	48 83 08 00          	or     QWORD PTR [rax],0x0
 bd9:	48 89 e0             	mov    rax,rsp
 bdc:	48 83 c0 00          	add    rax,0x0
 be0:	48 89 45 c8          	mov    QWORD PTR [rbp-0x38],rax
 be4:	c7 45 e0 00 00 00 00 	mov    DWORD PTR [rbp-0x20],0x0
 beb:	e9 38 01 00 00       	jmp    d28 <split_string+0x24a>
 bf0:	8b 45 e0             	mov    eax,DWORD PTR [rbp-0x20]
 bf3:	48 63 d0             	movsxd rdx,eax
 bf6:	48 8b 45 a8          	mov    rax,QWORD PTR [rbp-0x58]
 bfa:	48 01 d0             	add    rax,rdx
 bfd:	0f b6 00             	movzx  eax,BYTE PTR [rax]
 c00:	84 c0                	test   al,al
 c02:	0f 84 2e 01 00 00    	je     d36 <split_string+0x258>
 c08:	8b 45 e0             	mov    eax,DWORD PTR [rbp-0x20]
 c0b:	48 63 d0             	movsxd rdx,eax
 c0e:	48 8b 45 a8          	mov    rax,QWORD PTR [rbp-0x58]
 c12:	48 01 d0             	add    rax,rdx
 c15:	0f b6 00             	movzx  eax,BYTE PTR [rax]
 c18:	38 45 a4             	cmp    BYTE PTR [rbp-0x5c],al
 c1b:	0f 85 d3 00 00 00    	jne    cf4 <split_string+0x216>
 c21:	48 8b 45 c8          	mov    rax,QWORD PTR [rbp-0x38]
 c25:	48 89 c7             	mov    rdi,rax
 c28:	e8 00 00 00 00       	call   c2d <split_string+0x14f>
 c2d:	89 45 c4             	mov    DWORD PTR [rbp-0x3c],eax
 c30:	83 7d c4 00          	cmp    DWORD PTR [rbp-0x3c],0x0
 c34:	75 0f                	jne    c45 <split_string+0x167>
 c36:	48 8b 45 c8          	mov    rax,QWORD PTR [rbp-0x38]
 c3a:	c6 00 20             	mov    BYTE PTR [rax],0x20
 c3d:	48 8b 45 c8          	mov    rax,QWORD PTR [rbp-0x38]
 c41:	c6 40 01 00          	mov    BYTE PTR [rax+0x1],0x0
 c45:	48 8b 45 98          	mov    rax,QWORD PTR [rbp-0x68]
 c49:	8b 00                	mov    eax,DWORD PTR [rax]
 c4b:	8d 48 01             	lea    ecx,[rax+0x1]
 c4e:	48 8b 55 98          	mov    rdx,QWORD PTR [rbp-0x68]
 c52:	89 0a                	mov    DWORD PTR [rdx],ecx
 c54:	48 98                	cdqe
 c56:	48 8d 14 c5 00 00 00 	lea    rdx,[rax*8+0x0]
 c5d:	00 
 c5e:	48 8b 45 e8          	mov    rax,QWORD PTR [rbp-0x18]
 c62:	48 8d 1c 02          	lea    rbx,[rdx+rax*1]
 c66:	48 8b 45 c8          	mov    rax,QWORD PTR [rbp-0x38]
 c6a:	48 89 c7             	mov    rdi,rax
 c6d:	e8 00 00 00 00       	call   c72 <split_string+0x194>
 c72:	48 89 03             	mov    QWORD PTR [rbx],rax
 c75:	48 8b 45 98          	mov    rax,QWORD PTR [rbp-0x68]
 c79:	8b 00                	mov    eax,DWORD PTR [rax]
 c7b:	83 c0 01             	add    eax,0x1
 c7e:	48 98                	cdqe
 c80:	c1 e0 03             	shl    eax,0x3
 c83:	89 c2                	mov    edx,eax
 c85:	48 8b 45 e8          	mov    rax,QWORD PTR [rbp-0x18]
 c89:	89 d6                	mov    esi,edx
 c8b:	48 89 c7             	mov    rdi,rax
 c8e:	e8 00 00 00 00       	call   c93 <split_string+0x1b5>
 c93:	48 89 45 b8          	mov    QWORD PTR [rbp-0x48],rax
 c97:	48 8b 45 e8          	mov    rax,QWORD PTR [rbp-0x18]
 c9b:	be 01 00 00 00       	mov    esi,0x1
 ca0:	48 89 c7             	mov    rdi,rax
 ca3:	e8 00 00 00 00       	call   ca8 <split_string+0x1ca>
 ca8:	48 8b 45 b8          	mov    rax,QWORD PTR [rbp-0x48]
 cac:	48 89 45 e8          	mov    QWORD PTR [rbp-0x18],rax
 cb0:	48 83 7d e8 00       	cmp    QWORD PTR [rbp-0x18],0x0
 cb5:	75 0f                	jne    cc6 <split_string+0x1e8>
 cb7:	48 8d 05 00 00 00 00 	lea    rax,[rip+0x0]        # cbe <split_string+0x1e0>
 cbe:	48 89 c7             	mov    rdi,rax
 cc1:	e8 00 00 00 00       	call   cc6 <split_string+0x1e8>
 cc6:	48 8b 45 98          	mov    rax,QWORD PTR [rbp-0x68]
 cca:	8b 00                	mov    eax,DWORD PTR [rax]
 ccc:	48 98                	cdqe
 cce:	48 8d 14 c5 00 00 00 	lea    rdx,[rax*8+0x0]
 cd5:	00 
 cd6:	48 8b 45 e8          	mov    rax,QWORD PTR [rbp-0x18]
 cda:	48 01 d0             	add    rax,rdx
 cdd:	48 c7 00 00 00 00 00 	mov    QWORD PTR [rax],0x0
 ce4:	48 8b 45 c8          	mov    rax,QWORD PTR [rbp-0x38]
 ce8:	c6 00 00             	mov    BYTE PTR [rax],0x0
 ceb:	c7 45 e4 00 00 00 00 	mov    DWORD PTR [rbp-0x1c],0x0
 cf2:	eb 30                	jmp    d24 <split_string+0x246>
 cf4:	8b 45 e0             	mov    eax,DWORD PTR [rbp-0x20]
 cf7:	48 63 d0             	movsxd rdx,eax
 cfa:	48 8b 45 a8          	mov    rax,QWORD PTR [rbp-0x58]
 cfe:	48 8d 0c 02          	lea    rcx,[rdx+rax*1]
 d02:	8b 45 e4             	mov    eax,DWORD PTR [rbp-0x1c]
 d05:	8d 50 01             	lea    edx,[rax+0x1]
 d08:	89 55 e4             	mov    DWORD PTR [rbp-0x1c],edx
 d0b:	0f b6 09             	movzx  ecx,BYTE PTR [rcx]
 d0e:	48 8b 55 c8          	mov    rdx,QWORD PTR [rbp-0x38]
 d12:	48 98                	cdqe
 d14:	88 0c 02             	mov    BYTE PTR [rdx+rax*1],cl
 d17:	48 8b 55 c8          	mov    rdx,QWORD PTR [rbp-0x38]
 d1b:	8b 45 e4             	mov    eax,DWORD PTR [rbp-0x1c]
 d1e:	48 98                	cdqe
 d20:	c6 04 02 00          	mov    BYTE PTR [rdx+rax*1],0x0
 d24:	83 45 e0 01          	add    DWORD PTR [rbp-0x20],0x1
 d28:	8b 45 e0             	mov    eax,DWORD PTR [rbp-0x20]
 d2b:	3b 45 dc             	cmp    eax,DWORD PTR [rbp-0x24]
 d2e:	0f 8c bc fe ff ff    	jl     bf0 <split_string+0x112>
 d34:	eb 01                	jmp    d37 <split_string+0x259>
 d36:	90                   	nop
 d37:	48 8b 45 98          	mov    rax,QWORD PTR [rbp-0x68]
 d3b:	8b 00                	mov    eax,DWORD PTR [rax]
 d3d:	85 c0                	test   eax,eax
 d3f:	7e 06                	jle    d47 <split_string+0x269>
 d41:	48 8b 45 e8          	mov    rax,QWORD PTR [rbp-0x18]
 d45:	eb 16                	jmp    d5d <split_string+0x27f>
 d47:	48 8b 45 e8          	mov    rax,QWORD PTR [rbp-0x18]
 d4b:	be 01 00 00 00       	mov    esi,0x1
 d50:	48 89 c7             	mov    rdi,rax
 d53:	e8 00 00 00 00       	call   d58 <split_string+0x27a>
 d58:	b8 00 00 00 00       	mov    eax,0x0
 d5d:	4c 89 e4             	mov    rsp,r12
 d60:	48 8d 65 f0          	lea    rsp,[rbp-0x10]
 d64:	5b                   	pop    rbx
 d65:	41 5c                	pop    r12
 d67:	5d                   	pop    rbp
 d68:	c3                   	ret

0000000000000d69 <get_sub_str>:
 d69:	f3 0f 1e fa          	endbr64
 d6d:	55                   	push   rbp
 d6e:	48 89 e5             	mov    rbp,rsp
 d71:	48 83 ec 30          	sub    rsp,0x30
 d75:	48 89 7d d8          	mov    QWORD PTR [rbp-0x28],rdi
 d79:	89 75 d4             	mov    DWORD PTR [rbp-0x2c],esi
 d7c:	89 55 d0             	mov    DWORD PTR [rbp-0x30],edx
 d7f:	8b 45 d0             	mov    eax,DWORD PTR [rbp-0x30]
 d82:	2b 45 d4             	sub    eax,DWORD PTR [rbp-0x2c]
 d85:	89 45 f4             	mov    DWORD PTR [rbp-0xc],eax
 d88:	8b 45 f4             	mov    eax,DWORD PTR [rbp-0xc]
 d8b:	83 c0 01             	add    eax,0x1
 d8e:	89 c6                	mov    esi,eax
 d90:	bf 00 00 00 00       	mov    edi,0x0
 d95:	e8 00 00 00 00       	call   d9a <get_sub_str+0x31>
 d9a:	48 89 45 e8          	mov    QWORD PTR [rbp-0x18],rax
 d9e:	c7 45 fc 00 00 00 00 	mov    DWORD PTR [rbp-0x4],0x0
 da5:	c7 45 f8 00 00 00 00 	mov    DWORD PTR [rbp-0x8],0x0
 dac:	eb 3a                	jmp    de8 <get_sub_str+0x7f>
 dae:	8b 45 f8             	mov    eax,DWORD PTR [rbp-0x8]
 db1:	3b 45 d4             	cmp    eax,DWORD PTR [rbp-0x2c]
 db4:	7d 08                	jge    dbe <get_sub_str+0x55>
 db6:	8b 45 f8             	mov    eax,DWORD PTR [rbp-0x8]
 db9:	3b 45 d0             	cmp    eax,DWORD PTR [rbp-0x30]
 dbc:	7f 26                	jg     de4 <get_sub_str+0x7b>
 dbe:	8b 45 f8             	mov    eax,DWORD PTR [rbp-0x8]
 dc1:	48 63 d0             	movsxd rdx,eax
 dc4:	48 8b 45 d8          	mov    rax,QWORD PTR [rbp-0x28]
 dc8:	48 8d 0c 02          	lea    rcx,[rdx+rax*1]
 dcc:	8b 45 fc             	mov    eax,DWORD PTR [rbp-0x4]
 dcf:	8d 50 01             	lea    edx,[rax+0x1]
 dd2:	89 55 fc             	mov    DWORD PTR [rbp-0x4],edx
 dd5:	48 63 d0             	movsxd rdx,eax
 dd8:	48 8b 45 e8          	mov    rax,QWORD PTR [rbp-0x18]
 ddc:	48 01 c2             	add    rdx,rax
 ddf:	0f b6 01             	movzx  eax,BYTE PTR [rcx]
 de2:	88 02                	mov    BYTE PTR [rdx],al
 de4:	83 45 f8 01          	add    DWORD PTR [rbp-0x8],0x1
 de8:	8b 45 f8             	mov    eax,DWORD PTR [rbp-0x8]
 deb:	48 63 d0             	movsxd rdx,eax
 dee:	48 8b 45 d8          	mov    rax,QWORD PTR [rbp-0x28]
 df2:	48 01 d0             	add    rax,rdx
 df5:	0f b6 00             	movzx  eax,BYTE PTR [rax]
 df8:	84 c0                	test   al,al
 dfa:	75 b2                	jne    dae <get_sub_str+0x45>
 dfc:	48 8b 45 e8          	mov    rax,QWORD PTR [rbp-0x18]
 e00:	c9                   	leave
 e01:	c3                   	ret

0000000000000e02 <is_empty>:
 e02:	f3 0f 1e fa          	endbr64
 e06:	55                   	push   rbp
 e07:	48 89 e5             	mov    rbp,rsp
 e0a:	48 89 7d e8          	mov    QWORD PTR [rbp-0x18],rdi
 e0e:	48 83 7d e8 00       	cmp    QWORD PTR [rbp-0x18],0x0
 e13:	75 07                	jne    e1c <is_empty+0x1a>
 e15:	b8 00 00 00 00       	mov    eax,0x0
 e1a:	eb 41                	jmp    e5d <is_empty+0x5b>
 e1c:	c7 45 fc 00 00 00 00 	mov    DWORD PTR [rbp-0x4],0x0
 e23:	eb 1f                	jmp    e44 <is_empty+0x42>
 e25:	8b 45 fc             	mov    eax,DWORD PTR [rbp-0x4]
 e28:	48 63 d0             	movsxd rdx,eax
 e2b:	48 8b 45 e8          	mov    rax,QWORD PTR [rbp-0x18]
 e2f:	48 01 d0             	add    rax,rdx
 e32:	0f b6 00             	movzx  eax,BYTE PTR [rax]
 e35:	3c 20                	cmp    al,0x20
 e37:	74 07                	je     e40 <is_empty+0x3e>
 e39:	b8 00 00 00 00       	mov    eax,0x0
 e3e:	eb 1d                	jmp    e5d <is_empty+0x5b>
 e40:	83 45 fc 01          	add    DWORD PTR [rbp-0x4],0x1
 e44:	8b 45 fc             	mov    eax,DWORD PTR [rbp-0x4]
 e47:	48 63 d0             	movsxd rdx,eax
 e4a:	48 8b 45 e8          	mov    rax,QWORD PTR [rbp-0x18]
 e4e:	48 01 d0             	add    rax,rdx
 e51:	0f b6 00             	movzx  eax,BYTE PTR [rax]
 e54:	84 c0                	test   al,al
 e56:	75 cd                	jne    e25 <is_empty+0x23>
 e58:	b8 01 00 00 00       	mov    eax,0x1
 e5d:	5d                   	pop    rbp
 e5e:	c3                   	ret

0000000000000e5f <byte_to_hex>:
 e5f:	f3 0f 1e fa          	endbr64
 e63:	55                   	push   rbp
 e64:	48 89 e5             	mov    rbp,rsp
 e67:	89 f8                	mov    eax,edi
 e69:	48 89 75 d0          	mov    QWORD PTR [rbp-0x30],rsi
 e6d:	88 45 dc             	mov    BYTE PTR [rbp-0x24],al
 e70:	48 b8 30 31 32 33 34 	movabs rax,0x3736353433323130
 e77:	35 36 37 
 e7a:	48 ba 38 39 41 42 43 	movabs rdx,0x4645444342413938
 e81:	44 45 46 
 e84:	48 89 45 e0          	mov    QWORD PTR [rbp-0x20],rax
 e88:	48 89 55 e8          	mov    QWORD PTR [rbp-0x18],rdx
 e8c:	c6 45 f0 00          	mov    BYTE PTR [rbp-0x10],0x0
 e90:	0f b6 45 dc          	movzx  eax,BYTE PTR [rbp-0x24]
 e94:	c0 e8 04             	shr    al,0x4
 e97:	0f b6 c0             	movzx  eax,al
 e9a:	83 e0 0f             	and    eax,0xf
 e9d:	48 98                	cdqe
 e9f:	0f b6 54 05 e0       	movzx  edx,BYTE PTR [rbp+rax*1-0x20]
 ea4:	48 8b 45 d0          	mov    rax,QWORD PTR [rbp-0x30]
 ea8:	88 10                	mov    BYTE PTR [rax],dl
 eaa:	0f b6 45 dc          	movzx  eax,BYTE PTR [rbp-0x24]
 eae:	83 e0 0f             	and    eax,0xf
 eb1:	89 c1                	mov    ecx,eax
 eb3:	48 8b 45 d0          	mov    rax,QWORD PTR [rbp-0x30]
 eb7:	48 8d 50 01          	lea    rdx,[rax+0x1]
 ebb:	48 63 c1             	movsxd rax,ecx
 ebe:	0f b6 44 05 e0       	movzx  eax,BYTE PTR [rbp+rax*1-0x20]
 ec3:	88 02                	mov    BYTE PTR [rdx],al
 ec5:	48 8b 45 d0          	mov    rax,QWORD PTR [rbp-0x30]
 ec9:	48 83 c0 02          	add    rax,0x2
 ecd:	c6 00 00             	mov    BYTE PTR [rax],0x0
 ed0:	90                   	nop
 ed1:	5d                   	pop    rbp
 ed2:	c3                   	ret

thread.o:     file format elf64-x86-64


Disassembly of section .text:

0000000000000000 <start_thread>:
   0:	f3 0f 1e fa          	endbr64
   4:	55                   	push   rbp
   5:	48 89 e5             	mov    rbp,rsp
   8:	48 81 ec c0 00 00 00 	sub    rsp,0xc0
   f:	48 89 bd 58 ff ff ff 	mov    QWORD PTR [rbp-0xa8],rdi
  16:	48 89 b5 50 ff ff ff 	mov    QWORD PTR [rbp-0xb0],rsi
  1d:	48 89 95 48 ff ff ff 	mov    QWORD PTR [rbp-0xb8],rdx
  24:	89 8d 44 ff ff ff    	mov    DWORD PTR [rbp-0xbc],ecx
  2a:	48 83 bd 50 ff ff ff 	cmp    QWORD PTR [rbp-0xb0],0x0
  31:	00 
  32:	75 17                	jne    4b <start_thread+0x4b>
  34:	48 8b 85 58 ff ff ff 	mov    rax,QWORD PTR [rbp-0xa8]
  3b:	66 0f ef c0          	pxor   xmm0,xmm0
  3f:	0f 11 00             	movups XMMWORD PTR [rax],xmm0
  42:	0f 11 40 10          	movups XMMWORD PTR [rax+0x10],xmm0
  46:	e9 de 01 00 00       	jmp    229 <start_thread+0x229>
  4b:	48 8b 85 50 ff ff ff 	mov    rax,QWORD PTR [rbp-0xb0]
  52:	48 89 45 e0          	mov    QWORD PTR [rbp-0x20],rax
  56:	48 8b 85 48 ff ff ff 	mov    rax,QWORD PTR [rbp-0xb8]
  5d:	48 89 45 e8          	mov    QWORD PTR [rbp-0x18],rax
  61:	8b 85 44 ff ff ff    	mov    eax,DWORD PTR [rbp-0xbc]
  67:	88 45 f0             	mov    BYTE PTR [rbp-0x10],al
  6a:	c6 45 f1 00          	mov    BYTE PTR [rbp-0xf],0x0
  6e:	48 83 ec 08          	sub    rsp,0x8
  72:	6a 39                	push   0x39
  74:	49 c7 c1 ff ff ff ff 	mov    r9,0xffffffffffffffff
  7b:	49 c7 c0 ff ff ff ff 	mov    r8,0xffffffffffffffff
  82:	48 c7 c1 ff ff ff ff 	mov    rcx,0xffffffffffffffff
  89:	ba 00 00 00 00       	mov    edx,0x0
  8e:	be 00 00 00 00       	mov    esi,0x0
  93:	bf 00 00 00 00       	mov    edi,0x0
  98:	e8 00 00 00 00       	call   9d <start_thread+0x9d>
  9d:	48 83 c4 10          	add    rsp,0x10
  a1:	89 45 f4             	mov    DWORD PTR [rbp-0xc],eax
  a4:	48 83 ec 08          	sub    rsp,0x8
  a8:	68 ba 00 00 00       	push   0xba
  ad:	49 c7 c1 ff ff ff ff 	mov    r9,0xffffffffffffffff
  b4:	49 c7 c0 ff ff ff ff 	mov    r8,0xffffffffffffffff
  bb:	48 c7 c1 ff ff ff ff 	mov    rcx,0xffffffffffffffff
  c2:	ba 00 00 00 00       	mov    edx,0x0
  c7:	be 00 00 00 00       	mov    esi,0x0
  cc:	bf 00 00 00 00       	mov    edi,0x0
  d1:	e8 00 00 00 00       	call   d6 <start_thread+0xd6>
  d6:	48 83 c4 10          	add    rsp,0x10
  da:	89 45 f8             	mov    DWORD PTR [rbp-0x8],eax
  dd:	8b 45 f4             	mov    eax,DWORD PTR [rbp-0xc]
  e0:	85 c0                	test   eax,eax
  e2:	75 41                	jne    125 <start_thread+0x125>
  e4:	48 83 bd 48 ff ff ff 	cmp    QWORD PTR [rbp-0xb8],0x0
  eb:	00 
  ec:	74 1a                	je     108 <start_thread+0x108>
  ee:	48 8b 85 48 ff ff ff 	mov    rax,QWORD PTR [rbp-0xb8]
  f5:	48 8b 95 50 ff ff ff 	mov    rdx,QWORD PTR [rbp-0xb0]
  fc:	48 89 c7             	mov    rdi,rax
  ff:	b8 00 00 00 00       	mov    eax,0x0
 104:	ff d2                	call   rdx
 106:	eb 0e                	jmp    116 <start_thread+0x116>
 108:	48 8b 95 50 ff ff ff 	mov    rdx,QWORD PTR [rbp-0xb0]
 10f:	b8 00 00 00 00       	mov    eax,0x0
 114:	ff d2                	call   rdx
 116:	bf 00 00 00 00       	mov    edi,0x0
 11b:	e8 00 00 00 00       	call   120 <start_thread+0x120>
 120:	e9 a5 00 00 00       	jmp    1ca <start_thread+0x1ca>
 125:	8b 45 f4             	mov    eax,DWORD PTR [rbp-0xc]
 128:	85 c0                	test   eax,eax
 12a:	0f 8e 8b 00 00 00    	jle    1bb <start_thread+0x1bb>
 130:	8b 05 00 00 00 00    	mov    eax,DWORD PTR [rip+0x0]        # 136 <start_thread+0x136>
 136:	85 c0                	test   eax,eax
 138:	74 40                	je     17a <start_thread+0x17a>
 13a:	48 8d 45 e0          	lea    rax,[rbp-0x20]
 13e:	48 83 c0 14          	add    rax,0x14
 142:	48 89 45 d0          	mov    QWORD PTR [rbp-0x30],rax
 146:	48 c7 45 d8 00 00 00 	mov    QWORD PTR [rbp-0x28],0x0
 14d:	00 
 14e:	48 8d 55 d0          	lea    rdx,[rbp-0x30]
 152:	48 8d 85 60 ff ff ff 	lea    rax,[rbp-0xa0]
 159:	48 8d 0d 00 00 00 00 	lea    rcx,[rip+0x0]        # 160 <start_thread+0x160>
 160:	48 89 ce             	mov    rsi,rcx
 163:	48 89 c7             	mov    rdi,rax
 166:	e8 00 00 00 00       	call   16b <start_thread+0x16b>
 16b:	48 8d 85 60 ff ff ff 	lea    rax,[rbp-0xa0]
 172:	48 89 c7             	mov    rdi,rax
 175:	e8 00 00 00 00       	call   17a <start_thread+0x17a>
 17a:	83 bd 44 ff ff ff 00 	cmp    DWORD PTR [rbp-0xbc],0x0
 181:	74 47                	je     1ca <start_thread+0x1ca>
 183:	8b 45 f4             	mov    eax,DWORD PTR [rbp-0xc]
 186:	48 98                	cdqe
 188:	48 83 ec 08          	sub    rsp,0x8
 18c:	6a 3d                	push   0x3d
 18e:	49 c7 c1 ff ff ff ff 	mov    r9,0xffffffffffffffff
 195:	49 c7 c0 ff ff ff ff 	mov    r8,0xffffffffffffffff
 19c:	48 c7 c1 ff ff ff ff 	mov    rcx,0xffffffffffffffff
 1a3:	ba 00 00 00 00       	mov    edx,0x0
 1a8:	be 00 00 00 00       	mov    esi,0x0
 1ad:	48 89 c7             	mov    rdi,rax
 1b0:	e8 00 00 00 00       	call   1b5 <start_thread+0x1b5>
 1b5:	48 83 c4 10          	add    rsp,0x10
 1b9:	eb 0f                	jmp    1ca <start_thread+0x1ca>
 1bb:	48 8d 05 00 00 00 00 	lea    rax,[rip+0x0]        # 1c2 <start_thread+0x1c2>
 1c2:	48 89 c7             	mov    rdi,rax
 1c5:	e8 00 00 00 00       	call   1ca <start_thread+0x1ca>
 1ca:	48 83 ec 08          	sub    rsp,0x8
 1ce:	68 ba 00 00 00       	push   0xba
 1d3:	49 c7 c1 ff ff ff ff 	mov    r9,0xffffffffffffffff
 1da:	49 c7 c0 ff ff ff ff 	mov    r8,0xffffffffffffffff
 1e1:	48 c7 c1 ff ff ff ff 	mov    rcx,0xffffffffffffffff
 1e8:	ba 00 00 00 00       	mov    edx,0x0
 1ed:	be 00 00 00 00       	mov    esi,0x0
 1f2:	bf 00 00 00 00       	mov    edi,0x0
 1f7:	e8 00 00 00 00       	call   1fc <start_thread+0x1fc>
 1fc:	48 83 c4 10          	add    rsp,0x10
 200:	89 45 f8             	mov    DWORD PTR [rbp-0x8],eax
 203:	48 8b 8d 58 ff ff ff 	mov    rcx,QWORD PTR [rbp-0xa8]
 20a:	48 8b 45 e0          	mov    rax,QWORD PTR [rbp-0x20]
 20e:	48 8b 55 e8          	mov    rdx,QWORD PTR [rbp-0x18]
 212:	48 89 01             	mov    QWORD PTR [rcx],rax
 215:	48 89 51 08          	mov    QWORD PTR [rcx+0x8],rdx
 219:	48 8b 45 f0          	mov    rax,QWORD PTR [rbp-0x10]
 21d:	48 8b 55 f8          	mov    rdx,QWORD PTR [rbp-0x8]
 221:	48 89 41 10          	mov    QWORD PTR [rcx+0x10],rax
 225:	48 89 51 18          	mov    QWORD PTR [rcx+0x18],rdx
 229:	48 8b 85 58 ff ff ff 	mov    rax,QWORD PTR [rbp-0xa8]
 230:	c9                   	leave
 231:	c3                   	ret

0000000000000232 <thread_kill>:
 232:	f3 0f 1e fa          	endbr64
 236:	55                   	push   rbp
 237:	48 89 e5             	mov    rbp,rsp
 23a:	48 81 ec 90 00 00 00 	sub    rsp,0x90
 241:	48 89 bd 78 ff ff ff 	mov    QWORD PTR [rbp-0x88],rdi
 248:	48 8b 85 78 ff ff ff 	mov    rax,QWORD PTR [rbp-0x88]
 24f:	48 83 c0 14          	add    rax,0x14
 253:	48 89 45 80          	mov    QWORD PTR [rbp-0x80],rax
 257:	48 c7 45 88 00 00 00 	mov    QWORD PTR [rbp-0x78],0x0
 25e:	00 
 25f:	48 8d 55 80          	lea    rdx,[rbp-0x80]
 263:	48 8d 45 90          	lea    rax,[rbp-0x70]
 267:	48 8d 0d 00 00 00 00 	lea    rcx,[rip+0x0]        # 26e <thread_kill+0x3c>
 26e:	48 89 ce             	mov    rsi,rcx
 271:	48 89 c7             	mov    rdi,rax
 274:	e8 00 00 00 00       	call   279 <thread_kill+0x47>
 279:	8b 05 00 00 00 00    	mov    eax,DWORD PTR [rip+0x0]        # 27f <thread_kill+0x4d>
 27f:	85 c0                	test   eax,eax
 281:	74 0c                	je     28f <thread_kill+0x5d>
 283:	48 8d 45 90          	lea    rax,[rbp-0x70]
 287:	48 89 c7             	mov    rdi,rax
 28a:	e8 00 00 00 00       	call   28f <thread_kill+0x5d>
 28f:	48 8d 45 90          	lea    rax,[rbp-0x70]
 293:	48 89 c7             	mov    rdi,rax
 296:	e8 00 00 00 00       	call   29b <thread_kill+0x69>
 29b:	48 8b 85 78 ff ff ff 	mov    rax,QWORD PTR [rbp-0x88]
 2a2:	8b 40 14             	mov    eax,DWORD PTR [rax+0x14]
 2a5:	85 c0                	test   eax,eax
 2a7:	7e 76                	jle    31f <thread_kill+0xed>
 2a9:	48 8b 85 78 ff ff ff 	mov    rax,QWORD PTR [rbp-0x88]
 2b0:	8b 40 14             	mov    eax,DWORD PTR [rax+0x14]
 2b3:	48 98                	cdqe
 2b5:	48 83 ec 08          	sub    rsp,0x8
 2b9:	6a 3e                	push   0x3e
 2bb:	41 b9 00 00 00 00    	mov    r9d,0x0
 2c1:	41 b8 00 00 00 00    	mov    r8d,0x0
 2c7:	b9 00 00 00 00       	mov    ecx,0x0
 2cc:	ba 00 00 00 00       	mov    edx,0x0
 2d1:	be 09 00 00 00       	mov    esi,0x9
 2d6:	48 89 c7             	mov    rdi,rax
 2d9:	e8 00 00 00 00       	call   2de <thread_kill+0xac>
 2de:	48 83 c4 10          	add    rsp,0x10
 2e2:	48 8b 85 78 ff ff ff 	mov    rax,QWORD PTR [rbp-0x88]
 2e9:	8b 40 14             	mov    eax,DWORD PTR [rax+0x14]
 2ec:	48 98                	cdqe
 2ee:	48 83 ec 08          	sub    rsp,0x8
 2f2:	6a 3d                	push   0x3d
 2f4:	49 c7 c1 ff ff ff ff 	mov    r9,0xffffffffffffffff
 2fb:	49 c7 c0 ff ff ff ff 	mov    r8,0xffffffffffffffff
 302:	48 c7 c1 ff ff ff ff 	mov    rcx,0xffffffffffffffff
 309:	ba 00 00 00 00       	mov    edx,0x0
 30e:	be 00 00 00 00       	mov    esi,0x0
 313:	48 89 c7             	mov    rdi,rax
 316:	e8 00 00 00 00       	call   31b <thread_kill+0xe9>
 31b:	48 83 c4 10          	add    rsp,0x10
 31f:	90                   	nop
 320:	c9                   	leave
 321:	c3                   	ret
