In archive build/fsl.o:

_syscall.o:     file format elf64-x86-64


Disassembly of section .text:

0000000000000000 <__syscall__>:
   0:	f3 0f 1e fa          	endbr64
   4:	55                   	push   rbp
   5:	48 89 e5             	mov    rbp,rsp
   8:	48 8b 45 10          	mov    rax,QWORD PTR [rbp+0x10]
   c:	0f 05                	syscall
   e:	90                   	nop
   f:	5d                   	pop    rbp
  10:	c3                   	ret

0000000000000011 <udiv64>:
  11:	f3 0f 1e fa          	endbr64
  15:	55                   	push   rbp
  16:	48 89 e5             	mov    rbp,rsp
  19:	48 89 7d d8          	mov    QWORD PTR [rbp-0x28],rdi
  1d:	48 89 75 d0          	mov    QWORD PTR [rbp-0x30],rsi
  21:	48 c7 45 f8 00 00 00 	mov    QWORD PTR [rbp-0x8],0x0
  28:	00 
  29:	48 c7 45 f0 00 00 00 	mov    QWORD PTR [rbp-0x10],0x0
  30:	00 
  31:	c7 45 ec 3f 00 00 00 	mov    DWORD PTR [rbp-0x14],0x3f
  38:	eb 44                	jmp    7e <udiv64+0x6d>
  3a:	48 d1 65 f0          	shl    QWORD PTR [rbp-0x10],1
  3e:	8b 45 ec             	mov    eax,DWORD PTR [rbp-0x14]
  41:	48 8b 55 d8          	mov    rdx,QWORD PTR [rbp-0x28]
  45:	89 c1                	mov    ecx,eax
  47:	48 d3 ea             	shr    rdx,cl
  4a:	48 89 d0             	mov    rax,rdx
  4d:	83 e0 01             	and    eax,0x1
  50:	48 09 45 f0          	or     QWORD PTR [rbp-0x10],rax
  54:	48 8b 45 f0          	mov    rax,QWORD PTR [rbp-0x10]
  58:	48 3b 45 d0          	cmp    rax,QWORD PTR [rbp-0x30]
  5c:	72 1c                	jb     7a <udiv64+0x69>
  5e:	48 8b 45 d0          	mov    rax,QWORD PTR [rbp-0x30]
  62:	48 29 45 f0          	sub    QWORD PTR [rbp-0x10],rax
  66:	8b 45 ec             	mov    eax,DWORD PTR [rbp-0x14]
  69:	ba 01 00 00 00       	mov    edx,0x1
  6e:	89 c1                	mov    ecx,eax
  70:	48 d3 e2             	shl    rdx,cl
  73:	48 89 d0             	mov    rax,rdx
  76:	48 09 45 f8          	or     QWORD PTR [rbp-0x8],rax
  7a:	83 6d ec 01          	sub    DWORD PTR [rbp-0x14],0x1
  7e:	83 7d ec 00          	cmp    DWORD PTR [rbp-0x14],0x0
  82:	79 b6                	jns    3a <udiv64+0x29>
  84:	48 8b 45 f8          	mov    rax,QWORD PTR [rbp-0x8]
  88:	5d                   	pop    rbp
  89:	c3                   	ret

000000000000008a <__divdi3>:
  8a:	f3 0f 1e fa          	endbr64
  8e:	55                   	push   rbp
  8f:	48 89 e5             	mov    rbp,rsp
  92:	48 83 ec 20          	sub    rsp,0x20
  96:	48 89 7d e8          	mov    QWORD PTR [rbp-0x18],rdi
  9a:	48 89 75 e0          	mov    QWORD PTR [rbp-0x20],rsi
  9e:	c7 45 fc 00 00 00 00 	mov    DWORD PTR [rbp-0x4],0x0
  a5:	48 83 7d e8 00       	cmp    QWORD PTR [rbp-0x18],0x0
  aa:	79 08                	jns    b4 <__divdi3+0x2a>
  ac:	48 f7 5d e8          	neg    QWORD PTR [rbp-0x18]
  b0:	83 75 fc 01          	xor    DWORD PTR [rbp-0x4],0x1
  b4:	48 83 7d e0 00       	cmp    QWORD PTR [rbp-0x20],0x0
  b9:	79 08                	jns    c3 <__divdi3+0x39>
  bb:	48 f7 5d e0          	neg    QWORD PTR [rbp-0x20]
  bf:	83 75 fc 01          	xor    DWORD PTR [rbp-0x4],0x1
  c3:	48 8b 55 e0          	mov    rdx,QWORD PTR [rbp-0x20]
  c7:	48 8b 45 e8          	mov    rax,QWORD PTR [rbp-0x18]
  cb:	48 89 d6             	mov    rsi,rdx
  ce:	48 89 c7             	mov    rdi,rax
  d1:	e8 3b ff ff ff       	call   11 <udiv64>
  d6:	48 89 45 f0          	mov    QWORD PTR [rbp-0x10],rax
  da:	83 7d fc 00          	cmp    DWORD PTR [rbp-0x4],0x0
  de:	74 09                	je     e9 <__divdi3+0x5f>
  e0:	48 8b 45 f0          	mov    rax,QWORD PTR [rbp-0x10]
  e4:	48 f7 d8             	neg    rax
  e7:	eb 04                	jmp    ed <__divdi3+0x63>
  e9:	48 8b 45 f0          	mov    rax,QWORD PTR [rbp-0x10]
  ed:	c9                   	leave
  ee:	c3                   	ret

00000000000000ef <__moddi3>:
  ef:	f3 0f 1e fa          	endbr64
  f3:	55                   	push   rbp
  f4:	48 89 e5             	mov    rbp,rsp
  f7:	48 89 7d f8          	mov    QWORD PTR [rbp-0x8],rdi
  fb:	48 89 75 f0          	mov    QWORD PTR [rbp-0x10],rsi
  ff:	48 8b 45 f8          	mov    rax,QWORD PTR [rbp-0x8]
 103:	48 99                	cqo
 105:	48 f7 7d f0          	idiv   QWORD PTR [rbp-0x10]
 109:	48 89 d0             	mov    rax,rdx
 10c:	5d                   	pop    rbp
 10d:	c3                   	ret

000000000000010e <__syscall>:
 10e:	f3 0f 1e fa          	endbr64
 112:	55                   	push   rbp
 113:	48 89 e5             	mov    rbp,rsp
 116:	48 89 7d f8          	mov    QWORD PTR [rbp-0x8],rdi
 11a:	48 89 75 f0          	mov    QWORD PTR [rbp-0x10],rsi
 11e:	48 89 55 e8          	mov    QWORD PTR [rbp-0x18],rdx
 122:	48 89 4d e0          	mov    QWORD PTR [rbp-0x20],rcx
 126:	4c 89 45 d8          	mov    QWORD PTR [rbp-0x28],r8
 12a:	4c 89 4d d0          	mov    QWORD PTR [rbp-0x30],r9
 12e:	48 8b 45 f8          	mov    rax,QWORD PTR [rbp-0x8]
 132:	48 83 7d f0 ff       	cmp    QWORD PTR [rbp-0x10],0xffffffffffffffff
 137:	75 04                	jne    13d <__syscall+0x2f>
 139:	0f 05                	syscall
 13b:	eb 51                	jmp    18e <__syscall+0x80>
 13d:	48 8b 7d f0          	mov    rdi,QWORD PTR [rbp-0x10]
 141:	48 83 7d e8 ff       	cmp    QWORD PTR [rbp-0x18],0xffffffffffffffff
 146:	75 04                	jne    14c <__syscall+0x3e>
 148:	0f 05                	syscall
 14a:	eb 42                	jmp    18e <__syscall+0x80>
 14c:	48 8b 75 e8          	mov    rsi,QWORD PTR [rbp-0x18]
 150:	48 83 7d e0 ff       	cmp    QWORD PTR [rbp-0x20],0xffffffffffffffff
 155:	75 04                	jne    15b <__syscall+0x4d>
 157:	0f 05                	syscall
 159:	eb 33                	jmp    18e <__syscall+0x80>
 15b:	48 8b 55 e0          	mov    rdx,QWORD PTR [rbp-0x20]
 15f:	48 83 7d d8 ff       	cmp    QWORD PTR [rbp-0x28],0xffffffffffffffff
 164:	75 04                	jne    16a <__syscall+0x5c>
 166:	0f 05                	syscall
 168:	eb 24                	jmp    18e <__syscall+0x80>
 16a:	4c 8b 55 d8          	mov    r10,QWORD PTR [rbp-0x28]
 16e:	48 83 7d d0 ff       	cmp    QWORD PTR [rbp-0x30],0xffffffffffffffff
 173:	75 04                	jne    179 <__syscall+0x6b>
 175:	0f 05                	syscall
 177:	eb 15                	jmp    18e <__syscall+0x80>
 179:	4c 8b 45 d0          	mov    r8,QWORD PTR [rbp-0x30]
 17d:	48 83 7d 10 ff       	cmp    QWORD PTR [rbp+0x10],0xffffffffffffffff
 182:	75 04                	jne    188 <__syscall+0x7a>
 184:	0f 05                	syscall
 186:	eb 06                	jmp    18e <__syscall+0x80>
 188:	4c 8b 4d 10          	mov    r9,QWORD PTR [rbp+0x10]
 18c:	0f 05                	syscall
 18e:	5d                   	pop    rbp
 18f:	c3                   	ret

0000000000000190 <___syscall__>:
 190:	f3 0f 1e fa          	endbr64
 194:	55                   	push   rbp
 195:	48 89 e5             	mov    rbp,rsp
 198:	48 89 7d f8          	mov    QWORD PTR [rbp-0x8],rdi
 19c:	48 89 75 f0          	mov    QWORD PTR [rbp-0x10],rsi
 1a0:	48 89 55 e8          	mov    QWORD PTR [rbp-0x18],rdx
 1a4:	48 89 4d e0          	mov    QWORD PTR [rbp-0x20],rcx
 1a8:	4c 89 45 d8          	mov    QWORD PTR [rbp-0x28],r8
 1ac:	4c 89 4d d0          	mov    QWORD PTR [rbp-0x30],r9
 1b0:	48 8b 45 10          	mov    rax,QWORD PTR [rbp+0x10]
 1b4:	48 8b 7d f8          	mov    rdi,QWORD PTR [rbp-0x8]
 1b8:	48 8b 75 f0          	mov    rsi,QWORD PTR [rbp-0x10]
 1bc:	48 8b 55 e8          	mov    rdx,QWORD PTR [rbp-0x18]
 1c0:	4c 8b 55 e0          	mov    r10,QWORD PTR [rbp-0x20]
 1c4:	4c 8b 45 d8          	mov    r8,QWORD PTR [rbp-0x28]
 1c8:	4c 8b 4d d0          	mov    r9,QWORD PTR [rbp-0x30]
 1cc:	0f 05                	syscall
 1ce:	5d                   	pop    rbp
 1cf:	c3                   	ret

00000000000001d0 <__sys_mmap>:
 1d0:	f3 0f 1e fa          	endbr64
 1d4:	55                   	push   rbp
 1d5:	48 89 e5             	mov    rbp,rsp
 1d8:	48 83 ec 40          	sub    rsp,0x40
 1dc:	48 89 7d e8          	mov    QWORD PTR [rbp-0x18],rdi
 1e0:	48 89 75 e0          	mov    QWORD PTR [rbp-0x20],rsi
 1e4:	48 89 55 d8          	mov    QWORD PTR [rbp-0x28],rdx
 1e8:	48 89 4d d0          	mov    QWORD PTR [rbp-0x30],rcx
 1ec:	4c 89 45 c8          	mov    QWORD PTR [rbp-0x38],r8
 1f0:	4c 89 4d c0          	mov    QWORD PTR [rbp-0x40],r9
 1f4:	b8 09 00 00 00       	mov    eax,0x9
 1f9:	48 8b 7d e8          	mov    rdi,QWORD PTR [rbp-0x18]
 1fd:	48 8b 75 e0          	mov    rsi,QWORD PTR [rbp-0x20]
 201:	48 8b 55 d8          	mov    rdx,QWORD PTR [rbp-0x28]
 205:	4c 8b 55 d0          	mov    r10,QWORD PTR [rbp-0x30]
 209:	4c 8b 45 c8          	mov    r8,QWORD PTR [rbp-0x38]
 20d:	4c 8b 4d c0          	mov    r9,QWORD PTR [rbp-0x40]
 211:	0f 05                	syscall
 213:	48 89 45 f8          	mov    QWORD PTR [rbp-0x8],rax
 217:	48 85 c0             	test   rax,rax
 21a:	79 0b                	jns    227 <__sys_mmap+0x57>
 21c:	48 8b 45 f8          	mov    rax,QWORD PTR [rbp-0x8]
 220:	89 c7                	mov    edi,eax
 222:	e8 00 00 00 00       	call   227 <__sys_mmap+0x57>
 227:	48 8b 45 f8          	mov    rax,QWORD PTR [rbp-0x8]
 22b:	c9                   	leave
 22c:	c3                   	ret

000000000000022d <__setsockopt>:
 22d:	f3 0f 1e fa          	endbr64
 231:	55                   	push   rbp
 232:	48 89 e5             	mov    rbp,rsp
 235:	48 83 ec 40          	sub    rsp,0x40
 239:	48 89 7d e8          	mov    QWORD PTR [rbp-0x18],rdi
 23d:	48 89 75 e0          	mov    QWORD PTR [rbp-0x20],rsi
 241:	48 89 55 d8          	mov    QWORD PTR [rbp-0x28],rdx
 245:	48 89 4d d0          	mov    QWORD PTR [rbp-0x30],rcx
 249:	4c 89 45 c8          	mov    QWORD PTR [rbp-0x38],r8
 24d:	b8 36 00 00 00       	mov    eax,0x36
 252:	48 8b 7d e8          	mov    rdi,QWORD PTR [rbp-0x18]
 256:	48 8b 75 e0          	mov    rsi,QWORD PTR [rbp-0x20]
 25a:	48 8b 55 d8          	mov    rdx,QWORD PTR [rbp-0x28]
 25e:	4c 8b 55 d0          	mov    r10,QWORD PTR [rbp-0x30]
 262:	4c 8b 45 c8          	mov    r8,QWORD PTR [rbp-0x38]
 266:	0f 05                	syscall
 268:	48 89 45 f8          	mov    QWORD PTR [rbp-0x8],rax
 26c:	48 85 c0             	test   rax,rax
 26f:	79 0b                	jns    27c <__setsockopt+0x4f>
 271:	48 8b 45 f8          	mov    rax,QWORD PTR [rbp-0x8]
 275:	89 c7                	mov    edi,eax
 277:	e8 00 00 00 00       	call   27c <__setsockopt+0x4f>
 27c:	48 8b 45 f8          	mov    rax,QWORD PTR [rbp-0x8]
 280:	c9                   	leave
 281:	c3                   	ret

allocator.o:     file format elf64-x86-64


Disassembly of section .text:

0000000000000000 <__get_total_mem_used__>:
   0:	f3 0f 1e fa          	endbr64
   4:	55                   	push   rbp
   5:	48 89 e5             	mov    rbp,rsp
   8:	8b 05 00 00 00 00    	mov    eax,DWORD PTR [rip+0x0]        # e <__get_total_mem_used__+0xe>
   e:	5d                   	pop    rbp
   f:	c3                   	ret

0000000000000010 <__is_heap_init__>:
  10:	f3 0f 1e fa          	endbr64
  14:	55                   	push   rbp
  15:	48 89 e5             	mov    rbp,rsp
  18:	48 8b 05 00 00 00 00 	mov    rax,QWORD PTR [rip+0x0]        # 1f <__is_heap_init__+0xf>
  1f:	48 85 c0             	test   rax,rax
  22:	0f 95 c0             	setne  al
  25:	0f b6 c0             	movzx  eax,al
  28:	5d                   	pop    rbp
  29:	c3                   	ret

000000000000002a <set_heap_sz>:
  2a:	f3 0f 1e fa          	endbr64
  2e:	55                   	push   rbp
  2f:	48 89 e5             	mov    rbp,rsp
  32:	89 7d fc             	mov    DWORD PTR [rbp-0x4],edi
  35:	8b 45 fc             	mov    eax,DWORD PTR [rbp-0x4]
  38:	89 05 00 00 00 00    	mov    DWORD PTR [rip+0x0],eax        # 3e <set_heap_sz+0x14>
  3e:	90                   	nop
  3f:	5d                   	pop    rbp
  40:	c3                   	ret

0000000000000041 <set_heap_debug>:
  41:	f3 0f 1e fa          	endbr64
  45:	55                   	push   rbp
  46:	48 89 e5             	mov    rbp,rsp
  49:	c7 05 00 00 00 00 01 	mov    DWORD PTR [rip+0x0],0x1        # 53 <set_heap_debug+0x12>
  50:	00 00 00 
  53:	90                   	nop
  54:	5d                   	pop    rbp
  55:	c3                   	ret

0000000000000056 <init_mem>:
  56:	f3 0f 1e fa          	endbr64
  5a:	55                   	push   rbp
  5b:	48 89 e5             	mov    rbp,rsp
  5e:	48 83 ec 10          	sub    rsp,0x10
  62:	8b 05 00 00 00 00    	mov    eax,DWORD PTR [rip+0x0]        # 68 <init_mem+0x12>
  68:	48 98                	cdqe
  6a:	41 b9 00 00 00 00    	mov    r9d,0x0
  70:	49 c7 c0 ff ff ff ff 	mov    r8,0xffffffffffffffff
  77:	b9 22 00 00 00       	mov    ecx,0x22
  7c:	ba 03 00 00 00       	mov    edx,0x3
  81:	48 89 c6             	mov    rsi,rax
  84:	bf 00 00 00 00       	mov    edi,0x0
  89:	e8 00 00 00 00       	call   8e <init_mem+0x38>
  8e:	48 89 45 f8          	mov    QWORD PTR [rbp-0x8],rax
  92:	48 83 7d f8 00       	cmp    QWORD PTR [rbp-0x8],0x0
  97:	7f 1e                	jg     b7 <init_mem+0x61>
  99:	48 8d 0d 00 00 00 00 	lea    rcx,[rip+0x0]        # a0 <init_mem+0x4a>
  a0:	48 8d 05 00 00 00 00 	lea    rax,[rip+0x0]        # a7 <init_mem+0x51>
  a7:	ba 2b 00 00 00       	mov    edx,0x2b
  ac:	48 89 ce             	mov    rsi,rcx
  af:	48 89 c7             	mov    rdi,rax
  b2:	e8 00 00 00 00       	call   b7 <init_mem+0x61>
  b7:	48 8b 45 f8          	mov    rax,QWORD PTR [rbp-0x8]
  bb:	48 89 05 00 00 00 00 	mov    QWORD PTR [rip+0x0],rax        # c2 <init_mem+0x6c>
  c2:	8b 05 00 00 00 00    	mov    eax,DWORD PTR [rip+0x0]        # c8 <init_mem+0x72>
  c8:	48 63 d0             	movsxd rdx,eax
  cb:	48 8b 05 00 00 00 00 	mov    rax,QWORD PTR [rip+0x0]        # d2 <init_mem+0x7c>
  d2:	be 01 00 00 00       	mov    esi,0x1
  d7:	48 89 c7             	mov    rdi,rax
  da:	e8 00 00 00 00       	call   df <init_mem+0x89>
  df:	8b 05 00 00 00 00    	mov    eax,DWORD PTR [rip+0x0]        # e5 <init_mem+0x8f>
  e5:	85 c0                	test   eax,eax
  e7:	75 0a                	jne    f3 <init_mem+0x9d>
  e9:	8b 05 00 00 00 00    	mov    eax,DWORD PTR [rip+0x0]        # ef <init_mem+0x99>
  ef:	85 c0                	test   eax,eax
  f1:	74 0f                	je     102 <init_mem+0xac>
  f3:	48 8d 05 00 00 00 00 	lea    rax,[rip+0x0]        # fa <init_mem+0xa4>
  fa:	48 89 c7             	mov    rdi,rax
  fd:	e8 00 00 00 00       	call   102 <init_mem+0xac>
 102:	90                   	nop
 103:	c9                   	leave
 104:	c3                   	ret

0000000000000105 <find_space>:
 105:	f3 0f 1e fa          	endbr64
 109:	55                   	push   rbp
 10a:	48 89 e5             	mov    rbp,rsp
 10d:	89 7d ec             	mov    DWORD PTR [rbp-0x14],edi
 110:	c7 45 fc 00 00 00 00 	mov    DWORD PTR [rbp-0x4],0x0
 117:	eb 4f                	jmp    168 <find_space+0x63>
 119:	c7 45 f8 01 00 00 00 	mov    DWORD PTR [rbp-0x8],0x1
 120:	c7 45 f4 00 00 00 00 	mov    DWORD PTR [rbp-0xc],0x0
 127:	eb 28                	jmp    151 <find_space+0x4c>
 129:	48 8b 15 00 00 00 00 	mov    rdx,QWORD PTR [rip+0x0]        # 130 <find_space+0x2b>
 130:	8b 4d fc             	mov    ecx,DWORD PTR [rbp-0x4]
 133:	8b 45 f4             	mov    eax,DWORD PTR [rbp-0xc]
 136:	01 c8                	add    eax,ecx
 138:	48 98                	cdqe
 13a:	48 01 d0             	add    rax,rdx
 13d:	0f b6 00             	movzx  eax,BYTE PTR [rax]
 140:	3c 01                	cmp    al,0x1
 142:	74 09                	je     14d <find_space+0x48>
 144:	c7 45 f8 00 00 00 00 	mov    DWORD PTR [rbp-0x8],0x0
 14b:	eb 0c                	jmp    159 <find_space+0x54>
 14d:	83 45 f4 01          	add    DWORD PTR [rbp-0xc],0x1
 151:	8b 45 f4             	mov    eax,DWORD PTR [rbp-0xc]
 154:	3b 45 ec             	cmp    eax,DWORD PTR [rbp-0x14]
 157:	7c d0                	jl     129 <find_space+0x24>
 159:	83 7d f8 00          	cmp    DWORD PTR [rbp-0x8],0x0
 15d:	74 05                	je     164 <find_space+0x5f>
 15f:	8b 45 fc             	mov    eax,DWORD PTR [rbp-0x4]
 162:	eb 17                	jmp    17b <find_space+0x76>
 164:	83 45 fc 01          	add    DWORD PTR [rbp-0x4],0x1
 168:	8b 05 00 00 00 00    	mov    eax,DWORD PTR [rip+0x0]        # 16e <find_space+0x69>
 16e:	2b 45 ec             	sub    eax,DWORD PTR [rbp-0x14]
 171:	39 45 fc             	cmp    DWORD PTR [rbp-0x4],eax
 174:	7e a3                	jle    119 <find_space+0x14>
 176:	b8 ff ff ff ff       	mov    eax,0xffffffff
 17b:	5d                   	pop    rbp
 17c:	c3                   	ret

000000000000017d <allocate>:
 17d:	f3 0f 1e fa          	endbr64
 181:	55                   	push   rbp
 182:	48 89 e5             	mov    rbp,rsp
 185:	48 81 ec b0 00 00 00 	sub    rsp,0xb0
 18c:	89 bd 5c ff ff ff    	mov    DWORD PTR [rbp-0xa4],edi
 192:	89 b5 58 ff ff ff    	mov    DWORD PTR [rbp-0xa8],esi
 198:	83 bd 58 ff ff ff 00 	cmp    DWORD PTR [rbp-0xa8],0x0
 19f:	75 0a                	jne    1ab <allocate+0x2e>
 1a1:	b8 00 00 00 00       	mov    eax,0x0
 1a6:	e9 b5 01 00 00       	jmp    360 <allocate+0x1e3>
 1ab:	8b 15 00 00 00 00    	mov    edx,DWORD PTR [rip+0x0]        # 1b1 <allocate+0x34>
 1b1:	8b 05 00 00 00 00    	mov    eax,DWORD PTR [rip+0x0]        # 1b7 <allocate+0x3a>
 1b7:	29 c2                	sub    edx,eax
 1b9:	89 55 fc             	mov    DWORD PTR [rbp-0x4],edx
 1bc:	83 bd 5c ff ff ff 00 	cmp    DWORD PTR [rbp-0xa4],0x0
 1c3:	74 0f                	je     1d4 <allocate+0x57>
 1c5:	8b 85 5c ff ff ff    	mov    eax,DWORD PTR [rbp-0xa4]
 1cb:	0f af 85 58 ff ff ff 	imul   eax,DWORD PTR [rbp-0xa8]
 1d2:	eb 06                	jmp    1da <allocate+0x5d>
 1d4:	8b 85 58 ff ff ff    	mov    eax,DWORD PTR [rbp-0xa8]
 1da:	ba 10 00 00 00       	mov    edx,0x10
 1df:	01 d0                	add    eax,edx
 1e1:	89 45 f8             	mov    DWORD PTR [rbp-0x8],eax
 1e4:	8b 45 fc             	mov    eax,DWORD PTR [rbp-0x4]
 1e7:	3b 45 f8             	cmp    eax,DWORD PTR [rbp-0x8]
 1ea:	7d 0a                	jge    1f6 <allocate+0x79>
 1ec:	b8 00 00 00 00       	mov    eax,0x0
 1f1:	e9 6a 01 00 00       	jmp    360 <allocate+0x1e3>
 1f6:	8b 45 f8             	mov    eax,DWORD PTR [rbp-0x8]
 1f9:	89 c7                	mov    edi,eax
 1fb:	e8 05 ff ff ff       	call   105 <find_space>
 200:	89 45 f4             	mov    DWORD PTR [rbp-0xc],eax
 203:	83 7d f4 ff          	cmp    DWORD PTR [rbp-0xc],0xffffffff
 207:	75 1e                	jne    227 <allocate+0xaa>
 209:	48 8d 0d 00 00 00 00 	lea    rcx,[rip+0x0]        # 210 <allocate+0x93>
 210:	48 8d 05 00 00 00 00 	lea    rax,[rip+0x0]        # 217 <allocate+0x9a>
 217:	ba 57 00 00 00       	mov    edx,0x57
 21c:	48 89 ce             	mov    rsi,rcx
 21f:	48 89 c7             	mov    rdi,rax
 222:	e8 00 00 00 00       	call   227 <allocate+0xaa>
 227:	48 8b 15 00 00 00 00 	mov    rdx,QWORD PTR [rip+0x0]        # 22e <allocate+0xb1>
 22e:	8b 45 f4             	mov    eax,DWORD PTR [rbp-0xc]
 231:	48 98                	cdqe
 233:	48 01 d0             	add    rax,rdx
 236:	48 89 45 e8          	mov    QWORD PTR [rbp-0x18],rax
 23a:	8b 85 5c ff ff ff    	mov    eax,DWORD PTR [rbp-0xa4]
 240:	89 45 d0             	mov    DWORD PTR [rbp-0x30],eax
 243:	8b 85 58 ff ff ff    	mov    eax,DWORD PTR [rbp-0xa8]
 249:	48 98                	cdqe
 24b:	48 89 45 d4          	mov    QWORD PTR [rbp-0x2c],rax
 24f:	c7 45 dc 7c 00 00 00 	mov    DWORD PTR [rbp-0x24],0x7c
 256:	b8 10 00 00 00       	mov    eax,0x10
 25b:	48 63 d0             	movsxd rdx,eax
 25e:	48 8d 4d d0          	lea    rcx,[rbp-0x30]
 262:	48 8b 45 e8          	mov    rax,QWORD PTR [rbp-0x18]
 266:	48 89 ce             	mov    rsi,rcx
 269:	48 89 c7             	mov    rdi,rax
 26c:	e8 00 00 00 00       	call   271 <allocate+0xf4>
 271:	ba 10 00 00 00       	mov    edx,0x10
 276:	8b 45 f8             	mov    eax,DWORD PTR [rbp-0x8]
 279:	29 d0                	sub    eax,edx
 27b:	48 98                	cdqe
 27d:	ba 10 00 00 00       	mov    edx,0x10
 282:	48 63 ca             	movsxd rcx,edx
 285:	48 8b 55 e8          	mov    rdx,QWORD PTR [rbp-0x18]
 289:	48 01 d1             	add    rcx,rdx
 28c:	48 89 c2             	mov    rdx,rax
 28f:	be 00 00 00 00       	mov    esi,0x0
 294:	48 89 cf             	mov    rdi,rcx
 297:	e8 00 00 00 00       	call   29c <allocate+0x11f>
 29c:	8b 15 00 00 00 00    	mov    edx,DWORD PTR [rip+0x0]        # 2a2 <allocate+0x125>
 2a2:	8b 45 f8             	mov    eax,DWORD PTR [rbp-0x8]
 2a5:	01 d0                	add    eax,edx
 2a7:	89 05 00 00 00 00    	mov    DWORD PTR [rip+0x0],eax        # 2ad <allocate+0x130>
 2ad:	8b 05 00 00 00 00    	mov    eax,DWORD PTR [rip+0x0]        # 2b3 <allocate+0x136>
 2b3:	85 c0                	test   eax,eax
 2b5:	75 0e                	jne    2c5 <allocate+0x148>
 2b7:	8b 05 00 00 00 00    	mov    eax,DWORD PTR [rip+0x0]        # 2bd <allocate+0x140>
 2bd:	85 c0                	test   eax,eax
 2bf:	0f 84 8c 00 00 00    	je     351 <allocate+0x1d4>
 2c5:	48 8d 95 60 ff ff ff 	lea    rdx,[rbp-0xa0]
 2cc:	48 8b 45 e8          	mov    rax,QWORD PTR [rbp-0x18]
 2d0:	48 89 d6             	mov    rsi,rdx
 2d3:	48 89 c7             	mov    rdi,rax
 2d6:	e8 00 00 00 00       	call   2db <allocate+0x15e>
 2db:	48 8d 05 00 00 00 00 	lea    rax,[rip+0x0]        # 2e2 <allocate+0x165>
 2e2:	48 89 c7             	mov    rdi,rax
 2e5:	e8 00 00 00 00       	call   2ea <allocate+0x16d>
 2ea:	83 bd 5c ff ff ff 00 	cmp    DWORD PTR [rbp-0xa4],0x0
 2f1:	74 0f                	je     302 <allocate+0x185>
 2f3:	8b 85 5c ff ff ff    	mov    eax,DWORD PTR [rbp-0xa4]
 2f9:	0f af 85 58 ff ff ff 	imul   eax,DWORD PTR [rbp-0xa8]
 300:	eb 06                	jmp    308 <allocate+0x18b>
 302:	8b 85 58 ff ff ff    	mov    eax,DWORD PTR [rbp-0xa8]
 308:	89 c7                	mov    edi,eax
 30a:	e8 00 00 00 00       	call   30f <allocate+0x192>
 30f:	48 8d 05 00 00 00 00 	lea    rax,[rip+0x0]        # 316 <allocate+0x199>
 316:	48 89 c7             	mov    rdi,rax
 319:	e8 00 00 00 00       	call   31e <allocate+0x1a1>
 31e:	48 8d 85 60 ff ff ff 	lea    rax,[rbp-0xa0]
 325:	48 89 c7             	mov    rdi,rax
 328:	e8 00 00 00 00       	call   32d <allocate+0x1b0>
 32d:	83 bd 5c ff ff ff 00 	cmp    DWORD PTR [rbp-0xa4],0x0
 334:	74 12                	je     348 <allocate+0x1cb>
 336:	8b 85 5c ff ff ff    	mov    eax,DWORD PTR [rbp-0xa4]
 33c:	0f af 85 58 ff ff ff 	imul   eax,DWORD PTR [rbp-0xa8]
 343:	89 45 e4             	mov    DWORD PTR [rbp-0x1c],eax
 346:	eb 09                	jmp    351 <allocate+0x1d4>
 348:	8b 85 58 ff ff ff    	mov    eax,DWORD PTR [rbp-0xa8]
 34e:	89 45 e4             	mov    DWORD PTR [rbp-0x1c],eax
 351:	b8 10 00 00 00       	mov    eax,0x10
 356:	48 63 d0             	movsxd rdx,eax
 359:	48 8b 45 e8          	mov    rax,QWORD PTR [rbp-0x18]
 35d:	48 01 d0             	add    rax,rdx
 360:	c9                   	leave
 361:	c3                   	ret

0000000000000362 <reallocate>:
 362:	f3 0f 1e fa          	endbr64
 366:	55                   	push   rbp
 367:	48 89 e5             	mov    rbp,rsp
 36a:	48 83 ec 20          	sub    rsp,0x20
 36e:	48 89 7d e8          	mov    QWORD PTR [rbp-0x18],rdi
 372:	89 75 e4             	mov    DWORD PTR [rbp-0x1c],esi
 375:	8b 45 e4             	mov    eax,DWORD PTR [rbp-0x1c]
 378:	83 c0 01             	add    eax,0x1
 37b:	89 c6                	mov    esi,eax
 37d:	bf 00 00 00 00       	mov    edi,0x0
 382:	e8 00 00 00 00       	call   387 <reallocate+0x25>
 387:	48 89 45 f8          	mov    QWORD PTR [rbp-0x8],rax
 38b:	48 83 7d f8 00       	cmp    QWORD PTR [rbp-0x8],0x0
 390:	75 1e                	jne    3b0 <reallocate+0x4e>
 392:	48 8d 0d 00 00 00 00 	lea    rcx,[rip+0x0]        # 399 <reallocate+0x37>
 399:	48 8d 05 00 00 00 00 	lea    rax,[rip+0x0]        # 3a0 <reallocate+0x3e>
 3a0:	ba 73 00 00 00       	mov    edx,0x73
 3a5:	48 89 ce             	mov    rsi,rcx
 3a8:	48 89 c7             	mov    rdi,rax
 3ab:	e8 00 00 00 00       	call   3b0 <reallocate+0x4e>
 3b0:	48 8b 45 e8          	mov    rax,QWORD PTR [rbp-0x18]
 3b4:	48 89 c7             	mov    rdi,rax
 3b7:	e8 00 00 00 00       	call   3bc <reallocate+0x5a>
 3bc:	48 63 d0             	movsxd rdx,eax
 3bf:	48 8b 4d e8          	mov    rcx,QWORD PTR [rbp-0x18]
 3c3:	48 8b 45 f8          	mov    rax,QWORD PTR [rbp-0x8]
 3c7:	48 89 ce             	mov    rsi,rcx
 3ca:	48 89 c7             	mov    rdi,rax
 3cd:	e8 00 00 00 00       	call   3d2 <reallocate+0x70>
 3d2:	48 8b 45 e8          	mov    rax,QWORD PTR [rbp-0x18]
 3d6:	be 01 00 00 00       	mov    esi,0x1
 3db:	48 89 c7             	mov    rdi,rax
 3de:	e8 00 00 00 00       	call   3e3 <reallocate+0x81>
 3e3:	48 8b 45 f8          	mov    rax,QWORD PTR [rbp-0x8]
 3e7:	c9                   	leave
 3e8:	c3                   	ret

00000000000003e9 <__get_meta__>:
 3e9:	f3 0f 1e fa          	endbr64
 3ed:	55                   	push   rbp
 3ee:	48 89 e5             	mov    rbp,rsp
 3f1:	48 89 7d f8          	mov    QWORD PTR [rbp-0x8],rdi
 3f5:	b8 10 00 00 00       	mov    eax,0x10
 3fa:	48 98                	cdqe
 3fc:	48 f7 d8             	neg    rax
 3ff:	48 89 c2             	mov    rdx,rax
 402:	48 8b 45 f8          	mov    rax,QWORD PTR [rbp-0x8]
 406:	48 01 d0             	add    rax,rdx
 409:	5d                   	pop    rbp
 40a:	c3                   	ret

000000000000040b <__get_size__>:
 40b:	f3 0f 1e fa          	endbr64
 40f:	55                   	push   rbp
 410:	48 89 e5             	mov    rbp,rsp
 413:	48 83 ec 18          	sub    rsp,0x18
 417:	48 89 7d e8          	mov    QWORD PTR [rbp-0x18],rdi
 41b:	48 8b 45 e8          	mov    rax,QWORD PTR [rbp-0x18]
 41f:	48 89 c7             	mov    rdi,rax
 422:	e8 00 00 00 00       	call   427 <__get_size__+0x1c>
 427:	48 89 45 f8          	mov    QWORD PTR [rbp-0x8],rax
 42b:	48 8b 45 f8          	mov    rax,QWORD PTR [rbp-0x8]
 42f:	8b 00                	mov    eax,DWORD PTR [rax]
 431:	85 c0                	test   eax,eax
 433:	75 0a                	jne    43f <__get_size__+0x34>
 435:	48 8b 45 f8          	mov    rax,QWORD PTR [rbp-0x8]
 439:	48 8b 40 04          	mov    rax,QWORD PTR [rax+0x4]
 43d:	eb 13                	jmp    452 <__get_size__+0x47>
 43f:	48 8b 45 f8          	mov    rax,QWORD PTR [rbp-0x8]
 443:	8b 00                	mov    eax,DWORD PTR [rax]
 445:	89 c2                	mov    edx,eax
 447:	48 8b 45 f8          	mov    rax,QWORD PTR [rbp-0x8]
 44b:	48 8b 40 04          	mov    rax,QWORD PTR [rax+0x4]
 44f:	0f af c2             	imul   eax,edx
 452:	c9                   	leave
 453:	c3                   	ret

0000000000000454 <__get_array_size__>:
 454:	f3 0f 1e fa          	endbr64
 458:	55                   	push   rbp
 459:	48 89 e5             	mov    rbp,rsp
 45c:	48 83 ec 08          	sub    rsp,0x8
 460:	48 89 7d f8          	mov    QWORD PTR [rbp-0x8],rdi
 464:	48 8b 45 f8          	mov    rax,QWORD PTR [rbp-0x8]
 468:	48 89 c7             	mov    rdi,rax
 46b:	e8 00 00 00 00       	call   470 <__get_array_size__+0x1c>
 470:	48 8b 40 04          	mov    rax,QWORD PTR [rax+0x4]
 474:	c9                   	leave
 475:	c3                   	ret

0000000000000476 <pfree_array>:
 476:	f3 0f 1e fa          	endbr64
 47a:	55                   	push   rbp
 47b:	48 89 e5             	mov    rbp,rsp
 47e:	48 83 ec 20          	sub    rsp,0x20
 482:	48 89 7d e8          	mov    QWORD PTR [rbp-0x18],rdi
 486:	c7 45 fc 00 00 00 00 	mov    DWORD PTR [rbp-0x4],0x0
 48d:	eb 28                	jmp    4b7 <pfree_array+0x41>
 48f:	8b 45 fc             	mov    eax,DWORD PTR [rbp-0x4]
 492:	48 98                	cdqe
 494:	48 8d 14 c5 00 00 00 	lea    rdx,[rax*8+0x0]
 49b:	00 
 49c:	48 8b 45 e8          	mov    rax,QWORD PTR [rbp-0x18]
 4a0:	48 01 d0             	add    rax,rdx
 4a3:	48 8b 00             	mov    rax,QWORD PTR [rax]
 4a6:	be 01 00 00 00       	mov    esi,0x1
 4ab:	48 89 c7             	mov    rdi,rax
 4ae:	e8 00 00 00 00       	call   4b3 <pfree_array+0x3d>
 4b3:	83 45 fc 01          	add    DWORD PTR [rbp-0x4],0x1
 4b7:	8b 45 fc             	mov    eax,DWORD PTR [rbp-0x4]
 4ba:	48 98                	cdqe
 4bc:	48 8d 14 c5 00 00 00 	lea    rdx,[rax*8+0x0]
 4c3:	00 
 4c4:	48 8b 45 e8          	mov    rax,QWORD PTR [rbp-0x18]
 4c8:	48 01 d0             	add    rax,rdx
 4cb:	48 8b 00             	mov    rax,QWORD PTR [rax]
 4ce:	48 85 c0             	test   rax,rax
 4d1:	75 bc                	jne    48f <pfree_array+0x19>
 4d3:	90                   	nop
 4d4:	90                   	nop
 4d5:	c9                   	leave
 4d6:	c3                   	ret

00000000000004d7 <_pfree>:
 4d7:	f3 0f 1e fa          	endbr64
 4db:	55                   	push   rbp
 4dc:	48 89 e5             	mov    rbp,rsp
 4df:	48 83 ec 10          	sub    rsp,0x10
 4e3:	48 89 7d f8          	mov    QWORD PTR [rbp-0x8],rdi
 4e7:	48 8b 45 f8          	mov    rax,QWORD PTR [rbp-0x8]
 4eb:	be 01 00 00 00       	mov    esi,0x1
 4f0:	48 89 c7             	mov    rdi,rax
 4f3:	e8 00 00 00 00       	call   4f8 <_pfree+0x21>
 4f8:	90                   	nop
 4f9:	c9                   	leave
 4fa:	c3                   	ret

00000000000004fb <pfree>:
 4fb:	f3 0f 1e fa          	endbr64
 4ff:	55                   	push   rbp
 500:	48 89 e5             	mov    rbp,rsp
 503:	48 81 ec 90 00 00 00 	sub    rsp,0x90
 50a:	48 89 bd 78 ff ff ff 	mov    QWORD PTR [rbp-0x88],rdi
 511:	89 b5 74 ff ff ff    	mov    DWORD PTR [rbp-0x8c],esi
 517:	48 83 bd 78 ff ff ff 	cmp    QWORD PTR [rbp-0x88],0x0
 51e:	00 
 51f:	0f 84 d9 00 00 00    	je     5fe <pfree+0x103>
 525:	48 8b 85 78 ff ff ff 	mov    rax,QWORD PTR [rbp-0x88]
 52c:	48 89 c7             	mov    rdi,rax
 52f:	e8 00 00 00 00       	call   534 <pfree+0x39>
 534:	48 89 45 f0          	mov    QWORD PTR [rbp-0x10],rax
 538:	48 8b 45 f0          	mov    rax,QWORD PTR [rbp-0x10]
 53c:	8b 00                	mov    eax,DWORD PTR [rax]
 53e:	85 c0                	test   eax,eax
 540:	74 18                	je     55a <pfree+0x5f>
 542:	48 8b 45 f0          	mov    rax,QWORD PTR [rbp-0x10]
 546:	8b 00                	mov    eax,DWORD PTR [rax]
 548:	89 c2                	mov    edx,eax
 54a:	48 8b 45 f0          	mov    rax,QWORD PTR [rbp-0x10]
 54e:	48 8b 40 04          	mov    rax,QWORD PTR [rax+0x4]
 552:	0f af c2             	imul   eax,edx
 555:	89 45 fc             	mov    DWORD PTR [rbp-0x4],eax
 558:	eb 0b                	jmp    565 <pfree+0x6a>
 55a:	48 8b 45 f0          	mov    rax,QWORD PTR [rbp-0x10]
 55e:	48 8b 40 04          	mov    rax,QWORD PTR [rax+0x4]
 562:	89 45 fc             	mov    DWORD PTR [rbp-0x4],eax
 565:	ba 10 00 00 00       	mov    edx,0x10
 56a:	8b 45 fc             	mov    eax,DWORD PTR [rbp-0x4]
 56d:	01 d0                	add    eax,edx
 56f:	89 45 ec             	mov    DWORD PTR [rbp-0x14],eax
 572:	83 bd 74 ff ff ff 00 	cmp    DWORD PTR [rbp-0x8c],0x0
 579:	74 17                	je     592 <pfree+0x97>
 57b:	8b 45 ec             	mov    eax,DWORD PTR [rbp-0x14]
 57e:	48 63 d0             	movsxd rdx,eax
 581:	48 8b 45 f0          	mov    rax,QWORD PTR [rbp-0x10]
 585:	be 01 00 00 00       	mov    esi,0x1
 58a:	48 89 c7             	mov    rdi,rax
 58d:	e8 00 00 00 00       	call   592 <pfree+0x97>
 592:	8b 05 00 00 00 00    	mov    eax,DWORD PTR [rip+0x0]        # 598 <pfree+0x9d>
 598:	2b 45 ec             	sub    eax,DWORD PTR [rbp-0x14]
 59b:	89 05 00 00 00 00    	mov    DWORD PTR [rip+0x0],eax        # 5a1 <pfree+0xa6>
 5a1:	8b 05 00 00 00 00    	mov    eax,DWORD PTR [rip+0x0]        # 5a7 <pfree+0xac>
 5a7:	85 c0                	test   eax,eax
 5a9:	75 0a                	jne    5b5 <pfree+0xba>
 5ab:	8b 05 00 00 00 00    	mov    eax,DWORD PTR [rip+0x0]        # 5b1 <pfree+0xb6>
 5b1:	85 c0                	test   eax,eax
 5b3:	74 4a                	je     5ff <pfree+0x104>
 5b5:	48 8d 55 80          	lea    rdx,[rbp-0x80]
 5b9:	48 8b 45 f0          	mov    rax,QWORD PTR [rbp-0x10]
 5bd:	48 89 d6             	mov    rsi,rdx
 5c0:	48 89 c7             	mov    rdi,rax
 5c3:	e8 00 00 00 00       	call   5c8 <pfree+0xcd>
 5c8:	48 8d 05 00 00 00 00 	lea    rax,[rip+0x0]        # 5cf <pfree+0xd4>
 5cf:	48 89 c7             	mov    rdi,rax
 5d2:	e8 00 00 00 00       	call   5d7 <pfree+0xdc>
 5d7:	8b 45 fc             	mov    eax,DWORD PTR [rbp-0x4]
 5da:	89 c7                	mov    edi,eax
 5dc:	e8 00 00 00 00       	call   5e1 <pfree+0xe6>
 5e1:	48 8d 05 00 00 00 00 	lea    rax,[rip+0x0]        # 5e8 <pfree+0xed>
 5e8:	48 89 c7             	mov    rdi,rax
 5eb:	e8 00 00 00 00       	call   5f0 <pfree+0xf5>
 5f0:	48 8d 45 80          	lea    rax,[rbp-0x80]
 5f4:	48 89 c7             	mov    rdi,rax
 5f7:	e8 00 00 00 00       	call   5fc <pfree+0x101>
 5fc:	eb 01                	jmp    5ff <pfree+0x104>
 5fe:	90                   	nop
 5ff:	c9                   	leave
 600:	c3                   	ret

0000000000000601 <uninit_mem>:
 601:	f3 0f 1e fa          	endbr64
 605:	55                   	push   rbp
 606:	48 89 e5             	mov    rbp,rsp
 609:	8b 05 00 00 00 00    	mov    eax,DWORD PTR [rip+0x0]        # 60f <uninit_mem+0xe>
 60f:	85 c0                	test   eax,eax
 611:	75 0a                	jne    61d <uninit_mem+0x1c>
 613:	8b 05 00 00 00 00    	mov    eax,DWORD PTR [rip+0x0]        # 619 <uninit_mem+0x18>
 619:	85 c0                	test   eax,eax
 61b:	74 0f                	je     62c <uninit_mem+0x2b>
 61d:	48 8d 05 00 00 00 00 	lea    rax,[rip+0x0]        # 624 <uninit_mem+0x23>
 624:	48 89 c7             	mov    rdi,rax
 627:	e8 00 00 00 00       	call   62c <uninit_mem+0x2b>
 62c:	8b 05 00 00 00 00    	mov    eax,DWORD PTR [rip+0x0]        # 632 <uninit_mem+0x31>
 632:	48 98                	cdqe
 634:	48 8b 15 00 00 00 00 	mov    rdx,QWORD PTR [rip+0x0]        # 63b <uninit_mem+0x3a>
 63b:	48 89 d7             	mov    rdi,rdx
 63e:	48 83 ec 08          	sub    rsp,0x8
 642:	6a 0b                	push   0xb
 644:	41 b9 00 00 00 00    	mov    r9d,0x0
 64a:	41 b8 00 00 00 00    	mov    r8d,0x0
 650:	b9 00 00 00 00       	mov    ecx,0x0
 655:	ba 00 00 00 00       	mov    edx,0x0
 65a:	48 89 c6             	mov    rsi,rax
 65d:	e8 00 00 00 00       	call   662 <uninit_mem+0x61>
 662:	48 83 c4 10          	add    rsp,0x10
 666:	90                   	nop
 667:	c9                   	leave
 668:	c3                   	ret

any.o:     file format elf64-x86-64


Disassembly of section .text:

0000000000000000 <any_allocate>:
   0:	f3 0f 1e fa          	endbr64
   4:	55                   	push   rbp
   5:	48 89 e5             	mov    rbp,rsp
   8:	48 83 ec 20          	sub    rsp,0x20
   c:	89 7d ec             	mov    DWORD PTR [rbp-0x14],edi
   f:	89 75 e8             	mov    DWORD PTR [rbp-0x18],esi
  12:	83 7d ec 00          	cmp    DWORD PTR [rbp-0x14],0x0
  16:	74 0c                	je     24 <any_allocate+0x24>
  18:	8b 45 ec             	mov    eax,DWORD PTR [rbp-0x14]
  1b:	0f af 45 e8          	imul   eax,DWORD PTR [rbp-0x18]
  1f:	89 45 fc             	mov    DWORD PTR [rbp-0x4],eax
  22:	eb 06                	jmp    2a <any_allocate+0x2a>
  24:	8b 45 e8             	mov    eax,DWORD PTR [rbp-0x18]
  27:	89 45 fc             	mov    DWORD PTR [rbp-0x4],eax
  2a:	83 7d e8 00          	cmp    DWORD PTR [rbp-0x18],0x0
  2e:	75 07                	jne    37 <any_allocate+0x37>
  30:	b8 00 00 00 00       	mov    eax,0x0
  35:	eb 38                	jmp    6f <any_allocate+0x6f>
  37:	b8 10 00 00 00       	mov    eax,0x10
  3c:	01 45 e8             	add    DWORD PTR [rbp-0x18],eax
  3f:	8b 45 e8             	mov    eax,DWORD PTR [rbp-0x18]
  42:	89 c6                	mov    esi,eax
  44:	bf 00 00 00 00       	mov    edi,0x0
  49:	e8 00 00 00 00       	call   4e <any_allocate+0x4e>
  4e:	48 89 45 f0          	mov    QWORD PTR [rbp-0x10],rax
  52:	48 83 7d f0 00       	cmp    QWORD PTR [rbp-0x10],0x0
  57:	75 07                	jne    60 <any_allocate+0x60>
  59:	b8 00 00 00 00       	mov    eax,0x0
  5e:	eb 0f                	jmp    6f <any_allocate+0x6f>
  60:	b8 10 00 00 00       	mov    eax,0x10
  65:	48 63 d0             	movsxd rdx,eax
  68:	48 8b 45 f0          	mov    rax,QWORD PTR [rbp-0x10]
  6c:	48 01 d0             	add    rax,rdx
  6f:	c9                   	leave
  70:	c3                   	ret

0000000000000071 <convert_to_type>:
  71:	f3 0f 1e fa          	endbr64
  75:	55                   	push   rbp
  76:	48 89 e5             	mov    rbp,rsp
  79:	89 f8                	mov    eax,edi
  7b:	48 89 f1             	mov    rcx,rsi
  7e:	48 89 ca             	mov    rdx,rcx
  81:	48 89 45 f0          	mov    QWORD PTR [rbp-0x10],rax
  85:	48 89 55 f8          	mov    QWORD PTR [rbp-0x8],rdx
  89:	90                   	nop
  8a:	5d                   	pop    rbp
  8b:	c3                   	ret

000000000000008c <any_cmp>:
  8c:	f3 0f 1e fa          	endbr64
  90:	55                   	push   rbp
  91:	48 89 e5             	mov    rbp,rsp
  94:	48 83 ec 30          	sub    rsp,0x30
  98:	48 89 7d e8          	mov    QWORD PTR [rbp-0x18],rdi
  9c:	48 89 75 e0          	mov    QWORD PTR [rbp-0x20],rsi
  a0:	89 55 dc             	mov    DWORD PTR [rbp-0x24],edx
  a3:	b8 10 00 00 00       	mov    eax,0x10
  a8:	48 98                	cdqe
  aa:	48 c7 c2 fc ff ff ff 	mov    rdx,0xfffffffffffffffc
  b1:	48 29 c2             	sub    rdx,rax
  b4:	48 8b 45 e8          	mov    rax,QWORD PTR [rbp-0x18]
  b8:	48 01 d0             	add    rax,rdx
  bb:	8b 00                	mov    eax,DWORD PTR [rax]
  bd:	83 f8 7c             	cmp    eax,0x7c
  c0:	75 1e                	jne    e0 <any_cmp+0x54>
  c2:	48 8d 0d 00 00 00 00 	lea    rcx,[rip+0x0]        # c9 <any_cmp+0x3d>
  c9:	48 8d 05 00 00 00 00 	lea    rax,[rip+0x0]        # d0 <any_cmp+0x44>
  d0:	ba 32 00 00 00       	mov    edx,0x32
  d5:	48 89 ce             	mov    rsi,rcx
  d8:	48 89 c7             	mov    rdi,rax
  db:	e8 00 00 00 00       	call   e0 <any_cmp+0x54>
  e0:	b8 10 00 00 00       	mov    eax,0x10
  e5:	48 98                	cdqe
  e7:	48 f7 d8             	neg    rax
  ea:	48 89 c2             	mov    rdx,rax
  ed:	48 8b 45 e8          	mov    rax,QWORD PTR [rbp-0x18]
  f1:	48 01 d0             	add    rax,rdx
  f4:	48 89 45 f8          	mov    QWORD PTR [rbp-0x8],rax
  f8:	90                   	nop
  f9:	c9                   	leave
  fa:	c3                   	ret

array.o:     file format elf64-x86-64


Disassembly of section .text:

0000000000000000 <init_array>:
   0:	f3 0f 1e fa          	endbr64
   4:	55                   	push   rbp
   5:	48 89 e5             	mov    rbp,rsp
   8:	be 01 00 00 00       	mov    esi,0x1
   d:	bf 08 00 00 00       	mov    edi,0x8
  12:	e8 00 00 00 00       	call   17 <init_array+0x17>
  17:	5d                   	pop    rbp
  18:	c3                   	ret

0000000000000019 <array_merge>:
  19:	f3 0f 1e fa          	endbr64
  1d:	55                   	push   rbp
  1e:	48 89 e5             	mov    rbp,rsp
  21:	48 83 ec 20          	sub    rsp,0x20
  25:	48 89 7d e8          	mov    QWORD PTR [rbp-0x18],rdi
  29:	48 89 75 e0          	mov    QWORD PTR [rbp-0x20],rsi
  2d:	48 83 7d e8 00       	cmp    QWORD PTR [rbp-0x18],0x0
  32:	74 07                	je     3b <array_merge+0x22>
  34:	48 83 7d e0 00       	cmp    QWORD PTR [rbp-0x20],0x0
  39:	75 07                	jne    42 <array_merge+0x29>
  3b:	b8 00 00 00 00       	mov    eax,0x0
  40:	eb 57                	jmp    99 <array_merge+0x80>
  42:	c7 45 fc 00 00 00 00 	mov    DWORD PTR [rbp-0x4],0x0
  49:	eb 2e                	jmp    79 <array_merge+0x60>
  4b:	8b 45 fc             	mov    eax,DWORD PTR [rbp-0x4]
  4e:	48 98                	cdqe
  50:	48 8d 14 c5 00 00 00 	lea    rdx,[rax*8+0x0]
  57:	00 
  58:	48 8b 45 e0          	mov    rax,QWORD PTR [rbp-0x20]
  5c:	48 01 d0             	add    rax,rdx
  5f:	48 8b 10             	mov    rdx,QWORD PTR [rax]
  62:	48 8b 45 e8          	mov    rax,QWORD PTR [rbp-0x18]
  66:	48 89 d6             	mov    rsi,rdx
  69:	48 89 c7             	mov    rdi,rax
  6c:	e8 00 00 00 00       	call   71 <array_merge+0x58>
  71:	48 89 45 e8          	mov    QWORD PTR [rbp-0x18],rax
  75:	83 45 fc 01          	add    DWORD PTR [rbp-0x4],0x1
  79:	8b 45 fc             	mov    eax,DWORD PTR [rbp-0x4]
  7c:	48 98                	cdqe
  7e:	48 8d 14 c5 00 00 00 	lea    rdx,[rax*8+0x0]
  85:	00 
  86:	48 8b 45 e0          	mov    rax,QWORD PTR [rbp-0x20]
  8a:	48 01 d0             	add    rax,rdx
  8d:	48 8b 00             	mov    rax,QWORD PTR [rax]
  90:	48 85 c0             	test   rax,rax
  93:	75 b6                	jne    4b <array_merge+0x32>
  95:	48 8b 45 e8          	mov    rax,QWORD PTR [rbp-0x18]
  99:	c9                   	leave
  9a:	c3                   	ret

000000000000009b <array_count>:
  9b:	f3 0f 1e fa          	endbr64
  9f:	55                   	push   rbp
  a0:	48 89 e5             	mov    rbp,rsp
  a3:	48 89 7d e8          	mov    QWORD PTR [rbp-0x18],rdi
  a7:	c7 45 f8 00 00 00 00 	mov    DWORD PTR [rbp-0x8],0x0
  ae:	c7 45 fc 00 00 00 00 	mov    DWORD PTR [rbp-0x4],0x0
  b5:	eb 08                	jmp    bf <array_count+0x24>
  b7:	83 45 f8 01          	add    DWORD PTR [rbp-0x8],0x1
  bb:	83 45 fc 01          	add    DWORD PTR [rbp-0x4],0x1
  bf:	8b 45 fc             	mov    eax,DWORD PTR [rbp-0x4]
  c2:	48 98                	cdqe
  c4:	48 8d 14 c5 00 00 00 	lea    rdx,[rax*8+0x0]
  cb:	00 
  cc:	48 8b 45 e8          	mov    rax,QWORD PTR [rbp-0x18]
  d0:	48 01 d0             	add    rax,rdx
  d3:	48 8b 00             	mov    rax,QWORD PTR [rax]
  d6:	48 85 c0             	test   rax,rax
  d9:	75 dc                	jne    b7 <array_count+0x1c>
  db:	8b 45 f8             	mov    eax,DWORD PTR [rbp-0x8]
  de:	5d                   	pop    rbp
  df:	c3                   	ret

00000000000000e0 <array_append>:
  e0:	f3 0f 1e fa          	endbr64
  e4:	55                   	push   rbp
  e5:	48 89 e5             	mov    rbp,rsp
  e8:	48 83 ec 20          	sub    rsp,0x20
  ec:	48 89 7d e8          	mov    QWORD PTR [rbp-0x18],rdi
  f0:	48 89 75 e0          	mov    QWORD PTR [rbp-0x20],rsi
  f4:	48 83 7d e8 00       	cmp    QWORD PTR [rbp-0x18],0x0
  f9:	75 07                	jne    102 <array_append+0x22>
  fb:	b8 00 00 00 00       	mov    eax,0x0
 100:	eb 7d                	jmp    17f <array_append+0x9f>
 102:	48 8b 45 e8          	mov    rax,QWORD PTR [rbp-0x18]
 106:	48 89 c7             	mov    rdi,rax
 109:	e8 00 00 00 00       	call   10e <array_append+0x2e>
 10e:	89 45 fc             	mov    DWORD PTR [rbp-0x4],eax
 111:	8b 45 fc             	mov    eax,DWORD PTR [rbp-0x4]
 114:	8d 50 01             	lea    edx,[rax+0x1]
 117:	89 55 fc             	mov    DWORD PTR [rbp-0x4],edx
 11a:	48 98                	cdqe
 11c:	48 8d 14 c5 00 00 00 	lea    rdx,[rax*8+0x0]
 123:	00 
 124:	48 8b 45 e8          	mov    rax,QWORD PTR [rbp-0x18]
 128:	48 01 c2             	add    rdx,rax
 12b:	48 8b 45 e0          	mov    rax,QWORD PTR [rbp-0x20]
 12f:	48 89 02             	mov    QWORD PTR [rdx],rax
 132:	8b 45 fc             	mov    eax,DWORD PTR [rbp-0x4]
 135:	83 c0 01             	add    eax,0x1
 138:	c1 e0 03             	shl    eax,0x3
 13b:	89 c2                	mov    edx,eax
 13d:	48 8b 45 e8          	mov    rax,QWORD PTR [rbp-0x18]
 141:	89 d6                	mov    esi,edx
 143:	48 89 c7             	mov    rdi,rax
 146:	e8 00 00 00 00       	call   14b <array_append+0x6b>
 14b:	48 89 45 f0          	mov    QWORD PTR [rbp-0x10],rax
 14f:	8b 45 fc             	mov    eax,DWORD PTR [rbp-0x4]
 152:	48 98                	cdqe
 154:	48 8d 14 c5 00 00 00 	lea    rdx,[rax*8+0x0]
 15b:	00 
 15c:	48 8b 45 f0          	mov    rax,QWORD PTR [rbp-0x10]
 160:	48 01 d0             	add    rax,rdx
 163:	48 c7 00 00 00 00 00 	mov    QWORD PTR [rax],0x0
 16a:	48 8b 45 e8          	mov    rax,QWORD PTR [rbp-0x18]
 16e:	be 01 00 00 00       	mov    esi,0x1
 173:	48 89 c7             	mov    rdi,rax
 176:	e8 00 00 00 00       	call   17b <array_append+0x9b>
 17b:	48 8b 45 f0          	mov    rax,QWORD PTR [rbp-0x10]
 17f:	c9                   	leave
 180:	c3                   	ret

0000000000000181 <array_append_insert>:
 181:	f3 0f 1e fa          	endbr64
 185:	55                   	push   rbp
 186:	48 89 e5             	mov    rbp,rsp
 189:	48 83 ec 40          	sub    rsp,0x40
 18d:	48 89 7d d8          	mov    QWORD PTR [rbp-0x28],rdi
 191:	48 89 75 d0          	mov    QWORD PTR [rbp-0x30],rsi
 195:	89 55 cc             	mov    DWORD PTR [rbp-0x34],edx
 198:	48 83 7d d8 00       	cmp    QWORD PTR [rbp-0x28],0x0
 19d:	75 0a                	jne    1a9 <array_append_insert+0x28>
 19f:	b8 00 00 00 00       	mov    eax,0x0
 1a4:	e9 31 01 00 00       	jmp    2da <array_append_insert+0x159>
 1a9:	48 8b 45 d8          	mov    rax,QWORD PTR [rbp-0x28]
 1ad:	48 89 c7             	mov    rdi,rax
 1b0:	e8 00 00 00 00       	call   1b5 <array_append_insert+0x34>
 1b5:	89 45 f0             	mov    DWORD PTR [rbp-0x10],eax
 1b8:	8b 45 cc             	mov    eax,DWORD PTR [rbp-0x34]
 1bb:	3b 45 f0             	cmp    eax,DWORD PTR [rbp-0x10]
 1be:	7e 0a                	jle    1ca <array_append_insert+0x49>
 1c0:	b8 00 00 00 00       	mov    eax,0x0
 1c5:	e9 10 01 00 00       	jmp    2da <array_append_insert+0x159>
 1ca:	8b 45 f0             	mov    eax,DWORD PTR [rbp-0x10]
 1cd:	83 c0 01             	add    eax,0x1
 1d0:	89 c6                	mov    esi,eax
 1d2:	bf 08 00 00 00       	mov    edi,0x8
 1d7:	e8 00 00 00 00       	call   1dc <array_append_insert+0x5b>
 1dc:	48 89 45 e8          	mov    QWORD PTR [rbp-0x18],rax
 1e0:	c7 45 fc 00 00 00 00 	mov    DWORD PTR [rbp-0x4],0x0
 1e7:	c7 45 f8 00 00 00 00 	mov    DWORD PTR [rbp-0x8],0x0
 1ee:	c7 45 f4 00 00 00 00 	mov    DWORD PTR [rbp-0xc],0x0
 1f5:	eb 6a                	jmp    261 <array_append_insert+0xe0>
 1f7:	8b 45 f4             	mov    eax,DWORD PTR [rbp-0xc]
 1fa:	3b 45 cc             	cmp    eax,DWORD PTR [rbp-0x34]
 1fd:	75 23                	jne    222 <array_append_insert+0xa1>
 1ff:	8b 45 fc             	mov    eax,DWORD PTR [rbp-0x4]
 202:	8d 50 01             	lea    edx,[rax+0x1]
 205:	89 55 fc             	mov    DWORD PTR [rbp-0x4],edx
 208:	48 98                	cdqe
 20a:	48 8d 14 c5 00 00 00 	lea    rdx,[rax*8+0x0]
 211:	00 
 212:	48 8b 45 e8          	mov    rax,QWORD PTR [rbp-0x18]
 216:	48 01 c2             	add    rdx,rax
 219:	48 8b 45 d0          	mov    rax,QWORD PTR [rbp-0x30]
 21d:	48 89 02             	mov    QWORD PTR [rdx],rax
 220:	eb 3b                	jmp    25d <array_append_insert+0xdc>
 222:	8b 45 f8             	mov    eax,DWORD PTR [rbp-0x8]
 225:	8d 50 01             	lea    edx,[rax+0x1]
 228:	89 55 f8             	mov    DWORD PTR [rbp-0x8],edx
 22b:	48 98                	cdqe
 22d:	48 8d 14 c5 00 00 00 	lea    rdx,[rax*8+0x0]
 234:	00 
 235:	48 8b 45 d8          	mov    rax,QWORD PTR [rbp-0x28]
 239:	48 8d 0c 02          	lea    rcx,[rdx+rax*1]
 23d:	8b 45 fc             	mov    eax,DWORD PTR [rbp-0x4]
 240:	8d 50 01             	lea    edx,[rax+0x1]
 243:	89 55 fc             	mov    DWORD PTR [rbp-0x4],edx
 246:	48 98                	cdqe
 248:	48 8d 14 c5 00 00 00 	lea    rdx,[rax*8+0x0]
 24f:	00 
 250:	48 8b 45 e8          	mov    rax,QWORD PTR [rbp-0x18]
 254:	48 01 c2             	add    rdx,rax
 257:	48 8b 01             	mov    rax,QWORD PTR [rcx]
 25a:	48 89 02             	mov    QWORD PTR [rdx],rax
 25d:	83 45 f4 01          	add    DWORD PTR [rbp-0xc],0x1
 261:	8b 45 f4             	mov    eax,DWORD PTR [rbp-0xc]
 264:	3b 45 f0             	cmp    eax,DWORD PTR [rbp-0x10]
 267:	7c 8e                	jl     1f7 <array_append_insert+0x76>
 269:	8b 45 f8             	mov    eax,DWORD PTR [rbp-0x8]
 26c:	8d 50 01             	lea    edx,[rax+0x1]
 26f:	89 55 f8             	mov    DWORD PTR [rbp-0x8],edx
 272:	48 98                	cdqe
 274:	48 8d 14 c5 00 00 00 	lea    rdx,[rax*8+0x0]
 27b:	00 
 27c:	48 8b 45 d8          	mov    rax,QWORD PTR [rbp-0x28]
 280:	48 8d 0c 02          	lea    rcx,[rdx+rax*1]
 284:	8b 45 fc             	mov    eax,DWORD PTR [rbp-0x4]
 287:	8d 50 01             	lea    edx,[rax+0x1]
 28a:	89 55 fc             	mov    DWORD PTR [rbp-0x4],edx
 28d:	48 98                	cdqe
 28f:	48 8d 14 c5 00 00 00 	lea    rdx,[rax*8+0x0]
 296:	00 
 297:	48 8b 45 e8          	mov    rax,QWORD PTR [rbp-0x18]
 29b:	48 01 c2             	add    rdx,rax
 29e:	48 8b 01             	mov    rax,QWORD PTR [rcx]
 2a1:	48 89 02             	mov    QWORD PTR [rdx],rax
 2a4:	8b 45 fc             	mov    eax,DWORD PTR [rbp-0x4]
 2a7:	8d 50 01             	lea    edx,[rax+0x1]
 2aa:	89 55 fc             	mov    DWORD PTR [rbp-0x4],edx
 2ad:	48 98                	cdqe
 2af:	48 8d 14 c5 00 00 00 	lea    rdx,[rax*8+0x0]
 2b6:	00 
 2b7:	48 8b 45 e8          	mov    rax,QWORD PTR [rbp-0x18]
 2bb:	48 01 d0             	add    rax,rdx
 2be:	48 c7 00 00 00 00 00 	mov    QWORD PTR [rax],0x0
 2c5:	48 8b 45 d8          	mov    rax,QWORD PTR [rbp-0x28]
 2c9:	be 01 00 00 00       	mov    esi,0x1
 2ce:	48 89 c7             	mov    rdi,rax
 2d1:	e8 00 00 00 00       	call   2d6 <array_append_insert+0x155>
 2d6:	48 8b 45 e8          	mov    rax,QWORD PTR [rbp-0x18]
 2da:	c9                   	leave
 2db:	c3                   	ret

00000000000002dc <array_contains_ptr>:
 2dc:	f3 0f 1e fa          	endbr64
 2e0:	55                   	push   rbp
 2e1:	48 89 e5             	mov    rbp,rsp
 2e4:	48 89 7d e8          	mov    QWORD PTR [rbp-0x18],rdi
 2e8:	48 89 75 e0          	mov    QWORD PTR [rbp-0x20],rsi
 2ec:	48 83 7d e8 00       	cmp    QWORD PTR [rbp-0x18],0x0
 2f1:	74 07                	je     2fa <array_contains_ptr+0x1e>
 2f3:	48 83 7d e0 00       	cmp    QWORD PTR [rbp-0x20],0x0
 2f8:	75 07                	jne    301 <array_contains_ptr+0x25>
 2fa:	b8 ff ff ff ff       	mov    eax,0xffffffff
 2ff:	eb 50                	jmp    351 <array_contains_ptr+0x75>
 301:	c7 45 fc 00 00 00 00 	mov    DWORD PTR [rbp-0x4],0x0
 308:	eb 26                	jmp    330 <array_contains_ptr+0x54>
 30a:	8b 45 fc             	mov    eax,DWORD PTR [rbp-0x4]
 30d:	48 98                	cdqe
 30f:	48 8d 14 c5 00 00 00 	lea    rdx,[rax*8+0x0]
 316:	00 
 317:	48 8b 45 e8          	mov    rax,QWORD PTR [rbp-0x18]
 31b:	48 01 d0             	add    rax,rdx
 31e:	48 8b 00             	mov    rax,QWORD PTR [rax]
 321:	48 39 45 e0          	cmp    QWORD PTR [rbp-0x20],rax
 325:	75 05                	jne    32c <array_contains_ptr+0x50>
 327:	8b 45 fc             	mov    eax,DWORD PTR [rbp-0x4]
 32a:	eb 25                	jmp    351 <array_contains_ptr+0x75>
 32c:	83 45 fc 01          	add    DWORD PTR [rbp-0x4],0x1
 330:	8b 45 fc             	mov    eax,DWORD PTR [rbp-0x4]
 333:	48 98                	cdqe
 335:	48 8d 14 c5 00 00 00 	lea    rdx,[rax*8+0x0]
 33c:	00 
 33d:	48 8b 45 e8          	mov    rax,QWORD PTR [rbp-0x18]
 341:	48 01 d0             	add    rax,rdx
 344:	48 8b 00             	mov    rax,QWORD PTR [rax]
 347:	48 85 c0             	test   rax,rax
 34a:	75 be                	jne    30a <array_contains_ptr+0x2e>
 34c:	b8 ff ff ff ff       	mov    eax,0xffffffff
 351:	5d                   	pop    rbp
 352:	c3                   	ret

0000000000000353 <array_reverse>:
 353:	f3 0f 1e fa          	endbr64
 357:	55                   	push   rbp
 358:	48 89 e5             	mov    rbp,rsp
 35b:	53                   	push   rbx
 35c:	48 83 ec 38          	sub    rsp,0x38
 360:	48 89 7d c8          	mov    QWORD PTR [rbp-0x38],rdi
 364:	48 83 7d c8 00       	cmp    QWORD PTR [rbp-0x38],0x0
 369:	75 0a                	jne    375 <array_reverse+0x22>
 36b:	b8 00 00 00 00       	mov    eax,0x0
 370:	e9 b5 00 00 00       	jmp    42a <array_reverse+0xd7>
 375:	48 8b 45 c8          	mov    rax,QWORD PTR [rbp-0x38]
 379:	48 89 c7             	mov    rdi,rax
 37c:	e8 00 00 00 00       	call   381 <array_reverse+0x2e>
 381:	48 98                	cdqe
 383:	48 c1 e8 03          	shr    rax,0x3
 387:	89 45 e4             	mov    DWORD PTR [rbp-0x1c],eax
 38a:	8b 45 e4             	mov    eax,DWORD PTR [rbp-0x1c]
 38d:	89 c6                	mov    esi,eax
 38f:	bf 08 00 00 00       	mov    edi,0x8
 394:	e8 00 00 00 00       	call   399 <array_reverse+0x46>
 399:	48 89 45 d8          	mov    QWORD PTR [rbp-0x28],rax
 39d:	c7 45 ec 00 00 00 00 	mov    DWORD PTR [rbp-0x14],0x0
 3a4:	8b 45 e4             	mov    eax,DWORD PTR [rbp-0x1c]
 3a7:	83 e8 01             	sub    eax,0x1
 3aa:	89 45 e8             	mov    DWORD PTR [rbp-0x18],eax
 3ad:	eb 40                	jmp    3ef <array_reverse+0x9c>
 3af:	8b 45 e8             	mov    eax,DWORD PTR [rbp-0x18]
 3b2:	48 98                	cdqe
 3b4:	48 8d 14 c5 00 00 00 	lea    rdx,[rax*8+0x0]
 3bb:	00 
 3bc:	48 8b 45 c8          	mov    rax,QWORD PTR [rbp-0x38]
 3c0:	48 01 d0             	add    rax,rdx
 3c3:	48 8b 00             	mov    rax,QWORD PTR [rax]
 3c6:	8b 55 ec             	mov    edx,DWORD PTR [rbp-0x14]
 3c9:	48 63 d2             	movsxd rdx,edx
 3cc:	48 8d 0c d5 00 00 00 	lea    rcx,[rdx*8+0x0]
 3d3:	00 
 3d4:	48 8b 55 d8          	mov    rdx,QWORD PTR [rbp-0x28]
 3d8:	48 8d 1c 11          	lea    rbx,[rcx+rdx*1]
 3dc:	48 89 c7             	mov    rdi,rax
 3df:	e8 00 00 00 00       	call   3e4 <array_reverse+0x91>
 3e4:	48 89 03             	mov    QWORD PTR [rbx],rax
 3e7:	83 45 ec 01          	add    DWORD PTR [rbp-0x14],0x1
 3eb:	83 6d e8 01          	sub    DWORD PTR [rbp-0x18],0x1
 3ef:	8b 45 ec             	mov    eax,DWORD PTR [rbp-0x14]
 3f2:	48 98                	cdqe
 3f4:	48 8d 14 c5 00 00 00 	lea    rdx,[rax*8+0x0]
 3fb:	00 
 3fc:	48 8b 45 c8          	mov    rax,QWORD PTR [rbp-0x38]
 400:	48 01 d0             	add    rax,rdx
 403:	48 8b 00             	mov    rax,QWORD PTR [rax]
 406:	48 85 c0             	test   rax,rax
 409:	75 a4                	jne    3af <array_reverse+0x5c>
 40b:	8b 45 e4             	mov    eax,DWORD PTR [rbp-0x1c]
 40e:	48 98                	cdqe
 410:	48 8d 14 c5 00 00 00 	lea    rdx,[rax*8+0x0]
 417:	00 
 418:	48 8b 45 d8          	mov    rax,QWORD PTR [rbp-0x28]
 41c:	48 01 d0             	add    rax,rdx
 41f:	48 c7 00 00 00 00 00 	mov    QWORD PTR [rax],0x0
 426:	48 8b 45 d8          	mov    rax,QWORD PTR [rbp-0x28]
 42a:	48 8b 5d f8          	mov    rbx,QWORD PTR [rbp-0x8]
 42e:	c9                   	leave
 42f:	c3                   	ret

0000000000000430 <array_contains_str>:
 430:	f3 0f 1e fa          	endbr64
 434:	55                   	push   rbp
 435:	48 89 e5             	mov    rbp,rsp
 438:	48 83 ec 20          	sub    rsp,0x20
 43c:	48 89 7d e8          	mov    QWORD PTR [rbp-0x18],rdi
 440:	48 89 75 e0          	mov    QWORD PTR [rbp-0x20],rsi
 444:	48 83 7d e8 00       	cmp    QWORD PTR [rbp-0x18],0x0
 449:	74 07                	je     452 <array_contains_str+0x22>
 44b:	48 83 7d e0 00       	cmp    QWORD PTR [rbp-0x20],0x0
 450:	75 07                	jne    459 <array_contains_str+0x29>
 452:	b8 ff ff ff ff       	mov    eax,0xffffffff
 457:	eb 5d                	jmp    4b6 <array_contains_str+0x86>
 459:	c7 45 fc 00 00 00 00 	mov    DWORD PTR [rbp-0x4],0x0
 460:	eb 33                	jmp    495 <array_contains_str+0x65>
 462:	8b 45 fc             	mov    eax,DWORD PTR [rbp-0x4]
 465:	48 98                	cdqe
 467:	48 8d 14 c5 00 00 00 	lea    rdx,[rax*8+0x0]
 46e:	00 
 46f:	48 8b 45 e8          	mov    rax,QWORD PTR [rbp-0x18]
 473:	48 01 d0             	add    rax,rdx
 476:	48 8b 00             	mov    rax,QWORD PTR [rax]
 479:	48 8b 55 e0          	mov    rdx,QWORD PTR [rbp-0x20]
 47d:	48 89 d6             	mov    rsi,rdx
 480:	48 89 c7             	mov    rdi,rax
 483:	e8 00 00 00 00       	call   488 <array_contains_str+0x58>
 488:	84 c0                	test   al,al
 48a:	74 05                	je     491 <array_contains_str+0x61>
 48c:	8b 45 fc             	mov    eax,DWORD PTR [rbp-0x4]
 48f:	eb 25                	jmp    4b6 <array_contains_str+0x86>
 491:	83 45 fc 01          	add    DWORD PTR [rbp-0x4],0x1
 495:	8b 45 fc             	mov    eax,DWORD PTR [rbp-0x4]
 498:	48 98                	cdqe
 49a:	48 8d 14 c5 00 00 00 	lea    rdx,[rax*8+0x0]
 4a1:	00 
 4a2:	48 8b 45 e8          	mov    rax,QWORD PTR [rbp-0x18]
 4a6:	48 01 d0             	add    rax,rdx
 4a9:	48 8b 00             	mov    rax,QWORD PTR [rax]
 4ac:	48 85 c0             	test   rax,rax
 4af:	75 b1                	jne    462 <array_contains_str+0x32>
 4b1:	b8 ff ff ff ff       	mov    eax,0xffffffff
 4b6:	c9                   	leave
 4b7:	c3                   	ret

char.o:     file format elf64-x86-64


Disassembly of section .text:

0000000000000000 <is_ascii>:
   0:	f3 0f 1e fa          	endbr64
   4:	55                   	push   rbp
   5:	48 89 e5             	mov    rbp,rsp
   8:	89 f8                	mov    eax,edi
   a:	88 45 fc             	mov    BYTE PTR [rbp-0x4],al
   d:	0f b6 45 fc          	movzx  eax,BYTE PTR [rbp-0x4]
  11:	f7 d0                	not    eax
  13:	c0 e8 07             	shr    al,0x7
  16:	0f b6 c0             	movzx  eax,al
  19:	5d                   	pop    rbp
  1a:	c3                   	ret

000000000000001b <is_ascii_alpha>:
  1b:	f3 0f 1e fa          	endbr64
  1f:	55                   	push   rbp
  20:	48 89 e5             	mov    rbp,rsp
  23:	89 f8                	mov    eax,edi
  25:	88 45 ec             	mov    BYTE PTR [rbp-0x14],al
  28:	0f b6 45 ec          	movzx  eax,BYTE PTR [rbp-0x14]
  2c:	88 45 ff             	mov    BYTE PTR [rbp-0x1],al
  2f:	80 7d ff 61          	cmp    BYTE PTR [rbp-0x1],0x61
  33:	76 06                	jbe    3b <is_ascii_alpha+0x20>
  35:	80 7d ff 79          	cmp    BYTE PTR [rbp-0x1],0x79
  39:	76 0c                	jbe    47 <is_ascii_alpha+0x2c>
  3b:	80 7d ff 41          	cmp    BYTE PTR [rbp-0x1],0x41
  3f:	76 0d                	jbe    4e <is_ascii_alpha+0x33>
  41:	80 7d ff 59          	cmp    BYTE PTR [rbp-0x1],0x59
  45:	77 07                	ja     4e <is_ascii_alpha+0x33>
  47:	b8 01 00 00 00       	mov    eax,0x1
  4c:	eb 05                	jmp    53 <is_ascii_alpha+0x38>
  4e:	b8 00 00 00 00       	mov    eax,0x0
  53:	5d                   	pop    rbp
  54:	c3                   	ret

0000000000000055 <count_char>:
  55:	f3 0f 1e fa          	endbr64
  59:	55                   	push   rbp
  5a:	48 89 e5             	mov    rbp,rsp
  5d:	48 89 7d e8          	mov    QWORD PTR [rbp-0x18],rdi
  61:	89 f0                	mov    eax,esi
  63:	88 45 e4             	mov    BYTE PTR [rbp-0x1c],al
  66:	48 83 7d e8 00       	cmp    QWORD PTR [rbp-0x18],0x0
  6b:	75 07                	jne    74 <count_char+0x1f>
  6d:	b8 ff ff ff ff       	mov    eax,0xffffffff
  72:	eb 44                	jmp    b8 <count_char+0x63>
  74:	c7 45 f8 00 00 00 00 	mov    DWORD PTR [rbp-0x8],0x0
  7b:	c7 45 fc 00 00 00 00 	mov    DWORD PTR [rbp-0x4],0x0
  82:	eb 1d                	jmp    a1 <count_char+0x4c>
  84:	8b 45 fc             	mov    eax,DWORD PTR [rbp-0x4]
  87:	48 63 d0             	movsxd rdx,eax
  8a:	48 8b 45 e8          	mov    rax,QWORD PTR [rbp-0x18]
  8e:	48 01 d0             	add    rax,rdx
  91:	0f b6 00             	movzx  eax,BYTE PTR [rax]
  94:	38 45 e4             	cmp    BYTE PTR [rbp-0x1c],al
  97:	75 04                	jne    9d <count_char+0x48>
  99:	83 45 f8 01          	add    DWORD PTR [rbp-0x8],0x1
  9d:	83 45 fc 01          	add    DWORD PTR [rbp-0x4],0x1
  a1:	8b 45 fc             	mov    eax,DWORD PTR [rbp-0x4]
  a4:	48 63 d0             	movsxd rdx,eax
  a7:	48 8b 45 e8          	mov    rax,QWORD PTR [rbp-0x18]
  ab:	48 01 d0             	add    rax,rdx
  ae:	0f b6 00             	movzx  eax,BYTE PTR [rax]
  b1:	84 c0                	test   al,al
  b3:	75 cf                	jne    84 <count_char+0x2f>
  b5:	8b 45 f8             	mov    eax,DWORD PTR [rbp-0x8]
  b8:	5d                   	pop    rbp
  b9:	c3                   	ret

00000000000000ba <find_char>:
  ba:	f3 0f 1e fa          	endbr64
  be:	55                   	push   rbp
  bf:	48 89 e5             	mov    rbp,rsp
  c2:	48 83 ec 10          	sub    rsp,0x10
  c6:	48 89 7d f8          	mov    QWORD PTR [rbp-0x8],rdi
  ca:	89 f0                	mov    eax,esi
  cc:	88 45 f4             	mov    BYTE PTR [rbp-0xc],al
  cf:	0f be 4d f4          	movsx  ecx,BYTE PTR [rbp-0xc]
  d3:	48 8b 45 f8          	mov    rax,QWORD PTR [rbp-0x8]
  d7:	ba 01 00 00 00       	mov    edx,0x1
  dc:	89 ce                	mov    esi,ecx
  de:	48 89 c7             	mov    rdi,rax
  e1:	e8 00 00 00 00       	call   e6 <find_char+0x2c>
  e6:	c9                   	leave
  e7:	c3                   	ret

00000000000000e8 <find_char_at>:
  e8:	f3 0f 1e fa          	endbr64
  ec:	55                   	push   rbp
  ed:	48 89 e5             	mov    rbp,rsp
  f0:	48 89 7d e8          	mov    QWORD PTR [rbp-0x18],rdi
  f4:	89 f0                	mov    eax,esi
  f6:	89 55 e0             	mov    DWORD PTR [rbp-0x20],edx
  f9:	88 45 e4             	mov    BYTE PTR [rbp-0x1c],al
  fc:	48 83 7d e8 00       	cmp    QWORD PTR [rbp-0x18],0x0
 101:	75 07                	jne    10a <find_char_at+0x22>
 103:	b8 ff ff ff ff       	mov    eax,0xffffffff
 108:	eb 53                	jmp    15d <find_char_at+0x75>
 10a:	c7 45 f8 00 00 00 00 	mov    DWORD PTR [rbp-0x8],0x0
 111:	c7 45 fc 00 00 00 00 	mov    DWORD PTR [rbp-0x4],0x0
 118:	eb 2a                	jmp    144 <find_char_at+0x5c>
 11a:	8b 45 fc             	mov    eax,DWORD PTR [rbp-0x4]
 11d:	48 63 d0             	movsxd rdx,eax
 120:	48 8b 45 e8          	mov    rax,QWORD PTR [rbp-0x18]
 124:	48 01 d0             	add    rax,rdx
 127:	0f b6 00             	movzx  eax,BYTE PTR [rax]
 12a:	38 45 e4             	cmp    BYTE PTR [rbp-0x1c],al
 12d:	75 04                	jne    133 <find_char_at+0x4b>
 12f:	83 45 f8 01          	add    DWORD PTR [rbp-0x8],0x1
 133:	8b 45 e0             	mov    eax,DWORD PTR [rbp-0x20]
 136:	3b 45 f8             	cmp    eax,DWORD PTR [rbp-0x8]
 139:	75 05                	jne    140 <find_char_at+0x58>
 13b:	8b 45 fc             	mov    eax,DWORD PTR [rbp-0x4]
 13e:	eb 1d                	jmp    15d <find_char_at+0x75>
 140:	83 45 fc 01          	add    DWORD PTR [rbp-0x4],0x1
 144:	8b 45 fc             	mov    eax,DWORD PTR [rbp-0x4]
 147:	48 63 d0             	movsxd rdx,eax
 14a:	48 8b 45 e8          	mov    rax,QWORD PTR [rbp-0x18]
 14e:	48 01 d0             	add    rax,rdx
 151:	0f b6 00             	movzx  eax,BYTE PTR [rax]
 154:	84 c0                	test   al,al
 156:	75 c2                	jne    11a <find_char_at+0x32>
 158:	b8 ff ff ff ff       	mov    eax,0xffffffff
 15d:	5d                   	pop    rbp
 15e:	c3                   	ret

000000000000015f <find_last_char_at>:
 15f:	f3 0f 1e fa          	endbr64
 163:	55                   	push   rbp
 164:	48 89 e5             	mov    rbp,rsp
 167:	48 83 ec 20          	sub    rsp,0x20
 16b:	48 89 7d e8          	mov    QWORD PTR [rbp-0x18],rdi
 16f:	89 f0                	mov    eax,esi
 171:	88 45 e4             	mov    BYTE PTR [rbp-0x1c],al
 174:	48 83 7d e8 00       	cmp    QWORD PTR [rbp-0x18],0x0
 179:	75 06                	jne    181 <find_last_char_at+0x22>
 17b:	80 7d e4 00          	cmp    BYTE PTR [rbp-0x1c],0x0
 17f:	74 07                	je     188 <find_last_char_at+0x29>
 181:	b8 ff ff ff ff       	mov    eax,0xffffffff
 186:	eb 79                	jmp    201 <find_last_char_at+0xa2>
 188:	c7 45 fc 00 00 00 00 	mov    DWORD PTR [rbp-0x4],0x0
 18f:	48 8b 45 e8          	mov    rax,QWORD PTR [rbp-0x18]
 193:	48 89 c7             	mov    rdi,rax
 196:	e8 00 00 00 00       	call   19b <find_last_char_at+0x3c>
 19b:	8b 40 0c             	mov    eax,DWORD PTR [rax+0xc]
 19e:	83 f8 7c             	cmp    eax,0x7c
 1a1:	75 11                	jne    1b4 <find_last_char_at+0x55>
 1a3:	48 8b 45 e8          	mov    rax,QWORD PTR [rbp-0x18]
 1a7:	48 89 c7             	mov    rdi,rax
 1aa:	e8 00 00 00 00       	call   1af <find_last_char_at+0x50>
 1af:	89 45 fc             	mov    DWORD PTR [rbp-0x4],eax
 1b2:	eb 0f                	jmp    1c3 <find_last_char_at+0x64>
 1b4:	48 8b 45 e8          	mov    rax,QWORD PTR [rbp-0x18]
 1b8:	48 89 c7             	mov    rdi,rax
 1bb:	e8 00 00 00 00       	call   1c0 <find_last_char_at+0x61>
 1c0:	89 45 fc             	mov    DWORD PTR [rbp-0x4],eax
 1c3:	83 7d fc 00          	cmp    DWORD PTR [rbp-0x4],0x0
 1c7:	75 07                	jne    1d0 <find_last_char_at+0x71>
 1c9:	b8 ff ff ff ff       	mov    eax,0xffffffff
 1ce:	eb 31                	jmp    201 <find_last_char_at+0xa2>
 1d0:	8b 45 fc             	mov    eax,DWORD PTR [rbp-0x4]
 1d3:	89 45 f8             	mov    DWORD PTR [rbp-0x8],eax
 1d6:	eb 1e                	jmp    1f6 <find_last_char_at+0x97>
 1d8:	8b 45 f8             	mov    eax,DWORD PTR [rbp-0x8]
 1db:	48 63 d0             	movsxd rdx,eax
 1de:	48 8b 45 e8          	mov    rax,QWORD PTR [rbp-0x18]
 1e2:	48 01 d0             	add    rax,rdx
 1e5:	0f b6 00             	movzx  eax,BYTE PTR [rax]
 1e8:	38 45 e4             	cmp    BYTE PTR [rbp-0x1c],al
 1eb:	75 05                	jne    1f2 <find_last_char_at+0x93>
 1ed:	8b 45 f8             	mov    eax,DWORD PTR [rbp-0x8]
 1f0:	eb 0f                	jmp    201 <find_last_char_at+0xa2>
 1f2:	83 6d f8 01          	sub    DWORD PTR [rbp-0x8],0x1
 1f6:	83 7d f8 00          	cmp    DWORD PTR [rbp-0x8],0x0
 1fa:	75 dc                	jne    1d8 <find_last_char_at+0x79>
 1fc:	b8 ff ff ff ff       	mov    eax,0xffffffff
 201:	c9                   	leave
 202:	c3                   	ret

0000000000000203 <_find_char_at>:
 203:	f3 0f 1e fa          	endbr64
 207:	55                   	push   rbp
 208:	48 89 e5             	mov    rbp,rsp
 20b:	48 89 7d e8          	mov    QWORD PTR [rbp-0x18],rdi
 20f:	89 f0                	mov    eax,esi
 211:	89 55 e0             	mov    DWORD PTR [rbp-0x20],edx
 214:	48 89 4d d8          	mov    QWORD PTR [rbp-0x28],rcx
 218:	88 45 e4             	mov    BYTE PTR [rbp-0x1c],al
 21b:	48 83 7d e8 00       	cmp    QWORD PTR [rbp-0x18],0x0
 220:	75 07                	jne    229 <_find_char_at+0x26>
 222:	b8 ff ff ff ff       	mov    eax,0xffffffff
 227:	eb 60                	jmp    289 <_find_char_at+0x86>
 229:	c7 45 fc 00 00 00 00 	mov    DWORD PTR [rbp-0x4],0x0
 230:	eb 3b                	jmp    26d <_find_char_at+0x6a>
 232:	48 8b 45 d8          	mov    rax,QWORD PTR [rbp-0x28]
 236:	8b 00                	mov    eax,DWORD PTR [rax]
 238:	48 63 d0             	movsxd rdx,eax
 23b:	48 8b 45 e8          	mov    rax,QWORD PTR [rbp-0x18]
 23f:	48 01 d0             	add    rax,rdx
 242:	0f b6 00             	movzx  eax,BYTE PTR [rax]
 245:	38 45 e4             	cmp    BYTE PTR [rbp-0x1c],al
 248:	75 04                	jne    24e <_find_char_at+0x4b>
 24a:	83 45 fc 01          	add    DWORD PTR [rbp-0x4],0x1
 24e:	8b 45 fc             	mov    eax,DWORD PTR [rbp-0x4]
 251:	3b 45 e0             	cmp    eax,DWORD PTR [rbp-0x20]
 254:	75 08                	jne    25e <_find_char_at+0x5b>
 256:	48 8b 45 d8          	mov    rax,QWORD PTR [rbp-0x28]
 25a:	8b 00                	mov    eax,DWORD PTR [rax]
 25c:	eb 2b                	jmp    289 <_find_char_at+0x86>
 25e:	48 8b 45 d8          	mov    rax,QWORD PTR [rbp-0x28]
 262:	8b 00                	mov    eax,DWORD PTR [rax]
 264:	8d 50 01             	lea    edx,[rax+0x1]
 267:	48 8b 45 d8          	mov    rax,QWORD PTR [rbp-0x28]
 26b:	89 10                	mov    DWORD PTR [rax],edx
 26d:	48 8b 45 d8          	mov    rax,QWORD PTR [rbp-0x28]
 271:	8b 00                	mov    eax,DWORD PTR [rax]
 273:	48 63 d0             	movsxd rdx,eax
 276:	48 8b 45 e8          	mov    rax,QWORD PTR [rbp-0x18]
 27a:	48 01 d0             	add    rax,rdx
 27d:	0f b6 00             	movzx  eax,BYTE PTR [rax]
 280:	84 c0                	test   al,al
 282:	75 ae                	jne    232 <_find_char_at+0x2f>
 284:	b8 ff ff ff ff       	mov    eax,0xffffffff
 289:	5d                   	pop    rbp
 28a:	c3                   	ret

000000000000028b <replace_char>:
 28b:	f3 0f 1e fa          	endbr64
 28f:	55                   	push   rbp
 290:	48 89 e5             	mov    rbp,rsp
 293:	48 89 7d e8          	mov    QWORD PTR [rbp-0x18],rdi
 297:	89 f1                	mov    ecx,esi
 299:	89 d0                	mov    eax,edx
 29b:	89 ca                	mov    edx,ecx
 29d:	88 55 e4             	mov    BYTE PTR [rbp-0x1c],dl
 2a0:	88 45 e0             	mov    BYTE PTR [rbp-0x20],al
 2a3:	48 83 7d e8 00       	cmp    QWORD PTR [rbp-0x18],0x0
 2a8:	75 07                	jne    2b1 <replace_char+0x26>
 2aa:	b8 00 00 00 00       	mov    eax,0x0
 2af:	eb 57                	jmp    308 <replace_char+0x7d>
 2b1:	c7 45 fc 00 00 00 00 	mov    DWORD PTR [rbp-0x4],0x0
 2b8:	c7 45 f8 00 00 00 00 	mov    DWORD PTR [rbp-0x8],0x0
 2bf:	eb 30                	jmp    2f1 <replace_char+0x66>
 2c1:	8b 45 f8             	mov    eax,DWORD PTR [rbp-0x8]
 2c4:	48 63 d0             	movsxd rdx,eax
 2c7:	48 8b 45 e8          	mov    rax,QWORD PTR [rbp-0x18]
 2cb:	48 01 d0             	add    rax,rdx
 2ce:	0f b6 00             	movzx  eax,BYTE PTR [rax]
 2d1:	38 45 e4             	cmp    BYTE PTR [rbp-0x1c],al
 2d4:	75 17                	jne    2ed <replace_char+0x62>
 2d6:	8b 45 f8             	mov    eax,DWORD PTR [rbp-0x8]
 2d9:	48 63 d0             	movsxd rdx,eax
 2dc:	48 8b 45 e8          	mov    rax,QWORD PTR [rbp-0x18]
 2e0:	48 01 c2             	add    rdx,rax
 2e3:	0f b6 45 e0          	movzx  eax,BYTE PTR [rbp-0x20]
 2e7:	88 02                	mov    BYTE PTR [rdx],al
 2e9:	83 45 fc 01          	add    DWORD PTR [rbp-0x4],0x1
 2ed:	83 45 f8 01          	add    DWORD PTR [rbp-0x8],0x1
 2f1:	8b 45 f8             	mov    eax,DWORD PTR [rbp-0x8]
 2f4:	48 63 d0             	movsxd rdx,eax
 2f7:	48 8b 45 e8          	mov    rax,QWORD PTR [rbp-0x18]
 2fb:	48 01 d0             	add    rax,rdx
 2fe:	0f b6 00             	movzx  eax,BYTE PTR [rax]
 301:	84 c0                	test   al,al
 303:	75 bc                	jne    2c1 <replace_char+0x36>
 305:	8b 45 fc             	mov    eax,DWORD PTR [rbp-0x4]
 308:	5d                   	pop    rbp
 309:	c3                   	ret

000000000000030a <trim_char>:
 30a:	f3 0f 1e fa          	endbr64
 30e:	55                   	push   rbp
 30f:	48 89 e5             	mov    rbp,rsp
 312:	48 89 7d e8          	mov    QWORD PTR [rbp-0x18],rdi
 316:	89 75 e4             	mov    DWORD PTR [rbp-0x1c],esi
 319:	48 83 7d e8 00       	cmp    QWORD PTR [rbp-0x18],0x0
 31e:	75 07                	jne    327 <trim_char+0x1d>
 320:	b8 00 00 00 00       	mov    eax,0x0
 325:	eb 64                	jmp    38b <trim_char+0x81>
 327:	c7 45 fc 00 00 00 00 	mov    DWORD PTR [rbp-0x4],0x0
 32e:	c7 45 f8 00 00 00 00 	mov    DWORD PTR [rbp-0x8],0x0
 335:	eb 3b                	jmp    372 <trim_char+0x68>
 337:	8b 45 f8             	mov    eax,DWORD PTR [rbp-0x8]
 33a:	3b 45 e4             	cmp    eax,DWORD PTR [rbp-0x1c]
 33d:	74 2e                	je     36d <trim_char+0x63>
 33f:	8b 45 f8             	mov    eax,DWORD PTR [rbp-0x8]
 342:	48 63 d0             	movsxd rdx,eax
 345:	48 8b 45 e8          	mov    rax,QWORD PTR [rbp-0x18]
 349:	48 01 d0             	add    rax,rdx
 34c:	0f b6 00             	movzx  eax,BYTE PTR [rax]
 34f:	88 45 f7             	mov    BYTE PTR [rbp-0x9],al
 352:	8b 45 fc             	mov    eax,DWORD PTR [rbp-0x4]
 355:	8d 50 01             	lea    edx,[rax+0x1]
 358:	89 55 fc             	mov    DWORD PTR [rbp-0x4],edx
 35b:	48 63 d0             	movsxd rdx,eax
 35e:	48 8b 45 e8          	mov    rax,QWORD PTR [rbp-0x18]
 362:	48 01 c2             	add    rdx,rax
 365:	0f b6 45 f7          	movzx  eax,BYTE PTR [rbp-0x9]
 369:	88 02                	mov    BYTE PTR [rdx],al
 36b:	eb 01                	jmp    36e <trim_char+0x64>
 36d:	90                   	nop
 36e:	83 45 f8 01          	add    DWORD PTR [rbp-0x8],0x1
 372:	8b 45 f8             	mov    eax,DWORD PTR [rbp-0x8]
 375:	48 63 d0             	movsxd rdx,eax
 378:	48 8b 45 e8          	mov    rax,QWORD PTR [rbp-0x18]
 37c:	48 01 d0             	add    rax,rdx
 37f:	0f b6 00             	movzx  eax,BYTE PTR [rax]
 382:	84 c0                	test   al,al
 384:	75 b1                	jne    337 <trim_char+0x2d>
 386:	b8 01 00 00 00       	mov    eax,0x1
 38b:	5d                   	pop    rbp
 38c:	c3                   	ret

000000000000038d <trim_char_idx>:
 38d:	f3 0f 1e fa          	endbr64
 391:	55                   	push   rbp
 392:	48 89 e5             	mov    rbp,rsp
 395:	48 89 7d e8          	mov    QWORD PTR [rbp-0x18],rdi
 399:	89 75 e4             	mov    DWORD PTR [rbp-0x1c],esi
 39c:	48 83 7d e8 00       	cmp    QWORD PTR [rbp-0x18],0x0
 3a1:	75 07                	jne    3aa <trim_char_idx+0x1d>
 3a3:	b8 00 00 00 00       	mov    eax,0x0
 3a8:	eb 64                	jmp    40e <trim_char_idx+0x81>
 3aa:	c7 45 fc 00 00 00 00 	mov    DWORD PTR [rbp-0x4],0x0
 3b1:	c7 45 f8 00 00 00 00 	mov    DWORD PTR [rbp-0x8],0x0
 3b8:	eb 3b                	jmp    3f5 <trim_char_idx+0x68>
 3ba:	8b 45 f8             	mov    eax,DWORD PTR [rbp-0x8]
 3bd:	3b 45 e4             	cmp    eax,DWORD PTR [rbp-0x1c]
 3c0:	74 2e                	je     3f0 <trim_char_idx+0x63>
 3c2:	8b 45 f8             	mov    eax,DWORD PTR [rbp-0x8]
 3c5:	48 63 d0             	movsxd rdx,eax
 3c8:	48 8b 45 e8          	mov    rax,QWORD PTR [rbp-0x18]
 3cc:	48 01 d0             	add    rax,rdx
 3cf:	0f b6 00             	movzx  eax,BYTE PTR [rax]
 3d2:	88 45 f7             	mov    BYTE PTR [rbp-0x9],al
 3d5:	8b 45 fc             	mov    eax,DWORD PTR [rbp-0x4]
 3d8:	8d 50 01             	lea    edx,[rax+0x1]
 3db:	89 55 fc             	mov    DWORD PTR [rbp-0x4],edx
 3de:	48 63 d0             	movsxd rdx,eax
 3e1:	48 8b 45 e8          	mov    rax,QWORD PTR [rbp-0x18]
 3e5:	48 01 c2             	add    rdx,rax
 3e8:	0f b6 45 f7          	movzx  eax,BYTE PTR [rbp-0x9]
 3ec:	88 02                	mov    BYTE PTR [rdx],al
 3ee:	eb 01                	jmp    3f1 <trim_char_idx+0x64>
 3f0:	90                   	nop
 3f1:	83 45 f8 01          	add    DWORD PTR [rbp-0x8],0x1
 3f5:	8b 45 f8             	mov    eax,DWORD PTR [rbp-0x8]
 3f8:	48 63 d0             	movsxd rdx,eax
 3fb:	48 8b 45 e8          	mov    rax,QWORD PTR [rbp-0x18]
 3ff:	48 01 d0             	add    rax,rdx
 402:	0f b6 00             	movzx  eax,BYTE PTR [rax]
 405:	84 c0                	test   al,al
 407:	75 b1                	jne    3ba <trim_char_idx+0x2d>
 409:	b8 01 00 00 00       	mov    eax,0x1
 40e:	5d                   	pop    rbp
 40f:	c3                   	ret

file.o:     file format elf64-x86-64


Disassembly of section .text:

0000000000000000 <open_file>:
   0:	f3 0f 1e fa          	endbr64
   4:	55                   	push   rbp
   5:	48 89 e5             	mov    rbp,rsp
   8:	48 83 ec 20          	sub    rsp,0x20
   c:	48 89 7d e8          	mov    QWORD PTR [rbp-0x18],rdi
  10:	89 75 e4             	mov    DWORD PTR [rbp-0x1c],esi
  13:	89 55 e0             	mov    DWORD PTR [rbp-0x20],edx
  16:	c7 45 fc 00 00 00 00 	mov    DWORD PTR [rbp-0x4],0x0
  1d:	8b 55 e4             	mov    edx,DWORD PTR [rbp-0x1c]
  20:	8b 45 e0             	mov    eax,DWORD PTR [rbp-0x20]
  23:	48 63 f0             	movsxd rsi,eax
  26:	48 8b 45 e8          	mov    rax,QWORD PTR [rbp-0x18]
  2a:	48 83 ec 08          	sub    rsp,0x8
  2e:	6a 02                	push   0x2
  30:	49 c7 c1 ff ff ff ff 	mov    r9,0xffffffffffffffff
  37:	49 c7 c0 ff ff ff ff 	mov    r8,0xffffffffffffffff
  3e:	48 c7 c1 ff ff ff ff 	mov    rcx,0xffffffffffffffff
  45:	48 89 c7             	mov    rdi,rax
  48:	e8 00 00 00 00       	call   4d <open_file+0x4d>
  4d:	48 83 c4 10          	add    rsp,0x10
  51:	89 45 fc             	mov    DWORD PTR [rbp-0x4],eax
  54:	83 7d fc fe          	cmp    DWORD PTR [rbp-0x4],0xfffffffe
  58:	75 1e                	jne    78 <open_file+0x78>
  5a:	48 8d 0d 00 00 00 00 	lea    rcx,[rip+0x0]        # 61 <open_file+0x61>
  61:	48 8d 05 00 00 00 00 	lea    rax,[rip+0x0]        # 68 <open_file+0x68>
  68:	ba 0f 00 00 00       	mov    edx,0xf
  6d:	48 89 ce             	mov    rsi,rcx
  70:	48 89 c7             	mov    rdi,rax
  73:	e8 00 00 00 00       	call   78 <open_file+0x78>
  78:	83 7d fc 00          	cmp    DWORD PTR [rbp-0x4],0x0
  7c:	79 07                	jns    85 <open_file+0x85>
  7e:	b8 ff ff ff ff       	mov    eax,0xffffffff
  83:	eb 03                	jmp    88 <open_file+0x88>
  85:	8b 45 fc             	mov    eax,DWORD PTR [rbp-0x4]
  88:	c9                   	leave
  89:	c3                   	ret

000000000000008a <file_content_size>:
  8a:	f3 0f 1e fa          	endbr64
  8e:	55                   	push   rbp
  8f:	48 89 e5             	mov    rbp,rsp
  92:	48 83 ec 20          	sub    rsp,0x20
  96:	89 7d ec             	mov    DWORD PTR [rbp-0x14],edi
  99:	8b 45 ec             	mov    eax,DWORD PTR [rbp-0x14]
  9c:	48 83 ec 08          	sub    rsp,0x8
  a0:	6a 08                	push   0x8
  a2:	49 c7 c1 ff ff ff ff 	mov    r9,0xffffffffffffffff
  a9:	49 c7 c0 ff ff ff ff 	mov    r8,0xffffffffffffffff
  b0:	48 c7 c1 ff ff ff ff 	mov    rcx,0xffffffffffffffff
  b7:	ba 02 00 00 00       	mov    edx,0x2
  bc:	be 00 00 00 00       	mov    esi,0x0
  c1:	48 89 c7             	mov    rdi,rax
  c4:	e8 00 00 00 00       	call   c9 <file_content_size+0x3f>
  c9:	48 83 c4 10          	add    rsp,0x10
  cd:	48 89 45 f8          	mov    QWORD PTR [rbp-0x8],rax
  d1:	8b 45 ec             	mov    eax,DWORD PTR [rbp-0x14]
  d4:	48 83 ec 08          	sub    rsp,0x8
  d8:	6a 08                	push   0x8
  da:	49 c7 c1 ff ff ff ff 	mov    r9,0xffffffffffffffff
  e1:	49 c7 c0 ff ff ff ff 	mov    r8,0xffffffffffffffff
  e8:	48 c7 c1 ff ff ff ff 	mov    rcx,0xffffffffffffffff
  ef:	ba 00 00 00 00       	mov    edx,0x0
  f4:	be 00 00 00 00       	mov    esi,0x0
  f9:	48 89 c7             	mov    rdi,rax
  fc:	e8 00 00 00 00       	call   101 <file_content_size+0x77>
 101:	48 83 c4 10          	add    rsp,0x10
 105:	48 83 7d f8 ff       	cmp    QWORD PTR [rbp-0x8],0xffffffffffffffff
 10a:	75 1e                	jne    12a <file_content_size+0xa0>
 10c:	48 8d 0d 00 00 00 00 	lea    rcx,[rip+0x0]        # 113 <file_content_size+0x89>
 113:	48 8d 05 00 00 00 00 	lea    rax,[rip+0x0]        # 11a <file_content_size+0x90>
 11a:	ba 1d 00 00 00       	mov    edx,0x1d
 11f:	48 89 ce             	mov    rsi,rcx
 122:	48 89 c7             	mov    rdi,rax
 125:	e8 00 00 00 00       	call   12a <file_content_size+0xa0>
 12a:	48 8b 45 f8          	mov    rax,QWORD PTR [rbp-0x8]
 12e:	c9                   	leave
 12f:	c3                   	ret

0000000000000130 <file_read>:
 130:	f3 0f 1e fa          	endbr64
 134:	55                   	push   rbp
 135:	48 89 e5             	mov    rbp,rsp
 138:	48 83 ec 20          	sub    rsp,0x20
 13c:	89 7d ec             	mov    DWORD PTR [rbp-0x14],edi
 13f:	48 89 75 e0          	mov    QWORD PTR [rbp-0x20],rsi
 143:	89 55 e8             	mov    DWORD PTR [rbp-0x18],edx
 146:	8b 45 e8             	mov    eax,DWORD PTR [rbp-0x18]
 149:	48 63 d0             	movsxd rdx,eax
 14c:	48 8b 75 e0          	mov    rsi,QWORD PTR [rbp-0x20]
 150:	8b 45 ec             	mov    eax,DWORD PTR [rbp-0x14]
 153:	48 83 ec 08          	sub    rsp,0x8
 157:	6a 00                	push   0x0
 159:	49 c7 c1 ff ff ff ff 	mov    r9,0xffffffffffffffff
 160:	49 c7 c0 ff ff ff ff 	mov    r8,0xffffffffffffffff
 167:	48 c7 c1 ff ff ff ff 	mov    rcx,0xffffffffffffffff
 16e:	48 89 c7             	mov    rdi,rax
 171:	e8 00 00 00 00       	call   176 <file_read+0x46>
 176:	48 83 c4 10          	add    rsp,0x10
 17a:	48 89 45 f8          	mov    QWORD PTR [rbp-0x8],rax
 17e:	48 8b 45 f8          	mov    rax,QWORD PTR [rbp-0x8]
 182:	c9                   	leave
 183:	c3                   	ret

0000000000000184 <file_write>:
 184:	f3 0f 1e fa          	endbr64
 188:	55                   	push   rbp
 189:	48 89 e5             	mov    rbp,rsp
 18c:	48 83 ec 10          	sub    rsp,0x10
 190:	89 7d fc             	mov    DWORD PTR [rbp-0x4],edi
 193:	48 89 75 f0          	mov    QWORD PTR [rbp-0x10],rsi
 197:	89 55 f8             	mov    DWORD PTR [rbp-0x8],edx
 19a:	8b 45 f8             	mov    eax,DWORD PTR [rbp-0x8]
 19d:	48 63 d0             	movsxd rdx,eax
 1a0:	48 8b 75 f0          	mov    rsi,QWORD PTR [rbp-0x10]
 1a4:	8b 45 fc             	mov    eax,DWORD PTR [rbp-0x4]
 1a7:	48 83 ec 08          	sub    rsp,0x8
 1ab:	6a 01                	push   0x1
 1ad:	49 c7 c1 ff ff ff ff 	mov    r9,0xffffffffffffffff
 1b4:	49 c7 c0 ff ff ff ff 	mov    r8,0xffffffffffffffff
 1bb:	48 c7 c1 ff ff ff ff 	mov    rcx,0xffffffffffffffff
 1c2:	48 89 c7             	mov    rdi,rax
 1c5:	e8 00 00 00 00       	call   1ca <file_write+0x46>
 1ca:	48 83 c4 10          	add    rsp,0x10
 1ce:	c9                   	leave
 1cf:	c3                   	ret

00000000000001d0 <file_close>:
 1d0:	f3 0f 1e fa          	endbr64
 1d4:	55                   	push   rbp
 1d5:	48 89 e5             	mov    rbp,rsp
 1d8:	48 83 ec 10          	sub    rsp,0x10
 1dc:	89 7d fc             	mov    DWORD PTR [rbp-0x4],edi
 1df:	8b 45 fc             	mov    eax,DWORD PTR [rbp-0x4]
 1e2:	48 83 ec 08          	sub    rsp,0x8
 1e6:	6a 03                	push   0x3
 1e8:	49 c7 c1 ff ff ff ff 	mov    r9,0xffffffffffffffff
 1ef:	49 c7 c0 ff ff ff ff 	mov    r8,0xffffffffffffffff
 1f6:	48 c7 c1 ff ff ff ff 	mov    rcx,0xffffffffffffffff
 1fd:	48 c7 c2 ff ff ff ff 	mov    rdx,0xffffffffffffffff
 204:	48 c7 c6 ff ff ff ff 	mov    rsi,0xffffffffffffffff
 20b:	48 89 c7             	mov    rdi,rax
 20e:	e8 00 00 00 00       	call   213 <file_close+0x43>
 213:	48 83 c4 10          	add    rsp,0x10
 217:	90                   	nop
 218:	c9                   	leave
 219:	c3                   	ret

heap_string.o:     file format elf64-x86-64


Disassembly of section .text:

0000000000000000 <init_str>:
   0:	f3 0f 1e fa          	endbr64
   4:	55                   	push   rbp
   5:	48 89 e5             	mov    rbp,rsp
   8:	48 83 ec 10          	sub    rsp,0x10
   c:	48 c7 45 f0 00 00 00 	mov    QWORD PTR [rbp-0x10],0x0
  13:	00 
  14:	48 c7 45 f8 00 00 00 	mov    QWORD PTR [rbp-0x8],0x0
  1b:	00 
  1c:	be 00 02 00 00       	mov    esi,0x200
  21:	bf 00 00 00 00       	mov    edi,0x0
  26:	e8 00 00 00 00       	call   2b <init_str+0x2b>
  2b:	48 89 45 f0          	mov    QWORD PTR [rbp-0x10],rax
  2f:	c7 45 f8 00 00 00 00 	mov    DWORD PTR [rbp-0x8],0x0
  36:	48 8b 45 f0          	mov    rax,QWORD PTR [rbp-0x10]
  3a:	48 8b 55 f8          	mov    rdx,QWORD PTR [rbp-0x8]
  3e:	c9                   	leave
  3f:	c3                   	ret

0000000000000040 <strh_len>:
  40:	f3 0f 1e fa          	endbr64
  44:	55                   	push   rbp
  45:	48 89 e5             	mov    rbp,rsp
  48:	48 89 f8             	mov    rax,rdi
  4b:	48 89 f1             	mov    rcx,rsi
  4e:	48 89 c0             	mov    rax,rax
  51:	ba 00 00 00 00       	mov    edx,0x0
  56:	48 89 ca             	mov    rdx,rcx
  59:	48 89 45 f0          	mov    QWORD PTR [rbp-0x10],rax
  5d:	48 89 55 f8          	mov    QWORD PTR [rbp-0x8],rdx
  61:	8b 45 f8             	mov    eax,DWORD PTR [rbp-0x8]
  64:	5d                   	pop    rbp
  65:	c3                   	ret

0000000000000066 <strh_append>:
  66:	f3 0f 1e fa          	endbr64
  6a:	55                   	push   rbp
  6b:	48 89 e5             	mov    rbp,rsp
  6e:	53                   	push   rbx
  6f:	48 83 ec 48          	sub    rsp,0x48
  73:	48 89 f8             	mov    rax,rdi
  76:	48 89 c1             	mov    rcx,rax
  79:	bb 00 00 00 00       	mov    ebx,0x0
  7e:	48 89 f3             	mov    rbx,rsi
  81:	48 89 4d c0          	mov    QWORD PTR [rbp-0x40],rcx
  85:	48 89 5d c8          	mov    QWORD PTR [rbp-0x38],rbx
  89:	48 89 55 b8          	mov    QWORD PTR [rbp-0x48],rdx
  8d:	48 83 7d b8 00       	cmp    QWORD PTR [rbp-0x48],0x0
  92:	75 0a                	jne    9e <strh_append+0x38>
  94:	b8 00 00 00 00       	mov    eax,0x0
  99:	e9 bf 00 00 00       	jmp    15d <strh_append+0xf7>
  9e:	48 8b 45 c0          	mov    rax,QWORD PTR [rbp-0x40]
  a2:	48 89 c7             	mov    rdi,rax
  a5:	e8 00 00 00 00       	call   aa <strh_append+0x44>
  aa:	48 89 45 e0          	mov    QWORD PTR [rbp-0x20],rax
  ae:	48 8b 45 e0          	mov    rax,QWORD PTR [rbp-0x20]
  b2:	8b 40 0c             	mov    eax,DWORD PTR [rax+0xc]
  b5:	83 f8 7c             	cmp    eax,0x7c
  b8:	74 0a                	je     c4 <strh_append+0x5e>
  ba:	b8 00 00 00 00       	mov    eax,0x0
  bf:	e9 99 00 00 00       	jmp    15d <strh_append+0xf7>
  c4:	48 8b 45 b8          	mov    rax,QWORD PTR [rbp-0x48]
  c8:	48 89 c7             	mov    rdi,rax
  cb:	e8 00 00 00 00       	call   d0 <strh_append+0x6a>
  d0:	89 45 dc             	mov    DWORD PTR [rbp-0x24],eax
  d3:	8b 55 c8             	mov    edx,DWORD PTR [rbp-0x38]
  d6:	8b 45 dc             	mov    eax,DWORD PTR [rbp-0x24]
  d9:	01 c2                	add    edx,eax
  db:	48 8b 45 e0          	mov    rax,QWORD PTR [rbp-0x20]
  df:	8b 00                	mov    eax,DWORD PTR [rax]
  e1:	39 c2                	cmp    edx,eax
  e3:	7e 1d                	jle    102 <strh_append+0x9c>
  e5:	8b 55 c8             	mov    edx,DWORD PTR [rbp-0x38]
  e8:	8b 45 dc             	mov    eax,DWORD PTR [rbp-0x24]
  eb:	01 d0                	add    eax,edx
  ed:	8d 50 01             	lea    edx,[rax+0x1]
  f0:	48 8b 45 c0          	mov    rax,QWORD PTR [rbp-0x40]
  f4:	89 d6                	mov    esi,edx
  f6:	48 89 c7             	mov    rdi,rax
  f9:	e8 00 00 00 00       	call   fe <strh_append+0x98>
  fe:	48 89 45 c0          	mov    QWORD PTR [rbp-0x40],rax
 102:	c7 45 ec 00 00 00 00 	mov    DWORD PTR [rbp-0x14],0x0
 109:	eb 2a                	jmp    135 <strh_append+0xcf>
 10b:	8b 45 ec             	mov    eax,DWORD PTR [rbp-0x14]
 10e:	48 63 d0             	movsxd rdx,eax
 111:	48 8b 45 b8          	mov    rax,QWORD PTR [rbp-0x48]
 115:	48 8d 0c 02          	lea    rcx,[rdx+rax*1]
 119:	48 8b 75 c0          	mov    rsi,QWORD PTR [rbp-0x40]
 11d:	8b 45 c8             	mov    eax,DWORD PTR [rbp-0x38]
 120:	8d 50 01             	lea    edx,[rax+0x1]
 123:	89 55 c8             	mov    DWORD PTR [rbp-0x38],edx
 126:	48 98                	cdqe
 128:	48 8d 14 06          	lea    rdx,[rsi+rax*1]
 12c:	0f b6 01             	movzx  eax,BYTE PTR [rcx]
 12f:	88 02                	mov    BYTE PTR [rdx],al
 131:	83 45 ec 01          	add    DWORD PTR [rbp-0x14],0x1
 135:	8b 45 ec             	mov    eax,DWORD PTR [rbp-0x14]
 138:	48 63 d0             	movsxd rdx,eax
 13b:	48 8b 45 b8          	mov    rax,QWORD PTR [rbp-0x48]
 13f:	48 01 d0             	add    rax,rdx
 142:	0f b6 00             	movzx  eax,BYTE PTR [rax]
 145:	84 c0                	test   al,al
 147:	75 c2                	jne    10b <strh_append+0xa5>
 149:	48 8b 55 c0          	mov    rdx,QWORD PTR [rbp-0x40]
 14d:	8b 45 c8             	mov    eax,DWORD PTR [rbp-0x38]
 150:	48 98                	cdqe
 152:	48 01 d0             	add    rax,rdx
 155:	c6 00 00             	mov    BYTE PTR [rax],0x0
 158:	b8 01 00 00 00       	mov    eax,0x1
 15d:	48 8b 5d f8          	mov    rbx,QWORD PTR [rbp-0x8]
 161:	c9                   	leave
 162:	c3                   	ret

int.o:     file format elf64-x86-64


Disassembly of section .text:

0000000000000000 <is_i32_valid>:
   0:	f3 0f 1e fa          	endbr64
   4:	55                   	push   rbp
   5:	48 89 e5             	mov    rbp,rsp
   8:	89 7d fc             	mov    DWORD PTR [rbp-0x4],edi
   b:	8b 45 fc             	mov    eax,DWORD PTR [rbp-0x4]
   e:	f7 d0                	not    eax
  10:	c1 e8 1f             	shr    eax,0x1f
  13:	0f b6 c0             	movzx  eax,al
  16:	5d                   	pop    rbp
  17:	c3                   	ret

0000000000000018 <count_int_digits>:
  18:	f3 0f 1e fa          	endbr64
  1c:	55                   	push   rbp
  1d:	48 89 e5             	mov    rbp,rsp
  20:	89 7d ec             	mov    DWORD PTR [rbp-0x14],edi
  23:	8b 45 ec             	mov    eax,DWORD PTR [rbp-0x14]
  26:	89 45 fc             	mov    DWORD PTR [rbp-0x4],eax
  29:	83 7d fc 00          	cmp    DWORD PTR [rbp-0x4],0x0
  2d:	75 07                	jne    36 <count_int_digits+0x1e>
  2f:	b8 01 00 00 00       	mov    eax,0x1
  34:	eb 3d                	jmp    73 <count_int_digits+0x5b>
  36:	83 7d fc 00          	cmp    DWORD PTR [rbp-0x4],0x0
  3a:	79 03                	jns    3f <count_int_digits+0x27>
  3c:	f7 5d fc             	neg    DWORD PTR [rbp-0x4]
  3f:	c7 45 f8 00 00 00 00 	mov    DWORD PTR [rbp-0x8],0x0
  46:	eb 22                	jmp    6a <count_int_digits+0x52>
  48:	8b 45 fc             	mov    eax,DWORD PTR [rbp-0x4]
  4b:	48 63 d0             	movsxd rdx,eax
  4e:	48 69 d2 67 66 66 66 	imul   rdx,rdx,0x66666667
  55:	48 c1 ea 20          	shr    rdx,0x20
  59:	89 d1                	mov    ecx,edx
  5b:	c1 f9 02             	sar    ecx,0x2
  5e:	99                   	cdq
  5f:	89 c8                	mov    eax,ecx
  61:	29 d0                	sub    eax,edx
  63:	89 45 fc             	mov    DWORD PTR [rbp-0x4],eax
  66:	83 45 f8 01          	add    DWORD PTR [rbp-0x8],0x1
  6a:	83 7d fc 00          	cmp    DWORD PTR [rbp-0x4],0x0
  6e:	7f d8                	jg     48 <count_int_digits+0x30>
  70:	8b 45 f8             	mov    eax,DWORD PTR [rbp-0x8]
  73:	5d                   	pop    rbp
  74:	c3                   	ret

0000000000000075 <str_to_int>:
  75:	f3 0f 1e fa          	endbr64
  79:	55                   	push   rbp
  7a:	48 89 e5             	mov    rbp,rsp
  7d:	48 89 7d e8          	mov    QWORD PTR [rbp-0x18],rdi
  81:	c7 45 fc 01 00 00 00 	mov    DWORD PTR [rbp-0x4],0x1
  88:	c7 45 f8 00 00 00 00 	mov    DWORD PTR [rbp-0x8],0x0
  8f:	48 8b 45 e8          	mov    rax,QWORD PTR [rbp-0x18]
  93:	0f b6 00             	movzx  eax,BYTE PTR [rax]
  96:	3c 2d                	cmp    al,0x2d
  98:	75 0e                	jne    a8 <str_to_int+0x33>
  9a:	c7 45 fc ff ff ff ff 	mov    DWORD PTR [rbp-0x4],0xffffffff
  a1:	48 83 45 e8 01       	add    QWORD PTR [rbp-0x18],0x1
  a6:	eb 37                	jmp    df <str_to_int+0x6a>
  a8:	48 8b 45 e8          	mov    rax,QWORD PTR [rbp-0x18]
  ac:	0f b6 00             	movzx  eax,BYTE PTR [rax]
  af:	3c 2b                	cmp    al,0x2b
  b1:	75 2c                	jne    df <str_to_int+0x6a>
  b3:	48 83 45 e8 01       	add    QWORD PTR [rbp-0x18],0x1
  b8:	eb 25                	jmp    df <str_to_int+0x6a>
  ba:	8b 55 f8             	mov    edx,DWORD PTR [rbp-0x8]
  bd:	89 d0                	mov    eax,edx
  bf:	c1 e0 02             	shl    eax,0x2
  c2:	01 d0                	add    eax,edx
  c4:	01 c0                	add    eax,eax
  c6:	89 c2                	mov    edx,eax
  c8:	48 8b 45 e8          	mov    rax,QWORD PTR [rbp-0x18]
  cc:	0f b6 00             	movzx  eax,BYTE PTR [rax]
  cf:	0f be c0             	movsx  eax,al
  d2:	83 e8 30             	sub    eax,0x30
  d5:	01 d0                	add    eax,edx
  d7:	89 45 f8             	mov    DWORD PTR [rbp-0x8],eax
  da:	48 83 45 e8 01       	add    QWORD PTR [rbp-0x18],0x1
  df:	48 8b 45 e8          	mov    rax,QWORD PTR [rbp-0x18]
  e3:	0f b6 00             	movzx  eax,BYTE PTR [rax]
  e6:	3c 2f                	cmp    al,0x2f
  e8:	7e 0b                	jle    f5 <str_to_int+0x80>
  ea:	48 8b 45 e8          	mov    rax,QWORD PTR [rbp-0x18]
  ee:	0f b6 00             	movzx  eax,BYTE PTR [rax]
  f1:	3c 39                	cmp    al,0x39
  f3:	7e c5                	jle    ba <str_to_int+0x45>
  f5:	8b 45 f8             	mov    eax,DWORD PTR [rbp-0x8]
  f8:	0f af 45 fc          	imul   eax,DWORD PTR [rbp-0x4]
  fc:	5d                   	pop    rbp
  fd:	c3                   	ret

internal.o:     file format elf64-x86-64


Disassembly of section .text:

0000000000000000 <toggle_debug_mode>:
   0:	f3 0f 1e fa          	endbr64
   4:	55                   	push   rbp
   5:	48 89 e5             	mov    rbp,rsp
   8:	8b 05 00 00 00 00    	mov    eax,DWORD PTR [rip+0x0]        # e <toggle_debug_mode+0xe>
   e:	85 c0                	test   eax,eax
  10:	0f 94 c0             	sete   al
  13:	0f b6 c0             	movzx  eax,al
  16:	89 05 00 00 00 00    	mov    DWORD PTR [rip+0x0],eax        # 1c <toggle_debug_mode+0x1c>
  1c:	90                   	nop
  1d:	5d                   	pop    rbp
  1e:	c3                   	ret

000000000000001f <__exit>:
  1f:	f3 0f 1e fa          	endbr64
  23:	55                   	push   rbp
  24:	48 89 e5             	mov    rbp,rsp
  27:	48 83 ec 10          	sub    rsp,0x10
  2b:	89 7d fc             	mov    DWORD PTR [rbp-0x4],edi
  2e:	8b 45 fc             	mov    eax,DWORD PTR [rbp-0x4]
  31:	48 98                	cdqe
  33:	48 83 ec 08          	sub    rsp,0x8
  37:	6a 3c                	push   0x3c
  39:	49 c7 c1 ff ff ff ff 	mov    r9,0xffffffffffffffff
  40:	49 c7 c0 ff ff ff ff 	mov    r8,0xffffffffffffffff
  47:	48 c7 c1 ff ff ff ff 	mov    rcx,0xffffffffffffffff
  4e:	ba 00 00 00 00       	mov    edx,0x0
  53:	be 00 00 00 00       	mov    esi,0x0
  58:	48 89 c7             	mov    rdi,rax
  5b:	e8 00 00 00 00       	call   60 <__exit+0x41>
  60:	48 83 c4 10          	add    rsp,0x10
  64:	90                   	nop
  65:	c9                   	leave
  66:	c3                   	ret

0000000000000067 <get_input>:
  67:	f3 0f 1e fa          	endbr64
  6b:	55                   	push   rbp
  6c:	48 89 e5             	mov    rbp,rsp
  6f:	48 83 ec 10          	sub    rsp,0x10
  73:	48 89 7d f8          	mov    QWORD PTR [rbp-0x8],rdi
  77:	89 75 f4             	mov    DWORD PTR [rbp-0xc],esi
  7a:	8b 45 f4             	mov    eax,DWORD PTR [rbp-0xc]
  7d:	48 63 d0             	movsxd rdx,eax
  80:	48 8b 45 f8          	mov    rax,QWORD PTR [rbp-0x8]
  84:	48 83 ec 08          	sub    rsp,0x8
  88:	6a 00                	push   0x0
  8a:	49 c7 c1 ff ff ff ff 	mov    r9,0xffffffffffffffff
  91:	49 c7 c0 ff ff ff ff 	mov    r8,0xffffffffffffffff
  98:	48 c7 c1 ff ff ff ff 	mov    rcx,0xffffffffffffffff
  9f:	48 89 c6             	mov    rsi,rax
  a2:	bf 00 00 00 00       	mov    edi,0x0
  a7:	e8 00 00 00 00       	call   ac <get_input+0x45>
  ac:	48 83 c4 10          	add    rsp,0x10
  b0:	c9                   	leave
  b1:	c3                   	ret

00000000000000b2 <execute>:
  b2:	f3 0f 1e fa          	endbr64
  b6:	55                   	push   rbp
  b7:	48 89 e5             	mov    rbp,rsp
  ba:	48 83 ec 20          	sub    rsp,0x20
  be:	48 89 7d e8          	mov    QWORD PTR [rbp-0x18],rdi
  c2:	48 89 75 e0          	mov    QWORD PTR [rbp-0x20],rsi
  c6:	48 83 7d e8 00       	cmp    QWORD PTR [rbp-0x18],0x0
  cb:	0f 84 f7 00 00 00    	je     1c8 <execute+0x116>
  d1:	48 83 7d e0 00       	cmp    QWORD PTR [rbp-0x20],0x0
  d6:	0f 84 ec 00 00 00    	je     1c8 <execute+0x116>
  dc:	48 83 ec 08          	sub    rsp,0x8
  e0:	6a 39                	push   0x39
  e2:	49 c7 c1 ff ff ff ff 	mov    r9,0xffffffffffffffff
  e9:	49 c7 c0 ff ff ff ff 	mov    r8,0xffffffffffffffff
  f0:	48 c7 c1 ff ff ff ff 	mov    rcx,0xffffffffffffffff
  f7:	ba 00 00 00 00       	mov    edx,0x0
  fc:	be 00 00 00 00       	mov    esi,0x0
 101:	bf 00 00 00 00       	mov    edi,0x0
 106:	e8 00 00 00 00       	call   10b <execute+0x59>
 10b:	48 83 c4 10          	add    rsp,0x10
 10f:	48 89 45 f8          	mov    QWORD PTR [rbp-0x8],rax
 113:	48 83 7d f8 00       	cmp    QWORD PTR [rbp-0x8],0x0
 118:	75 36                	jne    150 <execute+0x9e>
 11a:	48 8b 75 e0          	mov    rsi,QWORD PTR [rbp-0x20]
 11e:	48 8b 45 e8          	mov    rax,QWORD PTR [rbp-0x18]
 122:	48 83 ec 08          	sub    rsp,0x8
 126:	6a 3b                	push   0x3b
 128:	49 c7 c1 ff ff ff ff 	mov    r9,0xffffffffffffffff
 12f:	49 c7 c0 ff ff ff ff 	mov    r8,0xffffffffffffffff
 136:	48 c7 c1 ff ff ff ff 	mov    rcx,0xffffffffffffffff
 13d:	ba 00 00 00 00       	mov    edx,0x0
 142:	48 89 c7             	mov    rdi,rax
 145:	e8 00 00 00 00       	call   14a <execute+0x98>
 14a:	48 83 c4 10          	add    rsp,0x10
 14e:	eb 79                	jmp    1c9 <execute+0x117>
 150:	48 83 7d f8 00       	cmp    QWORD PTR [rbp-0x8],0x0
 155:	7e 37                	jle    18e <execute+0xdc>
 157:	48 8b 45 f8          	mov    rax,QWORD PTR [rbp-0x8]
 15b:	48 83 ec 08          	sub    rsp,0x8
 15f:	6a 3d                	push   0x3d
 161:	49 c7 c1 ff ff ff ff 	mov    r9,0xffffffffffffffff
 168:	49 c7 c0 ff ff ff ff 	mov    r8,0xffffffffffffffff
 16f:	48 c7 c1 ff ff ff ff 	mov    rcx,0xffffffffffffffff
 176:	ba 00 00 00 00       	mov    edx,0x0
 17b:	be 00 00 00 00       	mov    esi,0x0
 180:	48 89 c7             	mov    rdi,rax
 183:	e8 00 00 00 00       	call   188 <execute+0xd6>
 188:	48 83 c4 10          	add    rsp,0x10
 18c:	eb 3b                	jmp    1c9 <execute+0x117>
 18e:	48 8d 05 00 00 00 00 	lea    rax,[rip+0x0]        # 195 <execute+0xe3>
 195:	48 83 ec 08          	sub    rsp,0x8
 199:	6a 01                	push   0x1
 19b:	49 c7 c1 ff ff ff ff 	mov    r9,0xffffffffffffffff
 1a2:	49 c7 c0 ff ff ff ff 	mov    r8,0xffffffffffffffff
 1a9:	48 c7 c1 ff ff ff ff 	mov    rcx,0xffffffffffffffff
 1b0:	ba 07 00 00 00       	mov    edx,0x7
 1b5:	48 89 c6             	mov    rsi,rax
 1b8:	bf 01 00 00 00       	mov    edi,0x1
 1bd:	e8 00 00 00 00       	call   1c2 <execute+0x110>
 1c2:	48 83 c4 10          	add    rsp,0x10
 1c6:	eb 01                	jmp    1c9 <execute+0x117>
 1c8:	90                   	nop
 1c9:	c9                   	leave
 1ca:	c3                   	ret

00000000000001cb <print_sz>:
 1cb:	f3 0f 1e fa          	endbr64
 1cf:	55                   	push   rbp
 1d0:	48 89 e5             	mov    rbp,rsp
 1d3:	48 83 ec 10          	sub    rsp,0x10
 1d7:	48 89 7d f8          	mov    QWORD PTR [rbp-0x8],rdi
 1db:	89 75 f4             	mov    DWORD PTR [rbp-0xc],esi
 1de:	8b 45 f4             	mov    eax,DWORD PTR [rbp-0xc]
 1e1:	48 63 d0             	movsxd rdx,eax
 1e4:	48 8b 45 f8          	mov    rax,QWORD PTR [rbp-0x8]
 1e8:	48 83 ec 08          	sub    rsp,0x8
 1ec:	6a 01                	push   0x1
 1ee:	41 b9 00 00 00 00    	mov    r9d,0x0
 1f4:	41 b8 00 00 00 00    	mov    r8d,0x0
 1fa:	b9 00 00 00 00       	mov    ecx,0x0
 1ff:	48 89 c6             	mov    rsi,rax
 202:	bf 01 00 00 00       	mov    edi,0x1
 207:	e8 00 00 00 00       	call   20c <print_sz+0x41>
 20c:	48 83 c4 10          	add    rsp,0x10
 210:	90                   	nop
 211:	c9                   	leave
 212:	c3                   	ret

0000000000000213 <printc>:
 213:	f3 0f 1e fa          	endbr64
 217:	55                   	push   rbp
 218:	48 89 e5             	mov    rbp,rsp
 21b:	48 83 ec 20          	sub    rsp,0x20
 21f:	89 f8                	mov    eax,edi
 221:	88 45 ec             	mov    BYTE PTR [rbp-0x14],al
 224:	66 c7 45 fe 00 00    	mov    WORD PTR [rbp-0x2],0x0
 22a:	0f b6 45 ec          	movzx  eax,BYTE PTR [rbp-0x14]
 22e:	88 45 fe             	mov    BYTE PTR [rbp-0x2],al
 231:	c6 45 ff 00          	mov    BYTE PTR [rbp-0x1],0x0
 235:	48 8d 45 fe          	lea    rax,[rbp-0x2]
 239:	48 89 c7             	mov    rdi,rax
 23c:	e8 00 00 00 00       	call   241 <printc+0x2e>
 241:	90                   	nop
 242:	c9                   	leave
 243:	c3                   	ret

0000000000000244 <printi>:
 244:	f3 0f 1e fa          	endbr64
 248:	55                   	push   rbp
 249:	48 89 e5             	mov    rbp,rsp
 24c:	48 83 ec 10          	sub    rsp,0x10
 250:	89 7d fc             	mov    DWORD PTR [rbp-0x4],edi
 253:	83 7d fc 09          	cmp    DWORD PTR [rbp-0x4],0x9
 257:	7e 0c                	jle    265 <printi+0x21>
 259:	8b 45 fc             	mov    eax,DWORD PTR [rbp-0x4]
 25c:	89 c7                	mov    edi,eax
 25e:	e8 00 00 00 00       	call   263 <printi+0x1f>
 263:	eb 0a                	jmp    26f <printi+0x2b>
 265:	8b 45 fc             	mov    eax,DWORD PTR [rbp-0x4]
 268:	89 c7                	mov    edi,eax
 26a:	e8 00 00 00 00       	call   26f <printi+0x2b>
 26f:	90                   	nop
 270:	c9                   	leave
 271:	c3                   	ret

0000000000000272 <_printi_>:
 272:	f3 0f 1e fa          	endbr64
 276:	55                   	push   rbp
 277:	48 89 e5             	mov    rbp,rsp
 27a:	48 83 ec 20          	sub    rsp,0x20
 27e:	89 7d ec             	mov    DWORD PTR [rbp-0x14],edi
 281:	83 7d ec 00          	cmp    DWORD PTR [rbp-0x14],0x0
 285:	75 11                	jne    298 <_printi_+0x26>
 287:	48 8d 05 00 00 00 00 	lea    rax,[rip+0x0]        # 28e <_printi_+0x1c>
 28e:	48 89 c7             	mov    rdi,rax
 291:	e8 00 00 00 00       	call   296 <_printi_+0x24>
 296:	eb 20                	jmp    2b8 <_printi_+0x46>
 298:	c7 45 fb 00 00 00 00 	mov    DWORD PTR [rbp-0x5],0x0
 29f:	c6 45 ff 00          	mov    BYTE PTR [rbp-0x1],0x0
 2a3:	8b 45 ec             	mov    eax,DWORD PTR [rbp-0x14]
 2a6:	83 c0 30             	add    eax,0x30
 2a9:	88 45 fb             	mov    BYTE PTR [rbp-0x5],al
 2ac:	48 8d 45 fb          	lea    rax,[rbp-0x5]
 2b0:	48 89 c7             	mov    rdi,rax
 2b3:	e8 00 00 00 00       	call   2b8 <_printi_+0x46>
 2b8:	c9                   	leave
 2b9:	c3                   	ret

00000000000002ba <_printi>:
 2ba:	f3 0f 1e fa          	endbr64
 2be:	55                   	push   rbp
 2bf:	48 89 e5             	mov    rbp,rsp
 2c2:	48 81 ec e0 00 00 00 	sub    rsp,0xe0
 2c9:	89 bd 2c ff ff ff    	mov    DWORD PTR [rbp-0xd4],edi
 2cf:	8b 85 2c ff ff ff    	mov    eax,DWORD PTR [rbp-0xd4]
 2d5:	89 45 fc             	mov    DWORD PTR [rbp-0x4],eax
 2d8:	c7 45 f8 00 00 00 00 	mov    DWORD PTR [rbp-0x8],0x0
 2df:	48 c7 85 30 ff ff ff 	mov    QWORD PTR [rbp-0xd0],0x0
 2e6:	00 00 00 00 
 2ea:	48 c7 85 38 ff ff ff 	mov    QWORD PTR [rbp-0xc8],0x0
 2f1:	00 00 00 00 
 2f5:	48 c7 85 40 ff ff ff 	mov    QWORD PTR [rbp-0xc0],0x0
 2fc:	00 00 00 00 
 300:	48 c7 85 48 ff ff ff 	mov    QWORD PTR [rbp-0xb8],0x0
 307:	00 00 00 00 
 30b:	48 c7 85 50 ff ff ff 	mov    QWORD PTR [rbp-0xb0],0x0
 312:	00 00 00 00 
 316:	48 c7 85 58 ff ff ff 	mov    QWORD PTR [rbp-0xa8],0x0
 31d:	00 00 00 00 
 321:	48 c7 85 60 ff ff ff 	mov    QWORD PTR [rbp-0xa0],0x0
 328:	00 00 00 00 
 32c:	48 c7 85 68 ff ff ff 	mov    QWORD PTR [rbp-0x98],0x0
 333:	00 00 00 00 
 337:	48 c7 85 70 ff ff ff 	mov    QWORD PTR [rbp-0x90],0x0
 33e:	00 00 00 00 
 342:	48 c7 85 78 ff ff ff 	mov    QWORD PTR [rbp-0x88],0x0
 349:	00 00 00 00 
 34d:	48 c7 45 80 00 00 00 	mov    QWORD PTR [rbp-0x80],0x0
 354:	00 
 355:	48 c7 45 88 00 00 00 	mov    QWORD PTR [rbp-0x78],0x0
 35c:	00 
 35d:	48 c7 45 90 00 00 00 	mov    QWORD PTR [rbp-0x70],0x0
 364:	00 
 365:	48 c7 45 98 00 00 00 	mov    QWORD PTR [rbp-0x68],0x0
 36c:	00 
 36d:	48 c7 45 a0 00 00 00 	mov    QWORD PTR [rbp-0x60],0x0
 374:	00 
 375:	48 c7 45 a8 00 00 00 	mov    QWORD PTR [rbp-0x58],0x0
 37c:	00 
 37d:	48 c7 45 b0 00 00 00 	mov    QWORD PTR [rbp-0x50],0x0
 384:	00 
 385:	48 c7 45 b8 00 00 00 	mov    QWORD PTR [rbp-0x48],0x0
 38c:	00 
 38d:	48 c7 45 c0 00 00 00 	mov    QWORD PTR [rbp-0x40],0x0
 394:	00 
 395:	48 c7 45 c8 00 00 00 	mov    QWORD PTR [rbp-0x38],0x0
 39c:	00 
 39d:	48 c7 45 d0 00 00 00 	mov    QWORD PTR [rbp-0x30],0x0
 3a4:	00 
 3a5:	48 c7 45 d8 00 00 00 	mov    QWORD PTR [rbp-0x28],0x0
 3ac:	00 
 3ad:	c7 45 e0 00 00 00 00 	mov    DWORD PTR [rbp-0x20],0x0
 3b4:	eb 61                	jmp    417 <_printi+0x15d>
 3b6:	8b 55 fc             	mov    edx,DWORD PTR [rbp-0x4]
 3b9:	48 63 c2             	movsxd rax,edx
 3bc:	48 69 c0 67 66 66 66 	imul   rax,rax,0x66666667
 3c3:	48 c1 e8 20          	shr    rax,0x20
 3c7:	89 c1                	mov    ecx,eax
 3c9:	c1 f9 02             	sar    ecx,0x2
 3cc:	89 d0                	mov    eax,edx
 3ce:	c1 f8 1f             	sar    eax,0x1f
 3d1:	29 c1                	sub    ecx,eax
 3d3:	89 c8                	mov    eax,ecx
 3d5:	c1 e0 02             	shl    eax,0x2
 3d8:	01 c8                	add    eax,ecx
 3da:	01 c0                	add    eax,eax
 3dc:	89 d1                	mov    ecx,edx
 3de:	29 c1                	sub    ecx,eax
 3e0:	89 c8                	mov    eax,ecx
 3e2:	8d 48 30             	lea    ecx,[rax+0x30]
 3e5:	8b 45 f8             	mov    eax,DWORD PTR [rbp-0x8]
 3e8:	8d 50 01             	lea    edx,[rax+0x1]
 3eb:	89 55 f8             	mov    DWORD PTR [rbp-0x8],edx
 3ee:	89 ca                	mov    edx,ecx
 3f0:	48 98                	cdqe
 3f2:	88 94 05 30 ff ff ff 	mov    BYTE PTR [rbp+rax*1-0xd0],dl
 3f9:	8b 45 fc             	mov    eax,DWORD PTR [rbp-0x4]
 3fc:	48 63 d0             	movsxd rdx,eax
 3ff:	48 69 d2 67 66 66 66 	imul   rdx,rdx,0x66666667
 406:	48 c1 ea 20          	shr    rdx,0x20
 40a:	89 d1                	mov    ecx,edx
 40c:	c1 f9 02             	sar    ecx,0x2
 40f:	99                   	cdq
 410:	89 c8                	mov    eax,ecx
 412:	29 d0                	sub    eax,edx
 414:	89 45 fc             	mov    DWORD PTR [rbp-0x4],eax
 417:	83 7d fc 00          	cmp    DWORD PTR [rbp-0x4],0x0
 41b:	75 99                	jne    3b6 <_printi+0xfc>
 41d:	c7 45 f4 00 00 00 00 	mov    DWORD PTR [rbp-0xc],0x0
 424:	eb 48                	jmp    46e <_printi+0x1b4>
 426:	8b 45 f4             	mov    eax,DWORD PTR [rbp-0xc]
 429:	48 98                	cdqe
 42b:	0f b6 84 05 30 ff ff 	movzx  eax,BYTE PTR [rbp+rax*1-0xd0]
 432:	ff 
 433:	88 45 f3             	mov    BYTE PTR [rbp-0xd],al
 436:	83 6d f8 01          	sub    DWORD PTR [rbp-0x8],0x1
 43a:	8b 45 f8             	mov    eax,DWORD PTR [rbp-0x8]
 43d:	48 98                	cdqe
 43f:	0f b6 84 05 30 ff ff 	movzx  eax,BYTE PTR [rbp+rax*1-0xd0]
 446:	ff 
 447:	88 45 f2             	mov    BYTE PTR [rbp-0xe],al
 44a:	8b 45 f4             	mov    eax,DWORD PTR [rbp-0xc]
 44d:	48 98                	cdqe
 44f:	0f b6 55 f2          	movzx  edx,BYTE PTR [rbp-0xe]
 453:	88 94 05 30 ff ff ff 	mov    BYTE PTR [rbp+rax*1-0xd0],dl
 45a:	8b 45 f8             	mov    eax,DWORD PTR [rbp-0x8]
 45d:	48 98                	cdqe
 45f:	0f b6 55 f3          	movzx  edx,BYTE PTR [rbp-0xd]
 463:	88 94 05 30 ff ff ff 	mov    BYTE PTR [rbp+rax*1-0xd0],dl
 46a:	83 45 f4 01          	add    DWORD PTR [rbp-0xc],0x1
 46e:	8b 45 f4             	mov    eax,DWORD PTR [rbp-0xc]
 471:	3b 45 f8             	cmp    eax,DWORD PTR [rbp-0x8]
 474:	7c b0                	jl     426 <_printi+0x16c>
 476:	8b 45 f4             	mov    eax,DWORD PTR [rbp-0xc]
 479:	8d 50 01             	lea    edx,[rax+0x1]
 47c:	48 8d 85 30 ff ff ff 	lea    rax,[rbp-0xd0]
 483:	89 d6                	mov    esi,edx
 485:	48 89 c7             	mov    rdi,rax
 488:	e8 00 00 00 00       	call   48d <_printi+0x1d3>
 48d:	90                   	nop
 48e:	c9                   	leave
 48f:	c3                   	ret

0000000000000490 <print>:
 490:	f3 0f 1e fa          	endbr64
 494:	55                   	push   rbp
 495:	48 89 e5             	mov    rbp,rsp
 498:	48 83 ec 10          	sub    rsp,0x10
 49c:	48 89 7d f8          	mov    QWORD PTR [rbp-0x8],rdi
 4a0:	48 8b 45 f8          	mov    rax,QWORD PTR [rbp-0x8]
 4a4:	48 89 c7             	mov    rdi,rax
 4a7:	e8 00 00 00 00       	call   4ac <print+0x1c>
 4ac:	48 63 d0             	movsxd rdx,eax
 4af:	48 8b 45 f8          	mov    rax,QWORD PTR [rbp-0x8]
 4b3:	48 83 ec 08          	sub    rsp,0x8
 4b7:	6a 01                	push   0x1
 4b9:	49 c7 c1 ff ff ff ff 	mov    r9,0xffffffffffffffff
 4c0:	49 c7 c0 ff ff ff ff 	mov    r8,0xffffffffffffffff
 4c7:	48 c7 c1 ff ff ff ff 	mov    rcx,0xffffffffffffffff
 4ce:	48 89 c6             	mov    rsi,rax
 4d1:	bf 01 00 00 00       	mov    edi,0x1
 4d6:	e8 00 00 00 00       	call   4db <print+0x4b>
 4db:	48 83 c4 10          	add    rsp,0x10
 4df:	90                   	nop
 4e0:	c9                   	leave
 4e1:	c3                   	ret

00000000000004e2 <println>:
 4e2:	f3 0f 1e fa          	endbr64
 4e6:	55                   	push   rbp
 4e7:	48 89 e5             	mov    rbp,rsp
 4ea:	48 83 ec 10          	sub    rsp,0x10
 4ee:	48 89 7d f8          	mov    QWORD PTR [rbp-0x8],rdi
 4f2:	48 83 7d f8 00       	cmp    QWORD PTR [rbp-0x8],0x0
 4f7:	74 3f                	je     538 <println+0x56>
 4f9:	48 8b 45 f8          	mov    rax,QWORD PTR [rbp-0x8]
 4fd:	48 89 c7             	mov    rdi,rax
 500:	e8 00 00 00 00       	call   505 <println+0x23>
 505:	48 63 d0             	movsxd rdx,eax
 508:	48 8b 45 f8          	mov    rax,QWORD PTR [rbp-0x8]
 50c:	48 83 ec 08          	sub    rsp,0x8
 510:	6a 01                	push   0x1
 512:	49 c7 c1 ff ff ff ff 	mov    r9,0xffffffffffffffff
 519:	49 c7 c0 ff ff ff ff 	mov    r8,0xffffffffffffffff
 520:	48 c7 c1 ff ff ff ff 	mov    rcx,0xffffffffffffffff
 527:	48 89 c6             	mov    rsi,rax
 52a:	bf 01 00 00 00       	mov    edi,0x1
 52f:	e8 00 00 00 00       	call   534 <println+0x52>
 534:	48 83 c4 10          	add    rsp,0x10
 538:	48 8d 05 00 00 00 00 	lea    rax,[rip+0x0]        # 53f <println+0x5d>
 53f:	48 83 ec 08          	sub    rsp,0x8
 543:	6a 01                	push   0x1
 545:	49 c7 c1 ff ff ff ff 	mov    r9,0xffffffffffffffff
 54c:	49 c7 c0 ff ff ff ff 	mov    r8,0xffffffffffffffff
 553:	48 c7 c1 ff ff ff ff 	mov    rcx,0xffffffffffffffff
 55a:	ba 01 00 00 00       	mov    edx,0x1
 55f:	48 89 c6             	mov    rsi,rax
 562:	bf 01 00 00 00       	mov    edi,0x1
 567:	e8 00 00 00 00       	call   56c <println+0x8a>
 56c:	48 83 c4 10          	add    rsp,0x10
 570:	90                   	nop
 571:	c9                   	leave
 572:	c3                   	ret

0000000000000573 <print_args>:
 573:	f3 0f 1e fa          	endbr64
 577:	55                   	push   rbp
 578:	48 89 e5             	mov    rbp,rsp
 57b:	48 83 ec 20          	sub    rsp,0x20
 57f:	48 89 7d e8          	mov    QWORD PTR [rbp-0x18],rdi
 583:	c7 45 fc 00 00 00 00 	mov    DWORD PTR [rbp-0x4],0x0
 58a:	eb 23                	jmp    5af <print_args+0x3c>
 58c:	8b 45 fc             	mov    eax,DWORD PTR [rbp-0x4]
 58f:	48 98                	cdqe
 591:	48 8d 14 c5 00 00 00 	lea    rdx,[rax*8+0x0]
 598:	00 
 599:	48 8b 45 e8          	mov    rax,QWORD PTR [rbp-0x18]
 59d:	48 01 d0             	add    rax,rdx
 5a0:	48 8b 00             	mov    rax,QWORD PTR [rax]
 5a3:	48 89 c7             	mov    rdi,rax
 5a6:	e8 00 00 00 00       	call   5ab <print_args+0x38>
 5ab:	83 45 fc 01          	add    DWORD PTR [rbp-0x4],0x1
 5af:	8b 45 fc             	mov    eax,DWORD PTR [rbp-0x4]
 5b2:	48 98                	cdqe
 5b4:	48 8d 14 c5 00 00 00 	lea    rdx,[rax*8+0x0]
 5bb:	00 
 5bc:	48 8b 45 e8          	mov    rax,QWORD PTR [rbp-0x18]
 5c0:	48 01 d0             	add    rax,rdx
 5c3:	48 8b 00             	mov    rax,QWORD PTR [rax]
 5c6:	48 85 c0             	test   rax,rax
 5c9:	75 c1                	jne    58c <print_args+0x19>
 5cb:	90                   	nop
 5cc:	90                   	nop
 5cd:	c9                   	leave
 5ce:	c3                   	ret

00000000000005cf <to_heap>:
 5cf:	f3 0f 1e fa          	endbr64
 5d3:	55                   	push   rbp
 5d4:	48 89 e5             	mov    rbp,rsp
 5d7:	48 83 ec 20          	sub    rsp,0x20
 5db:	48 89 7d e8          	mov    QWORD PTR [rbp-0x18],rdi
 5df:	89 75 e4             	mov    DWORD PTR [rbp-0x1c],esi
 5e2:	8b 45 e4             	mov    eax,DWORD PTR [rbp-0x1c]
 5e5:	83 c0 01             	add    eax,0x1
 5e8:	89 c6                	mov    esi,eax
 5ea:	bf 00 00 00 00       	mov    edi,0x0
 5ef:	e8 00 00 00 00       	call   5f4 <to_heap+0x25>
 5f4:	48 89 45 f8          	mov    QWORD PTR [rbp-0x8],rax
 5f8:	48 83 7d f8 00       	cmp    QWORD PTR [rbp-0x8],0x0
 5fd:	75 07                	jne    606 <to_heap+0x37>
 5ff:	b8 00 00 00 00       	mov    eax,0x0
 604:	eb 2d                	jmp    633 <to_heap+0x64>
 606:	8b 45 e4             	mov    eax,DWORD PTR [rbp-0x1c]
 609:	48 63 d0             	movsxd rdx,eax
 60c:	48 8b 4d e8          	mov    rcx,QWORD PTR [rbp-0x18]
 610:	48 8b 45 f8          	mov    rax,QWORD PTR [rbp-0x8]
 614:	48 89 ce             	mov    rsi,rcx
 617:	48 89 c7             	mov    rdi,rax
 61a:	e8 00 00 00 00       	call   61f <to_heap+0x50>
 61f:	8b 45 e4             	mov    eax,DWORD PTR [rbp-0x1c]
 622:	48 63 d0             	movsxd rdx,eax
 625:	48 8b 45 f8          	mov    rax,QWORD PTR [rbp-0x8]
 629:	48 01 d0             	add    rax,rdx
 62c:	c6 00 00             	mov    BYTE PTR [rax],0x0
 62f:	48 8b 45 f8          	mov    rax,QWORD PTR [rbp-0x8]
 633:	c9                   	leave
 634:	c3                   	ret

0000000000000635 <__fsl_panic>:
 635:	f3 0f 1e fa          	endbr64
 639:	55                   	push   rbp
 63a:	48 89 e5             	mov    rbp,rsp
 63d:	48 83 ec 20          	sub    rsp,0x20
 641:	48 89 7d f8          	mov    QWORD PTR [rbp-0x8],rdi
 645:	48 89 75 f0          	mov    QWORD PTR [rbp-0x10],rsi
 649:	89 55 ec             	mov    DWORD PTR [rbp-0x14],edx
 64c:	8b 05 00 00 00 00    	mov    eax,DWORD PTR [rip+0x0]        # 652 <__fsl_panic+0x1d>
 652:	85 c0                	test   eax,eax
 654:	74 34                	je     68a <__fsl_panic+0x55>
 656:	48 8b 45 f0          	mov    rax,QWORD PTR [rbp-0x10]
 65a:	48 89 c7             	mov    rdi,rax
 65d:	e8 00 00 00 00       	call   662 <__fsl_panic+0x2d>
 662:	48 8d 05 00 00 00 00 	lea    rax,[rip+0x0]        # 669 <__fsl_panic+0x34>
 669:	48 89 c7             	mov    rdi,rax
 66c:	e8 00 00 00 00       	call   671 <__fsl_panic+0x3c>
 671:	8b 45 ec             	mov    eax,DWORD PTR [rbp-0x14]
 674:	89 c7                	mov    edi,eax
 676:	e8 00 00 00 00       	call   67b <__fsl_panic+0x46>
 67b:	48 8d 05 00 00 00 00 	lea    rax,[rip+0x0]        # 682 <__fsl_panic+0x4d>
 682:	48 89 c7             	mov    rdi,rax
 685:	e8 00 00 00 00       	call   68a <__fsl_panic+0x55>
 68a:	48 8d 05 00 00 00 00 	lea    rax,[rip+0x0]        # 691 <__fsl_panic+0x5c>
 691:	48 89 c7             	mov    rdi,rax
 694:	e8 00 00 00 00       	call   699 <__fsl_panic+0x64>
 699:	48 8b 45 f8          	mov    rax,QWORD PTR [rbp-0x8]
 69d:	48 89 c7             	mov    rdi,rax
 6a0:	e8 00 00 00 00       	call   6a5 <__fsl_panic+0x70>
 6a5:	bf 01 00 00 00       	mov    edi,0x1
 6aa:	e8 00 00 00 00       	call   6af <__fsl_panic+0x7a>
 6af:	90                   	nop
 6b0:	c9                   	leave
 6b1:	c3                   	ret

map.o:     file format elf64-x86-64


Disassembly of section .text:

0000000000000000 <init_map>:
   0:	f3 0f 1e fa          	endbr64
   4:	55                   	push   rbp
   5:	48 89 e5             	mov    rbp,rsp
   8:	48 83 ec 10          	sub    rsp,0x10
   c:	be 10 00 00 00       	mov    esi,0x10
  11:	bf 00 00 00 00       	mov    edi,0x0
  16:	e8 00 00 00 00       	call   1b <init_map+0x1b>
  1b:	48 89 45 f8          	mov    QWORD PTR [rbp-0x8],rax
  1f:	48 83 7d f8 00       	cmp    QWORD PTR [rbp-0x8],0x0
  24:	75 1e                	jne    44 <init_map+0x44>
  26:	48 8d 0d 00 00 00 00 	lea    rcx,[rip+0x0]        # 2d <init_map+0x2d>
  2d:	48 8d 05 00 00 00 00 	lea    rax,[rip+0x0]        # 34 <init_map+0x34>
  34:	ba 07 00 00 00       	mov    edx,0x7
  39:	48 89 ce             	mov    rsi,rcx
  3c:	48 89 c7             	mov    rdi,rax
  3f:	e8 00 00 00 00       	call   44 <init_map+0x44>
  44:	be 10 00 00 00       	mov    esi,0x10
  49:	bf 00 00 00 00       	mov    edi,0x0
  4e:	e8 00 00 00 00       	call   53 <init_map+0x53>
  53:	48 8b 55 f8          	mov    rdx,QWORD PTR [rbp-0x8]
  57:	48 89 02             	mov    QWORD PTR [rdx],rax
  5a:	48 8b 45 f8          	mov    rax,QWORD PTR [rbp-0x8]
  5e:	c7 40 08 00 00 00 00 	mov    DWORD PTR [rax+0x8],0x0
  65:	48 8b 45 f8          	mov    rax,QWORD PTR [rbp-0x8]
  69:	c9                   	leave
  6a:	c3                   	ret

000000000000006b <map_append>:
  6b:	f3 0f 1e fa          	endbr64
  6f:	55                   	push   rbp
  70:	48 89 e5             	mov    rbp,rsp
  73:	48 83 ec 30          	sub    rsp,0x30
  77:	48 89 7d e8          	mov    QWORD PTR [rbp-0x18],rdi
  7b:	48 89 75 e0          	mov    QWORD PTR [rbp-0x20],rsi
  7f:	48 89 55 d8          	mov    QWORD PTR [rbp-0x28],rdx
  83:	48 83 7d e8 00       	cmp    QWORD PTR [rbp-0x18],0x0
  88:	74 0e                	je     98 <map_append+0x2d>
  8a:	48 83 7d e0 00       	cmp    QWORD PTR [rbp-0x20],0x0
  8f:	74 07                	je     98 <map_append+0x2d>
  91:	48 83 7d d8 00       	cmp    QWORD PTR [rbp-0x28],0x0
  96:	75 0a                	jne    a2 <map_append+0x37>
  98:	b8 00 00 00 00       	mov    eax,0x0
  9d:	e9 b4 00 00 00       	jmp    156 <map_append+0xeb>
  a2:	be 10 00 00 00       	mov    esi,0x10
  a7:	bf 00 00 00 00       	mov    edi,0x0
  ac:	e8 00 00 00 00       	call   b1 <map_append+0x46>
  b1:	48 89 45 f8          	mov    QWORD PTR [rbp-0x8],rax
  b5:	48 83 7d f8 00       	cmp    QWORD PTR [rbp-0x8],0x0
  ba:	75 1e                	jne    da <map_append+0x6f>
  bc:	48 8d 0d 00 00 00 00 	lea    rcx,[rip+0x0]        # c3 <map_append+0x58>
  c3:	48 8d 05 00 00 00 00 	lea    rax,[rip+0x0]        # ca <map_append+0x5f>
  ca:	ba 16 00 00 00       	mov    edx,0x16
  cf:	48 89 ce             	mov    rsi,rcx
  d2:	48 89 c7             	mov    rdi,rax
  d5:	e8 00 00 00 00       	call   da <map_append+0x6f>
  da:	48 8b 45 e0          	mov    rax,QWORD PTR [rbp-0x20]
  de:	48 89 c7             	mov    rdi,rax
  e1:	e8 00 00 00 00       	call   e6 <map_append+0x7b>
  e6:	48 8b 55 f8          	mov    rdx,QWORD PTR [rbp-0x8]
  ea:	48 89 02             	mov    QWORD PTR [rdx],rax
  ed:	48 8b 45 d8          	mov    rax,QWORD PTR [rbp-0x28]
  f1:	48 89 c7             	mov    rdi,rax
  f4:	e8 00 00 00 00       	call   f9 <map_append+0x8e>
  f9:	48 8b 55 f8          	mov    rdx,QWORD PTR [rbp-0x8]
  fd:	48 89 42 08          	mov    QWORD PTR [rdx+0x8],rax
 101:	48 8b 45 e8          	mov    rax,QWORD PTR [rbp-0x18]
 105:	48 8b 30             	mov    rsi,QWORD PTR [rax]
 108:	48 8b 45 e8          	mov    rax,QWORD PTR [rbp-0x18]
 10c:	8b 40 08             	mov    eax,DWORD PTR [rax+0x8]
 10f:	8d 48 01             	lea    ecx,[rax+0x1]
 112:	48 8b 55 e8          	mov    rdx,QWORD PTR [rbp-0x18]
 116:	89 4a 08             	mov    DWORD PTR [rdx+0x8],ecx
 119:	48 98                	cdqe
 11b:	48 c1 e0 03          	shl    rax,0x3
 11f:	48 8d 14 06          	lea    rdx,[rsi+rax*1]
 123:	48 8b 45 f8          	mov    rax,QWORD PTR [rbp-0x8]
 127:	48 89 02             	mov    QWORD PTR [rdx],rax
 12a:	48 8b 45 e8          	mov    rax,QWORD PTR [rbp-0x18]
 12e:	8b 40 08             	mov    eax,DWORD PTR [rax+0x8]
 131:	83 c0 01             	add    eax,0x1
 134:	c1 e0 04             	shl    eax,0x4
 137:	89 c2                	mov    edx,eax
 139:	48 8b 45 e8          	mov    rax,QWORD PTR [rbp-0x18]
 13d:	48 8b 00             	mov    rax,QWORD PTR [rax]
 140:	89 d6                	mov    esi,edx
 142:	48 89 c7             	mov    rdi,rax
 145:	e8 00 00 00 00       	call   14a <map_append+0xdf>
 14a:	48 8b 55 e8          	mov    rdx,QWORD PTR [rbp-0x18]
 14e:	48 89 02             	mov    QWORD PTR [rdx],rax
 151:	b8 01 00 00 00       	mov    eax,0x1
 156:	c9                   	leave
 157:	c3                   	ret

0000000000000158 <find_key>:
 158:	f3 0f 1e fa          	endbr64
 15c:	55                   	push   rbp
 15d:	48 89 e5             	mov    rbp,rsp
 160:	48 83 ec 20          	sub    rsp,0x20
 164:	48 89 7d e8          	mov    QWORD PTR [rbp-0x18],rdi
 168:	48 89 75 e0          	mov    QWORD PTR [rbp-0x20],rsi
 16c:	48 83 7d e8 00       	cmp    QWORD PTR [rbp-0x18],0x0
 171:	74 07                	je     17a <find_key+0x22>
 173:	48 83 7d e0 00       	cmp    QWORD PTR [rbp-0x20],0x0
 178:	75 07                	jne    181 <find_key+0x29>
 17a:	b8 ff ff ff ff       	mov    eax,0xffffffff
 17f:	eb 5f                	jmp    1e0 <find_key+0x88>
 181:	c7 45 fc 00 00 00 00 	mov    DWORD PTR [rbp-0x4],0x0
 188:	eb 45                	jmp    1cf <find_key+0x77>
 18a:	48 8b 45 e0          	mov    rax,QWORD PTR [rbp-0x20]
 18e:	48 89 c7             	mov    rdi,rax
 191:	e8 00 00 00 00       	call   196 <find_key+0x3e>
 196:	48 63 d0             	movsxd rdx,eax
 199:	48 8b 45 e8          	mov    rax,QWORD PTR [rbp-0x18]
 19d:	48 8b 00             	mov    rax,QWORD PTR [rax]
 1a0:	8b 4d fc             	mov    ecx,DWORD PTR [rbp-0x4]
 1a3:	48 63 c9             	movsxd rcx,ecx
 1a6:	48 c1 e1 03          	shl    rcx,0x3
 1aa:	48 01 c8             	add    rax,rcx
 1ad:	48 8b 00             	mov    rax,QWORD PTR [rax]
 1b0:	48 8b 00             	mov    rax,QWORD PTR [rax]
 1b3:	48 8b 4d e0          	mov    rcx,QWORD PTR [rbp-0x20]
 1b7:	48 89 ce             	mov    rsi,rcx
 1ba:	48 89 c7             	mov    rdi,rax
 1bd:	e8 00 00 00 00       	call   1c2 <find_key+0x6a>
 1c2:	85 c0                	test   eax,eax
 1c4:	74 05                	je     1cb <find_key+0x73>
 1c6:	8b 45 fc             	mov    eax,DWORD PTR [rbp-0x4]
 1c9:	eb 15                	jmp    1e0 <find_key+0x88>
 1cb:	83 45 fc 01          	add    DWORD PTR [rbp-0x4],0x1
 1cf:	48 8b 45 e8          	mov    rax,QWORD PTR [rbp-0x18]
 1d3:	8b 40 08             	mov    eax,DWORD PTR [rax+0x8]
 1d6:	39 45 fc             	cmp    DWORD PTR [rbp-0x4],eax
 1d9:	7c af                	jl     18a <find_key+0x32>
 1db:	b8 ff ff ff ff       	mov    eax,0xffffffff
 1e0:	c9                   	leave
 1e1:	c3                   	ret

00000000000001e2 <field_destruct>:
 1e2:	f3 0f 1e fa          	endbr64
 1e6:	55                   	push   rbp
 1e7:	48 89 e5             	mov    rbp,rsp
 1ea:	48 83 ec 10          	sub    rsp,0x10
 1ee:	48 89 7d f8          	mov    QWORD PTR [rbp-0x8],rdi
 1f2:	48 8b 45 f8          	mov    rax,QWORD PTR [rbp-0x8]
 1f6:	48 8b 00             	mov    rax,QWORD PTR [rax]
 1f9:	48 85 c0             	test   rax,rax
 1fc:	74 14                	je     212 <field_destruct+0x30>
 1fe:	48 8b 45 f8          	mov    rax,QWORD PTR [rbp-0x8]
 202:	48 8b 00             	mov    rax,QWORD PTR [rax]
 205:	be 01 00 00 00       	mov    esi,0x1
 20a:	48 89 c7             	mov    rdi,rax
 20d:	e8 00 00 00 00       	call   212 <field_destruct+0x30>
 212:	48 8b 45 f8          	mov    rax,QWORD PTR [rbp-0x8]
 216:	48 8b 40 08          	mov    rax,QWORD PTR [rax+0x8]
 21a:	48 85 c0             	test   rax,rax
 21d:	74 15                	je     234 <field_destruct+0x52>
 21f:	48 8b 45 f8          	mov    rax,QWORD PTR [rbp-0x8]
 223:	48 8b 40 08          	mov    rax,QWORD PTR [rax+0x8]
 227:	be 01 00 00 00       	mov    esi,0x1
 22c:	48 89 c7             	mov    rdi,rax
 22f:	e8 00 00 00 00       	call   234 <field_destruct+0x52>
 234:	48 8b 45 f8          	mov    rax,QWORD PTR [rbp-0x8]
 238:	be 01 00 00 00       	mov    esi,0x1
 23d:	48 89 c7             	mov    rdi,rax
 240:	e8 00 00 00 00       	call   245 <field_destruct+0x63>
 245:	90                   	nop
 246:	c9                   	leave
 247:	c3                   	ret

0000000000000248 <map_destruct>:
 248:	f3 0f 1e fa          	endbr64
 24c:	55                   	push   rbp
 24d:	48 89 e5             	mov    rbp,rsp
 250:	48 83 ec 20          	sub    rsp,0x20
 254:	48 89 7d e8          	mov    QWORD PTR [rbp-0x18],rdi
 258:	c7 45 fc 00 00 00 00 	mov    DWORD PTR [rbp-0x4],0x0
 25f:	eb 23                	jmp    284 <map_destruct+0x3c>
 261:	48 8b 45 e8          	mov    rax,QWORD PTR [rbp-0x18]
 265:	48 8b 00             	mov    rax,QWORD PTR [rax]
 268:	8b 55 fc             	mov    edx,DWORD PTR [rbp-0x4]
 26b:	48 63 d2             	movsxd rdx,edx
 26e:	48 c1 e2 03          	shl    rdx,0x3
 272:	48 01 d0             	add    rax,rdx
 275:	48 8b 00             	mov    rax,QWORD PTR [rax]
 278:	48 89 c7             	mov    rdi,rax
 27b:	e8 00 00 00 00       	call   280 <map_destruct+0x38>
 280:	83 45 fc 01          	add    DWORD PTR [rbp-0x4],0x1
 284:	48 8b 45 e8          	mov    rax,QWORD PTR [rbp-0x18]
 288:	8b 40 08             	mov    eax,DWORD PTR [rax+0x8]
 28b:	39 45 fc             	cmp    DWORD PTR [rbp-0x4],eax
 28e:	7c d1                	jl     261 <map_destruct+0x19>
 290:	48 8b 45 e8          	mov    rax,QWORD PTR [rbp-0x18]
 294:	be 00 00 00 00       	mov    esi,0x0
 299:	48 89 c7             	mov    rdi,rax
 29c:	e8 00 00 00 00       	call   2a1 <map_destruct+0x59>
 2a1:	90                   	nop
 2a2:	c9                   	leave
 2a3:	c3                   	ret

memory.o:     file format elf64-x86-64


Disassembly of section .text:

0000000000000000 <memzero>:
   0:	f3 0f 1e fa          	endbr64
   4:	55                   	push   rbp
   5:	48 89 e5             	mov    rbp,rsp
   8:	48 83 ec 10          	sub    rsp,0x10
   c:	48 89 7d f8          	mov    QWORD PTR [rbp-0x8],rdi
  10:	48 89 75 f0          	mov    QWORD PTR [rbp-0x10],rsi
  14:	48 8b 55 f0          	mov    rdx,QWORD PTR [rbp-0x10]
  18:	48 8b 45 f8          	mov    rax,QWORD PTR [rbp-0x8]
  1c:	be 00 00 00 00       	mov    esi,0x0
  21:	48 89 c7             	mov    rdi,rax
  24:	e8 00 00 00 00       	call   29 <memzero+0x29>
  29:	90                   	nop
  2a:	c9                   	leave
  2b:	c3                   	ret

000000000000002c <mem_cmp>:
  2c:	f3 0f 1e fa          	endbr64
  30:	55                   	push   rbp
  31:	48 89 e5             	mov    rbp,rsp
  34:	48 89 7d e8          	mov    QWORD PTR [rbp-0x18],rdi
  38:	48 89 75 e0          	mov    QWORD PTR [rbp-0x20],rsi
  3c:	48 89 55 d8          	mov    QWORD PTR [rbp-0x28],rdx
  40:	c7 45 fc 00 00 00 00 	mov    DWORD PTR [rbp-0x4],0x0
  47:	eb 2f                	jmp    78 <mem_cmp+0x4c>
  49:	8b 45 fc             	mov    eax,DWORD PTR [rbp-0x4]
  4c:	48 63 d0             	movsxd rdx,eax
  4f:	48 8b 45 e8          	mov    rax,QWORD PTR [rbp-0x18]
  53:	48 01 d0             	add    rax,rdx
  56:	0f b6 10             	movzx  edx,BYTE PTR [rax]
  59:	8b 45 fc             	mov    eax,DWORD PTR [rbp-0x4]
  5c:	48 63 c8             	movsxd rcx,eax
  5f:	48 8b 45 e0          	mov    rax,QWORD PTR [rbp-0x20]
  63:	48 01 c8             	add    rax,rcx
  66:	0f b6 00             	movzx  eax,BYTE PTR [rax]
  69:	38 c2                	cmp    dl,al
  6b:	74 07                	je     74 <mem_cmp+0x48>
  6d:	b8 00 00 00 00       	mov    eax,0x0
  72:	eb 14                	jmp    88 <mem_cmp+0x5c>
  74:	83 45 fc 01          	add    DWORD PTR [rbp-0x4],0x1
  78:	8b 45 fc             	mov    eax,DWORD PTR [rbp-0x4]
  7b:	48 98                	cdqe
  7d:	48 3b 45 d8          	cmp    rax,QWORD PTR [rbp-0x28]
  81:	72 c6                	jb     49 <mem_cmp+0x1d>
  83:	b8 01 00 00 00       	mov    eax,0x1
  88:	5d                   	pop    rbp
  89:	c3                   	ret

000000000000008a <mem_cpy>:
  8a:	f3 0f 1e fa          	endbr64
  8e:	55                   	push   rbp
  8f:	48 89 e5             	mov    rbp,rsp
  92:	48 89 7d e8          	mov    QWORD PTR [rbp-0x18],rdi
  96:	48 89 75 e0          	mov    QWORD PTR [rbp-0x20],rsi
  9a:	48 89 55 d8          	mov    QWORD PTR [rbp-0x28],rdx
  9e:	c7 45 fc 00 00 00 00 	mov    DWORD PTR [rbp-0x4],0x0
  a5:	eb 23                	jmp    ca <mem_cpy+0x40>
  a7:	8b 45 fc             	mov    eax,DWORD PTR [rbp-0x4]
  aa:	48 63 d0             	movsxd rdx,eax
  ad:	48 8b 45 e0          	mov    rax,QWORD PTR [rbp-0x20]
  b1:	48 01 d0             	add    rax,rdx
  b4:	8b 55 fc             	mov    edx,DWORD PTR [rbp-0x4]
  b7:	48 63 ca             	movsxd rcx,edx
  ba:	48 8b 55 e8          	mov    rdx,QWORD PTR [rbp-0x18]
  be:	48 01 ca             	add    rdx,rcx
  c1:	0f b6 00             	movzx  eax,BYTE PTR [rax]
  c4:	88 02                	mov    BYTE PTR [rdx],al
  c6:	83 45 fc 01          	add    DWORD PTR [rbp-0x4],0x1
  ca:	8b 45 fc             	mov    eax,DWORD PTR [rbp-0x4]
  cd:	48 98                	cdqe
  cf:	48 3b 45 d8          	cmp    rax,QWORD PTR [rbp-0x28]
  d3:	72 d2                	jb     a7 <mem_cpy+0x1d>
  d5:	90                   	nop
  d6:	90                   	nop
  d7:	5d                   	pop    rbp
  d8:	c3                   	ret

00000000000000d9 <mem_set>:
  d9:	f3 0f 1e fa          	endbr64
  dd:	55                   	push   rbp
  de:	48 89 e5             	mov    rbp,rsp
  e1:	48 89 7d e8          	mov    QWORD PTR [rbp-0x18],rdi
  e5:	89 f0                	mov    eax,esi
  e7:	48 89 55 d8          	mov    QWORD PTR [rbp-0x28],rdx
  eb:	88 45 e4             	mov    BYTE PTR [rbp-0x1c],al
  ee:	c7 45 fc 00 00 00 00 	mov    DWORD PTR [rbp-0x4],0x0
  f5:	eb 17                	jmp    10e <mem_set+0x35>
  f7:	8b 45 fc             	mov    eax,DWORD PTR [rbp-0x4]
  fa:	48 63 d0             	movsxd rdx,eax
  fd:	48 8b 45 e8          	mov    rax,QWORD PTR [rbp-0x18]
 101:	48 01 c2             	add    rdx,rax
 104:	0f b6 45 e4          	movzx  eax,BYTE PTR [rbp-0x1c]
 108:	88 02                	mov    BYTE PTR [rdx],al
 10a:	83 45 fc 01          	add    DWORD PTR [rbp-0x4],0x1
 10e:	8b 45 fc             	mov    eax,DWORD PTR [rbp-0x4]
 111:	48 98                	cdqe
 113:	48 3b 45 d8          	cmp    rax,QWORD PTR [rbp-0x28]
 117:	72 de                	jb     f7 <mem_set+0x1e>
 119:	90                   	nop
 11a:	90                   	nop
 11b:	5d                   	pop    rbp
 11c:	c3                   	ret

socket.o:     file format elf64-x86-64


Disassembly of section .text:

0000000000000000 <listen_tcp>:
   0:	f3 0f 1e fa          	endbr64
   4:	55                   	push   rbp
   5:	48 89 e5             	mov    rbp,rsp
   8:	48 83 ec 50          	sub    rsp,0x50
   c:	48 89 7d b8          	mov    QWORD PTR [rbp-0x48],rdi
  10:	89 75 b4             	mov    DWORD PTR [rbp-0x4c],esi
  13:	89 55 b0             	mov    DWORD PTR [rbp-0x50],edx
  16:	48 83 ec 08          	sub    rsp,0x8
  1a:	6a 29                	push   0x29
  1c:	41 b9 00 00 00 00    	mov    r9d,0x0
  22:	41 b8 00 00 00 00    	mov    r8d,0x0
  28:	b9 00 00 00 00       	mov    ecx,0x0
  2d:	ba 00 00 00 00       	mov    edx,0x0
  32:	be 01 00 00 00       	mov    esi,0x1
  37:	bf 02 00 00 00       	mov    edi,0x2
  3c:	e8 00 00 00 00       	call   41 <listen_tcp+0x41>
  41:	48 83 c4 10          	add    rsp,0x10
  45:	48 89 45 f8          	mov    QWORD PTR [rbp-0x8],rax
  49:	48 83 7d f8 00       	cmp    QWORD PTR [rbp-0x8],0x0
  4e:	79 1e                	jns    6e <listen_tcp+0x6e>
  50:	48 8d 0d 00 00 00 00 	lea    rcx,[rip+0x0]        # 57 <listen_tcp+0x57>
  57:	48 8d 05 00 00 00 00 	lea    rax,[rip+0x0]        # 5e <listen_tcp+0x5e>
  5e:	ba 07 00 00 00       	mov    edx,0x7
  63:	48 89 ce             	mov    rsi,rcx
  66:	48 89 c7             	mov    rdi,rax
  69:	e8 00 00 00 00       	call   6e <listen_tcp+0x6e>
  6e:	8b 05 00 00 00 00    	mov    eax,DWORD PTR [rip+0x0]        # 74 <listen_tcp+0x74>
  74:	85 c0                	test   eax,eax
  76:	74 29                	je     a1 <listen_tcp+0xa1>
  78:	48 8d 05 00 00 00 00 	lea    rax,[rip+0x0]        # 7f <listen_tcp+0x7f>
  7f:	48 89 c7             	mov    rdi,rax
  82:	e8 00 00 00 00       	call   87 <listen_tcp+0x87>
  87:	48 8b 45 f8          	mov    rax,QWORD PTR [rbp-0x8]
  8b:	89 c7                	mov    edi,eax
  8d:	e8 00 00 00 00       	call   92 <listen_tcp+0x92>
  92:	48 8d 05 00 00 00 00 	lea    rax,[rip+0x0]        # 99 <listen_tcp+0x99>
  99:	48 89 c7             	mov    rdi,rax
  9c:	e8 00 00 00 00       	call   a1 <listen_tcp+0xa1>
  a1:	c7 45 dc 01 00 00 00 	mov    DWORD PTR [rbp-0x24],0x1
  a8:	c7 45 d8 01 00 00 00 	mov    DWORD PTR [rbp-0x28],0x1
  af:	48 8d 55 dc          	lea    rdx,[rbp-0x24]
  b3:	48 8b 45 f8          	mov    rax,QWORD PTR [rbp-0x8]
  b7:	48 83 ec 08          	sub    rsp,0x8
  bb:	6a 36                	push   0x36
  bd:	41 b9 00 00 00 00    	mov    r9d,0x0
  c3:	41 b8 04 00 00 00    	mov    r8d,0x4
  c9:	48 89 d1             	mov    rcx,rdx
  cc:	ba 02 00 00 00       	mov    edx,0x2
  d1:	be 01 00 00 00       	mov    esi,0x1
  d6:	48 89 c7             	mov    rdi,rax
  d9:	e8 00 00 00 00       	call   de <listen_tcp+0xde>
  de:	48 83 c4 10          	add    rsp,0x10
  e2:	48 89 45 f0          	mov    QWORD PTR [rbp-0x10],rax
  e6:	48 8d 55 d8          	lea    rdx,[rbp-0x28]
  ea:	48 8b 45 f8          	mov    rax,QWORD PTR [rbp-0x8]
  ee:	48 83 ec 08          	sub    rsp,0x8
  f2:	6a 36                	push   0x36
  f4:	41 b9 00 00 00 00    	mov    r9d,0x0
  fa:	41 b8 04 00 00 00    	mov    r8d,0x4
 100:	48 89 d1             	mov    rcx,rdx
 103:	ba 0f 00 00 00       	mov    edx,0xf
 108:	be 01 00 00 00       	mov    esi,0x1
 10d:	48 89 c7             	mov    rdi,rax
 110:	e8 00 00 00 00       	call   115 <listen_tcp+0x115>
 115:	48 83 c4 10          	add    rsp,0x10
 119:	48 c7 45 c0 00 00 00 	mov    QWORD PTR [rbp-0x40],0x0
 120:	00 
 121:	48 c7 45 c8 00 00 00 	mov    QWORD PTR [rbp-0x38],0x0
 128:	00 
 129:	66 c7 45 c0 02 00    	mov    WORD PTR [rbp-0x40],0x2
 12f:	8b 45 b4             	mov    eax,DWORD PTR [rbp-0x4c]
 132:	0f b7 c0             	movzx  eax,ax
 135:	89 c7                	mov    edi,eax
 137:	e8 00 00 00 00       	call   13c <listen_tcp+0x13c>
 13c:	66 89 45 c2          	mov    WORD PTR [rbp-0x3e],ax
 140:	c7 45 c4 00 00 00 00 	mov    DWORD PTR [rbp-0x3c],0x0
 147:	48 8d 75 c0          	lea    rsi,[rbp-0x40]
 14b:	48 8b 45 f8          	mov    rax,QWORD PTR [rbp-0x8]
 14f:	48 83 ec 08          	sub    rsp,0x8
 153:	6a 31                	push   0x31
 155:	41 b9 00 00 00 00    	mov    r9d,0x0
 15b:	41 b8 00 00 00 00    	mov    r8d,0x0
 161:	b9 00 00 00 00       	mov    ecx,0x0
 166:	ba 10 00 00 00       	mov    edx,0x10
 16b:	48 89 c7             	mov    rdi,rax
 16e:	e8 00 00 00 00       	call   173 <listen_tcp+0x173>
 173:	48 83 c4 10          	add    rsp,0x10
 177:	48 89 45 e8          	mov    QWORD PTR [rbp-0x18],rax
 17b:	48 83 7d e8 00       	cmp    QWORD PTR [rbp-0x18],0x0
 180:	79 1e                	jns    1a0 <listen_tcp+0x1a0>
 182:	48 8d 0d 00 00 00 00 	lea    rcx,[rip+0x0]        # 189 <listen_tcp+0x189>
 189:	48 8d 05 00 00 00 00 	lea    rax,[rip+0x0]        # 190 <listen_tcp+0x190>
 190:	ba 1c 00 00 00       	mov    edx,0x1c
 195:	48 89 ce             	mov    rsi,rcx
 198:	48 89 c7             	mov    rdi,rax
 19b:	e8 00 00 00 00       	call   1a0 <listen_tcp+0x1a0>
 1a0:	8b 45 b0             	mov    eax,DWORD PTR [rbp-0x50]
 1a3:	48 63 f0             	movsxd rsi,eax
 1a6:	48 8b 45 f8          	mov    rax,QWORD PTR [rbp-0x8]
 1aa:	48 83 ec 08          	sub    rsp,0x8
 1ae:	6a 32                	push   0x32
 1b0:	41 b9 00 00 00 00    	mov    r9d,0x0
 1b6:	41 b8 00 00 00 00    	mov    r8d,0x0
 1bc:	b9 00 00 00 00       	mov    ecx,0x0
 1c1:	ba 00 00 00 00       	mov    edx,0x0
 1c6:	48 89 c7             	mov    rdi,rax
 1c9:	e8 00 00 00 00       	call   1ce <listen_tcp+0x1ce>
 1ce:	48 83 c4 10          	add    rsp,0x10
 1d2:	48 89 45 e8          	mov    QWORD PTR [rbp-0x18],rax
 1d6:	48 83 7d e8 00       	cmp    QWORD PTR [rbp-0x18],0x0
 1db:	79 1e                	jns    1fb <listen_tcp+0x1fb>
 1dd:	48 8d 0d 00 00 00 00 	lea    rcx,[rip+0x0]        # 1e4 <listen_tcp+0x1e4>
 1e4:	48 8d 05 00 00 00 00 	lea    rax,[rip+0x0]        # 1eb <listen_tcp+0x1eb>
 1eb:	ba 22 00 00 00       	mov    edx,0x22
 1f0:	48 89 ce             	mov    rsi,rcx
 1f3:	48 89 c7             	mov    rdi,rax
 1f6:	e8 00 00 00 00       	call   1fb <listen_tcp+0x1fb>
 1fb:	be 18 00 00 00       	mov    esi,0x18
 200:	bf 00 00 00 00       	mov    edi,0x0
 205:	e8 00 00 00 00       	call   20a <listen_tcp+0x20a>
 20a:	48 89 45 e0          	mov    QWORD PTR [rbp-0x20],rax
 20e:	48 8b 45 f8          	mov    rax,QWORD PTR [rbp-0x8]
 212:	89 c2                	mov    edx,eax
 214:	48 8b 45 e0          	mov    rax,QWORD PTR [rbp-0x20]
 218:	89 10                	mov    DWORD PTR [rax],edx
 21a:	48 8b 4d e0          	mov    rcx,QWORD PTR [rbp-0x20]
 21e:	48 8b 45 c0          	mov    rax,QWORD PTR [rbp-0x40]
 222:	48 8b 55 c8          	mov    rdx,QWORD PTR [rbp-0x38]
 226:	48 89 41 04          	mov    QWORD PTR [rcx+0x4],rax
 22a:	48 89 51 0c          	mov    QWORD PTR [rcx+0xc],rdx
 22e:	48 8b 45 e0          	mov    rax,QWORD PTR [rbp-0x20]
 232:	c9                   	leave
 233:	c3                   	ret

0000000000000234 <sock_accept>:
 234:	f3 0f 1e fa          	endbr64
 238:	55                   	push   rbp
 239:	48 89 e5             	mov    rbp,rsp
 23c:	48 83 ec 20          	sub    rsp,0x20
 240:	48 89 7d e8          	mov    QWORD PTR [rbp-0x18],rdi
 244:	89 75 e4             	mov    DWORD PTR [rbp-0x1c],esi
 247:	c7 45 fc 00 00 00 00 	mov    DWORD PTR [rbp-0x4],0x0
 24e:	48 8b 45 e8          	mov    rax,QWORD PTR [rbp-0x18]
 252:	8b 00                	mov    eax,DWORD PTR [rax]
 254:	48 98                	cdqe
 256:	48 83 ec 08          	sub    rsp,0x8
 25a:	6a 2b                	push   0x2b
 25c:	49 c7 c1 ff ff ff ff 	mov    r9,0xffffffffffffffff
 263:	49 c7 c0 ff ff ff ff 	mov    r8,0xffffffffffffffff
 26a:	48 c7 c1 ff ff ff ff 	mov    rcx,0xffffffffffffffff
 271:	ba 00 00 00 00       	mov    edx,0x0
 276:	be 00 00 00 00       	mov    esi,0x0
 27b:	48 89 c7             	mov    rdi,rax
 27e:	e8 00 00 00 00       	call   283 <sock_accept+0x4f>
 283:	48 83 c4 10          	add    rsp,0x10
 287:	89 45 fc             	mov    DWORD PTR [rbp-0x4],eax
 28a:	83 7d fc 00          	cmp    DWORD PTR [rbp-0x4],0x0
 28e:	79 07                	jns    297 <sock_accept+0x63>
 290:	b8 00 00 00 00       	mov    eax,0x0
 295:	eb 2a                	jmp    2c1 <sock_accept+0x8d>
 297:	be 18 00 00 00       	mov    esi,0x18
 29c:	bf 00 00 00 00       	mov    edi,0x0
 2a1:	e8 00 00 00 00       	call   2a6 <sock_accept+0x72>
 2a6:	48 89 45 f0          	mov    QWORD PTR [rbp-0x10],rax
 2aa:	48 8b 45 f0          	mov    rax,QWORD PTR [rbp-0x10]
 2ae:	8b 55 fc             	mov    edx,DWORD PTR [rbp-0x4]
 2b1:	89 10                	mov    DWORD PTR [rax],edx
 2b3:	48 8b 45 f0          	mov    rax,QWORD PTR [rbp-0x10]
 2b7:	8b 55 e4             	mov    edx,DWORD PTR [rbp-0x1c]
 2ba:	89 50 14             	mov    DWORD PTR [rax+0x14],edx
 2bd:	48 8b 45 f0          	mov    rax,QWORD PTR [rbp-0x10]
 2c1:	c9                   	leave
 2c2:	c3                   	ret

00000000000002c3 <create_socket>:
 2c3:	f3 0f 1e fa          	endbr64
 2c7:	55                   	push   rbp
 2c8:	48 89 e5             	mov    rbp,rsp
 2cb:	48 83 ec 10          	sub    rsp,0x10
 2cf:	89 7d fc             	mov    DWORD PTR [rbp-0x4],edi
 2d2:	89 75 f8             	mov    DWORD PTR [rbp-0x8],esi
 2d5:	89 55 f4             	mov    DWORD PTR [rbp-0xc],edx
 2d8:	8b 45 f4             	mov    eax,DWORD PTR [rbp-0xc]
 2db:	48 63 d0             	movsxd rdx,eax
 2de:	8b 45 f8             	mov    eax,DWORD PTR [rbp-0x8]
 2e1:	48 63 f0             	movsxd rsi,eax
 2e4:	8b 45 fc             	mov    eax,DWORD PTR [rbp-0x4]
 2e7:	48 98                	cdqe
 2e9:	48 83 ec 08          	sub    rsp,0x8
 2ed:	6a 29                	push   0x29
 2ef:	41 b9 00 00 00 00    	mov    r9d,0x0
 2f5:	41 b8 00 00 00 00    	mov    r8d,0x0
 2fb:	b9 00 00 00 00       	mov    ecx,0x0
 300:	48 89 c7             	mov    rdi,rax
 303:	e8 00 00 00 00       	call   308 <create_socket+0x45>
 308:	48 83 c4 10          	add    rsp,0x10
 30c:	c9                   	leave
 30d:	c3                   	ret

000000000000030e <sock_write>:
 30e:	f3 0f 1e fa          	endbr64
 312:	55                   	push   rbp
 313:	48 89 e5             	mov    rbp,rsp
 316:	48 83 ec 10          	sub    rsp,0x10
 31a:	48 89 7d f8          	mov    QWORD PTR [rbp-0x8],rdi
 31e:	48 89 75 f0          	mov    QWORD PTR [rbp-0x10],rsi
 322:	48 8b 45 f0          	mov    rax,QWORD PTR [rbp-0x10]
 326:	48 89 c7             	mov    rdi,rax
 329:	e8 00 00 00 00       	call   32e <sock_write+0x20>
 32e:	48 63 d0             	movsxd rdx,eax
 331:	48 8b 75 f0          	mov    rsi,QWORD PTR [rbp-0x10]
 335:	48 8b 45 f8          	mov    rax,QWORD PTR [rbp-0x8]
 339:	8b 00                	mov    eax,DWORD PTR [rax]
 33b:	48 98                	cdqe
 33d:	48 83 ec 08          	sub    rsp,0x8
 341:	6a 01                	push   0x1
 343:	49 c7 c1 ff ff ff ff 	mov    r9,0xffffffffffffffff
 34a:	49 c7 c0 ff ff ff ff 	mov    r8,0xffffffffffffffff
 351:	48 c7 c1 ff ff ff ff 	mov    rcx,0xffffffffffffffff
 358:	48 89 c7             	mov    rdi,rax
 35b:	e8 00 00 00 00       	call   360 <sock_write+0x52>
 360:	48 83 c4 10          	add    rsp,0x10
 364:	c9                   	leave
 365:	c3                   	ret

0000000000000366 <sock_read>:
 366:	f3 0f 1e fa          	endbr64
 36a:	55                   	push   rbp
 36b:	48 89 e5             	mov    rbp,rsp
 36e:	53                   	push   rbx
 36f:	48 83 ec 38          	sub    rsp,0x38
 373:	48 89 7d c8          	mov    QWORD PTR [rbp-0x38],rdi
 377:	48 89 e0             	mov    rax,rsp
 37a:	48 89 c3             	mov    rbx,rax
 37d:	48 8b 45 c8          	mov    rax,QWORD PTR [rbp-0x38]
 381:	8b 40 14             	mov    eax,DWORD PTR [rax+0x14]
 384:	48 63 d0             	movsxd rdx,eax
 387:	48 83 ea 01          	sub    rdx,0x1
 38b:	48 89 55 e8          	mov    QWORD PTR [rbp-0x18],rdx
 38f:	48 98                	cdqe
 391:	ba 10 00 00 00       	mov    edx,0x10
 396:	48 83 ea 01          	sub    rdx,0x1
 39a:	48 01 d0             	add    rax,rdx
 39d:	bf 10 00 00 00       	mov    edi,0x10
 3a2:	ba 00 00 00 00       	mov    edx,0x0
 3a7:	48 f7 f7             	div    rdi
 3aa:	48 6b c0 10          	imul   rax,rax,0x10
 3ae:	48 89 c1             	mov    rcx,rax
 3b1:	48 81 e1 00 f0 ff ff 	and    rcx,0xfffffffffffff000
 3b8:	48 89 e2             	mov    rdx,rsp
 3bb:	48 29 ca             	sub    rdx,rcx
 3be:	48 39 d4             	cmp    rsp,rdx
 3c1:	74 12                	je     3d5 <sock_read+0x6f>
 3c3:	48 81 ec 00 10 00 00 	sub    rsp,0x1000
 3ca:	48 83 8c 24 f8 0f 00 	or     QWORD PTR [rsp+0xff8],0x0
 3d1:	00 00 
 3d3:	eb e9                	jmp    3be <sock_read+0x58>
 3d5:	48 89 c2             	mov    rdx,rax
 3d8:	81 e2 ff 0f 00 00    	and    edx,0xfff
 3de:	48 29 d4             	sub    rsp,rdx
 3e1:	48 89 c2             	mov    rdx,rax
 3e4:	81 e2 ff 0f 00 00    	and    edx,0xfff
 3ea:	48 85 d2             	test   rdx,rdx
 3ed:	74 10                	je     3ff <sock_read+0x99>
 3ef:	25 ff 0f 00 00       	and    eax,0xfff
 3f4:	48 83 e8 08          	sub    rax,0x8
 3f8:	48 01 e0             	add    rax,rsp
 3fb:	48 83 08 00          	or     QWORD PTR [rax],0x0
 3ff:	48 89 e0             	mov    rax,rsp
 402:	48 89 45 e0          	mov    QWORD PTR [rbp-0x20],rax
 406:	48 8b 45 c8          	mov    rax,QWORD PTR [rbp-0x38]
 40a:	8b 40 14             	mov    eax,DWORD PTR [rax+0x14]
 40d:	48 63 d0             	movsxd rdx,eax
 410:	48 8b 75 e0          	mov    rsi,QWORD PTR [rbp-0x20]
 414:	48 8b 45 c8          	mov    rax,QWORD PTR [rbp-0x38]
 418:	8b 00                	mov    eax,DWORD PTR [rax]
 41a:	48 98                	cdqe
 41c:	48 83 ec 08          	sub    rsp,0x8
 420:	6a 00                	push   0x0
 422:	41 b9 00 00 00 00    	mov    r9d,0x0
 428:	41 b8 00 00 00 00    	mov    r8d,0x0
 42e:	b9 00 00 00 00       	mov    ecx,0x0
 433:	48 89 c7             	mov    rdi,rax
 436:	e8 00 00 00 00       	call   43b <sock_read+0xd5>
 43b:	48 83 c4 10          	add    rsp,0x10
 43f:	48 89 45 d8          	mov    QWORD PTR [rbp-0x28],rax
 443:	48 83 7d d8 00       	cmp    QWORD PTR [rbp-0x28],0x0
 448:	7e 48                	jle    492 <sock_read+0x12c>
 44a:	48 8b 45 d8          	mov    rax,QWORD PTR [rbp-0x28]
 44e:	83 c0 01             	add    eax,0x1
 451:	89 c6                	mov    esi,eax
 453:	bf 00 00 00 00       	mov    edi,0x0
 458:	e8 00 00 00 00       	call   45d <sock_read+0xf7>
 45d:	48 89 45 d0          	mov    QWORD PTR [rbp-0x30],rax
 461:	48 8b 45 c8          	mov    rax,QWORD PTR [rbp-0x38]
 465:	8b 40 14             	mov    eax,DWORD PTR [rax+0x14]
 468:	48 63 d0             	movsxd rdx,eax
 46b:	48 8b 4d e0          	mov    rcx,QWORD PTR [rbp-0x20]
 46f:	48 8b 45 d0          	mov    rax,QWORD PTR [rbp-0x30]
 473:	48 89 ce             	mov    rsi,rcx
 476:	48 89 c7             	mov    rdi,rax
 479:	e8 00 00 00 00       	call   47e <sock_read+0x118>
 47e:	48 8b 55 d8          	mov    rdx,QWORD PTR [rbp-0x28]
 482:	48 8b 45 d0          	mov    rax,QWORD PTR [rbp-0x30]
 486:	48 01 d0             	add    rax,rdx
 489:	c6 00 00             	mov    BYTE PTR [rax],0x0
 48c:	48 8b 45 d0          	mov    rax,QWORD PTR [rbp-0x30]
 490:	eb 05                	jmp    497 <sock_read+0x131>
 492:	b8 00 00 00 00       	mov    eax,0x0
 497:	48 89 dc             	mov    rsp,rbx
 49a:	48 8b 5d f8          	mov    rbx,QWORD PTR [rbp-0x8]
 49e:	c9                   	leave
 49f:	c3                   	ret

00000000000004a0 <sock_close>:
 4a0:	f3 0f 1e fa          	endbr64
 4a4:	55                   	push   rbp
 4a5:	48 89 e5             	mov    rbp,rsp
 4a8:	48 83 ec 10          	sub    rsp,0x10
 4ac:	48 89 7d f8          	mov    QWORD PTR [rbp-0x8],rdi
 4b0:	48 8b 45 f8          	mov    rax,QWORD PTR [rbp-0x8]
 4b4:	8b 00                	mov    eax,DWORD PTR [rax]
 4b6:	48 98                	cdqe
 4b8:	48 83 ec 08          	sub    rsp,0x8
 4bc:	6a 03                	push   0x3
 4be:	49 c7 c1 ff ff ff ff 	mov    r9,0xffffffffffffffff
 4c5:	49 c7 c0 ff ff ff ff 	mov    r8,0xffffffffffffffff
 4cc:	48 c7 c1 ff ff ff ff 	mov    rcx,0xffffffffffffffff
 4d3:	48 c7 c2 ff ff ff ff 	mov    rdx,0xffffffffffffffff
 4da:	48 c7 c6 ff ff ff ff 	mov    rsi,0xffffffffffffffff
 4e1:	48 89 c7             	mov    rdi,rax
 4e4:	e8 00 00 00 00       	call   4e9 <sock_close+0x49>
 4e9:	48 83 c4 10          	add    rsp,0x10
 4ed:	48 8b 45 f8          	mov    rax,QWORD PTR [rbp-0x8]
 4f1:	be 01 00 00 00       	mov    esi,0x1
 4f6:	48 89 c7             	mov    rdi,rax
 4f9:	e8 00 00 00 00       	call   4fe <sock_close+0x5e>
 4fe:	90                   	nop
 4ff:	c9                   	leave
 500:	c3                   	ret

0000000000000501 <parse_ipv4>:
 501:	f3 0f 1e fa          	endbr64
 505:	55                   	push   rbp
 506:	48 89 e5             	mov    rbp,rsp
 509:	48 89 7d e8          	mov    QWORD PTR [rbp-0x18],rdi
 50d:	48 89 75 e0          	mov    QWORD PTR [rbp-0x20],rsi
 511:	c7 45 fc 00 00 00 00 	mov    DWORD PTR [rbp-0x4],0x0
 518:	c7 45 f8 00 00 00 00 	mov    DWORD PTR [rbp-0x8],0x0
 51f:	c7 45 f4 18 00 00 00 	mov    DWORD PTR [rbp-0xc],0x18
 526:	c7 45 f0 00 00 00 00 	mov    DWORD PTR [rbp-0x10],0x0
 52d:	48 83 7d e8 00       	cmp    QWORD PTR [rbp-0x18],0x0
 532:	74 0b                	je     53f <parse_ipv4+0x3e>
 534:	48 83 7d e0 00       	cmp    QWORD PTR [rbp-0x20],0x0
 539:	0f 85 9a 00 00 00    	jne    5d9 <parse_ipv4+0xd8>
 53f:	b8 00 00 00 00       	mov    eax,0x0
 544:	e9 c0 00 00 00       	jmp    609 <parse_ipv4+0x108>
 549:	48 8b 45 e8          	mov    rax,QWORD PTR [rbp-0x18]
 54d:	0f b6 00             	movzx  eax,BYTE PTR [rax]
 550:	3c 2f                	cmp    al,0x2f
 552:	7e 3b                	jle    58f <parse_ipv4+0x8e>
 554:	48 8b 45 e8          	mov    rax,QWORD PTR [rbp-0x18]
 558:	0f b6 00             	movzx  eax,BYTE PTR [rax]
 55b:	3c 39                	cmp    al,0x39
 55d:	7f 30                	jg     58f <parse_ipv4+0x8e>
 55f:	8b 55 f8             	mov    edx,DWORD PTR [rbp-0x8]
 562:	89 d0                	mov    eax,edx
 564:	c1 e0 02             	shl    eax,0x2
 567:	01 d0                	add    eax,edx
 569:	01 c0                	add    eax,eax
 56b:	89 c2                	mov    edx,eax
 56d:	48 8b 45 e8          	mov    rax,QWORD PTR [rbp-0x18]
 571:	0f b6 00             	movzx  eax,BYTE PTR [rax]
 574:	0f be c0             	movsx  eax,al
 577:	83 e8 30             	sub    eax,0x30
 57a:	01 d0                	add    eax,edx
 57c:	89 45 f8             	mov    DWORD PTR [rbp-0x8],eax
 57f:	81 7d f8 ff 00 00 00 	cmp    DWORD PTR [rbp-0x8],0xff
 586:	7e 4c                	jle    5d4 <parse_ipv4+0xd3>
 588:	b8 00 00 00 00       	mov    eax,0x0
 58d:	eb 7a                	jmp    609 <parse_ipv4+0x108>
 58f:	48 8b 45 e8          	mov    rax,QWORD PTR [rbp-0x18]
 593:	0f b6 00             	movzx  eax,BYTE PTR [rax]
 596:	3c 2e                	cmp    al,0x2e
 598:	75 33                	jne    5cd <parse_ipv4+0xcc>
 59a:	83 7d f0 02          	cmp    DWORD PTR [rbp-0x10],0x2
 59e:	7f 06                	jg     5a6 <parse_ipv4+0xa5>
 5a0:	83 7d f4 00          	cmp    DWORD PTR [rbp-0xc],0x0
 5a4:	79 07                	jns    5ad <parse_ipv4+0xac>
 5a6:	b8 00 00 00 00       	mov    eax,0x0
 5ab:	eb 5c                	jmp    609 <parse_ipv4+0x108>
 5ad:	8b 45 f4             	mov    eax,DWORD PTR [rbp-0xc]
 5b0:	8b 55 f8             	mov    edx,DWORD PTR [rbp-0x8]
 5b3:	89 c1                	mov    ecx,eax
 5b5:	d3 e2                	shl    edx,cl
 5b7:	89 d0                	mov    eax,edx
 5b9:	09 45 fc             	or     DWORD PTR [rbp-0x4],eax
 5bc:	83 6d f4 08          	sub    DWORD PTR [rbp-0xc],0x8
 5c0:	c7 45 f8 00 00 00 00 	mov    DWORD PTR [rbp-0x8],0x0
 5c7:	83 45 f0 01          	add    DWORD PTR [rbp-0x10],0x1
 5cb:	eb 07                	jmp    5d4 <parse_ipv4+0xd3>
 5cd:	b8 00 00 00 00       	mov    eax,0x0
 5d2:	eb 35                	jmp    609 <parse_ipv4+0x108>
 5d4:	48 83 45 e8 01       	add    QWORD PTR [rbp-0x18],0x1
 5d9:	48 8b 45 e8          	mov    rax,QWORD PTR [rbp-0x18]
 5dd:	0f b6 00             	movzx  eax,BYTE PTR [rax]
 5e0:	84 c0                	test   al,al
 5e2:	0f 85 61 ff ff ff    	jne    549 <parse_ipv4+0x48>
 5e8:	83 7d f0 03          	cmp    DWORD PTR [rbp-0x10],0x3
 5ec:	74 07                	je     5f5 <parse_ipv4+0xf4>
 5ee:	b8 00 00 00 00       	mov    eax,0x0
 5f3:	eb 14                	jmp    609 <parse_ipv4+0x108>
 5f5:	8b 45 f8             	mov    eax,DWORD PTR [rbp-0x8]
 5f8:	09 45 fc             	or     DWORD PTR [rbp-0x4],eax
 5fb:	48 8b 45 e0          	mov    rax,QWORD PTR [rbp-0x20]
 5ff:	8b 55 fc             	mov    edx,DWORD PTR [rbp-0x4]
 602:	89 10                	mov    DWORD PTR [rax],edx
 604:	b8 01 00 00 00       	mov    eax,0x1
 609:	5d                   	pop    rbp
 60a:	c3                   	ret

000000000000060b <convert_ip>:
 60b:	f3 0f 1e fa          	endbr64
 60f:	55                   	push   rbp
 610:	48 89 e5             	mov    rbp,rsp
 613:	48 83 ec 40          	sub    rsp,0x40
 617:	89 7d cc             	mov    DWORD PTR [rbp-0x34],edi
 61a:	8b 45 cc             	mov    eax,DWORD PTR [rbp-0x34]
 61d:	c1 e8 18             	shr    eax,0x18
 620:	88 45 ff             	mov    BYTE PTR [rbp-0x1],al
 623:	8b 45 cc             	mov    eax,DWORD PTR [rbp-0x34]
 626:	c1 e8 10             	shr    eax,0x10
 629:	88 45 fe             	mov    BYTE PTR [rbp-0x2],al
 62c:	8b 45 cc             	mov    eax,DWORD PTR [rbp-0x34]
 62f:	c1 e8 08             	shr    eax,0x8
 632:	88 45 fd             	mov    BYTE PTR [rbp-0x3],al
 635:	8b 45 cc             	mov    eax,DWORD PTR [rbp-0x34]
 638:	88 45 fc             	mov    BYTE PTR [rbp-0x4],al
 63b:	48 8d 45 ff          	lea    rax,[rbp-0x1]
 63f:	48 89 45 d0          	mov    QWORD PTR [rbp-0x30],rax
 643:	48 8d 45 fe          	lea    rax,[rbp-0x2]
 647:	48 89 45 d8          	mov    QWORD PTR [rbp-0x28],rax
 64b:	48 8d 45 fd          	lea    rax,[rbp-0x3]
 64f:	48 89 45 e0          	mov    QWORD PTR [rbp-0x20],rax
 653:	48 8d 45 fc          	lea    rax,[rbp-0x4]
 657:	48 89 45 e8          	mov    QWORD PTR [rbp-0x18],rax
 65b:	48 c7 45 f0 00 00 00 	mov    QWORD PTR [rbp-0x10],0x0
 662:	00 
 663:	48 8d 45 d0          	lea    rax,[rbp-0x30]
 667:	48 8d 35 00 00 00 00 	lea    rsi,[rip+0x0]        # 66e <convert_ip+0x63>
 66e:	48 8d 0d 00 00 00 00 	lea    rcx,[rip+0x0]        # 675 <convert_ip+0x6a>
 675:	48 89 c2             	mov    rdx,rax
 678:	48 89 cf             	mov    rdi,rcx
 67b:	e8 00 00 00 00       	call   680 <convert_ip+0x75>
 680:	48 8d 05 00 00 00 00 	lea    rax,[rip+0x0]        # 687 <convert_ip+0x7c>
 687:	c9                   	leave
 688:	c3                   	ret

0000000000000689 <_ntohs>:
 689:	f3 0f 1e fa          	endbr64
 68d:	55                   	push   rbp
 68e:	48 89 e5             	mov    rbp,rsp
 691:	89 f8                	mov    eax,edi
 693:	66 89 45 fc          	mov    WORD PTR [rbp-0x4],ax
 697:	0f b7 45 fc          	movzx  eax,WORD PTR [rbp-0x4]
 69b:	66 c1 e8 08          	shr    ax,0x8
 69f:	5d                   	pop    rbp
 6a0:	c3                   	ret

00000000000006a1 <_ntohl>:
 6a1:	f3 0f 1e fa          	endbr64
 6a5:	55                   	push   rbp
 6a6:	48 89 e5             	mov    rbp,rsp
 6a9:	89 7d fc             	mov    DWORD PTR [rbp-0x4],edi
 6ac:	8b 45 fc             	mov    eax,DWORD PTR [rbp-0x4]
 6af:	c1 e8 18             	shr    eax,0x18
 6b2:	89 c2                	mov    edx,eax
 6b4:	8b 45 fc             	mov    eax,DWORD PTR [rbp-0x4]
 6b7:	c1 e8 08             	shr    eax,0x8
 6ba:	25 00 ff 00 00       	and    eax,0xff00
 6bf:	09 c2                	or     edx,eax
 6c1:	8b 45 fc             	mov    eax,DWORD PTR [rbp-0x4]
 6c4:	c1 e0 08             	shl    eax,0x8
 6c7:	25 00 00 ff 00       	and    eax,0xff0000
 6cc:	09 c2                	or     edx,eax
 6ce:	8b 45 fc             	mov    eax,DWORD PTR [rbp-0x4]
 6d1:	c1 e0 18             	shl    eax,0x18
 6d4:	09 d0                	or     eax,edx
 6d6:	5d                   	pop    rbp
 6d7:	c3                   	ret

00000000000006d8 <_htons>:
 6d8:	f3 0f 1e fa          	endbr64
 6dc:	55                   	push   rbp
 6dd:	48 89 e5             	mov    rbp,rsp
 6e0:	89 f8                	mov    eax,edi
 6e2:	66 89 45 fc          	mov    WORD PTR [rbp-0x4],ax
 6e6:	0f b7 45 fc          	movzx  eax,WORD PTR [rbp-0x4]
 6ea:	c1 e0 08             	shl    eax,0x8
 6ed:	89 c2                	mov    edx,eax
 6ef:	0f b7 45 fc          	movzx  eax,WORD PTR [rbp-0x4]
 6f3:	66 c1 e8 08          	shr    ax,0x8
 6f7:	09 d0                	or     eax,edx
 6f9:	5d                   	pop    rbp
 6fa:	c3                   	ret

00000000000006fb <_htonl>:
 6fb:	f3 0f 1e fa          	endbr64
 6ff:	55                   	push   rbp
 700:	48 89 e5             	mov    rbp,rsp
 703:	89 7d fc             	mov    DWORD PTR [rbp-0x4],edi
 706:	8b 45 fc             	mov    eax,DWORD PTR [rbp-0x4]
 709:	c1 e0 18             	shl    eax,0x18
 70c:	89 c2                	mov    edx,eax
 70e:	8b 45 fc             	mov    eax,DWORD PTR [rbp-0x4]
 711:	c1 e0 08             	shl    eax,0x8
 714:	25 00 00 ff 00       	and    eax,0xff0000
 719:	09 c2                	or     edx,eax
 71b:	8b 45 fc             	mov    eax,DWORD PTR [rbp-0x4]
 71e:	c1 e8 08             	shr    eax,0x8
 721:	25 00 ff 00 00       	and    eax,0xff00
 726:	09 c2                	or     edx,eax
 728:	8b 45 fc             	mov    eax,DWORD PTR [rbp-0x4]
 72b:	c1 e8 18             	shr    eax,0x18
 72e:	09 d0                	or     eax,edx
 730:	5d                   	pop    rbp
 731:	c3                   	ret

start_up.o:     file format elf64-x86-64


Disassembly of section .text:

0000000000000000 <get_cmd_info>:
   0:	f3 0f 1e fa          	endbr64
   4:	55                   	push   rbp
   5:	48 89 e5             	mov    rbp,rsp
   8:	48 81 ec 20 04 00 00 	sub    rsp,0x420
   f:	48 89 bd e8 fb ff ff 	mov    QWORD PTR [rbp-0x418],rdi
  16:	48 c7 45 f8 00 00 00 	mov    QWORD PTR [rbp-0x8],0x0
  1d:	00 
  1e:	48 8d 05 00 00 00 00 	lea    rax,[rip+0x0]        # 25 <get_cmd_info+0x25>
  25:	48 83 ec 08          	sub    rsp,0x8
  29:	6a 02                	push   0x2
  2b:	49 c7 c1 ff ff ff ff 	mov    r9,0xffffffffffffffff
  32:	49 c7 c0 ff ff ff ff 	mov    r8,0xffffffffffffffff
  39:	48 c7 c1 ff ff ff ff 	mov    rcx,0xffffffffffffffff
  40:	ba 00 00 00 00       	mov    edx,0x0
  45:	be 00 00 00 00       	mov    esi,0x0
  4a:	48 89 c7             	mov    rdi,rax
  4d:	e8 00 00 00 00       	call   52 <get_cmd_info+0x52>
  52:	48 83 c4 10          	add    rsp,0x10
  56:	48 89 45 f8          	mov    QWORD PTR [rbp-0x8],rax
  5a:	48 83 7d f8 00       	cmp    QWORD PTR [rbp-0x8],0x0
  5f:	7f 0a                	jg     6b <get_cmd_info+0x6b>
  61:	b8 ff ff ff ff       	mov    eax,0xffffffff
  66:	e9 a8 00 00 00       	jmp    113 <get_cmd_info+0x113>
  6b:	48 8d 95 f0 fb ff ff 	lea    rdx,[rbp-0x410]
  72:	b8 00 00 00 00       	mov    eax,0x0
  77:	b9 80 00 00 00       	mov    ecx,0x80
  7c:	48 89 d7             	mov    rdi,rdx
  7f:	f3 48 ab             	rep stos QWORD PTR [rdi],rax
  82:	48 8d b5 f0 fb ff ff 	lea    rsi,[rbp-0x410]
  89:	48 8b 45 f8          	mov    rax,QWORD PTR [rbp-0x8]
  8d:	48 83 ec 08          	sub    rsp,0x8
  91:	6a 00                	push   0x0
  93:	49 c7 c1 ff ff ff ff 	mov    r9,0xffffffffffffffff
  9a:	49 c7 c0 ff ff ff ff 	mov    r8,0xffffffffffffffff
  a1:	48 c7 c1 ff ff ff ff 	mov    rcx,0xffffffffffffffff
  a8:	ba ff 00 00 00       	mov    edx,0xff
  ad:	48 89 c7             	mov    rdi,rax
  b0:	e8 00 00 00 00       	call   b5 <get_cmd_info+0xb5>
  b5:	48 83 c4 10          	add    rsp,0x10
  b9:	48 89 45 f0          	mov    QWORD PTR [rbp-0x10],rax
  bd:	48 8b 55 f0          	mov    rdx,QWORD PTR [rbp-0x10]
  c1:	48 8d 8d f0 fb ff ff 	lea    rcx,[rbp-0x410]
  c8:	48 8b 85 e8 fb ff ff 	mov    rax,QWORD PTR [rbp-0x418]
  cf:	48 89 ce             	mov    rsi,rcx
  d2:	48 89 c7             	mov    rdi,rax
  d5:	e8 00 00 00 00       	call   da <get_cmd_info+0xda>
  da:	48 8b 45 f8          	mov    rax,QWORD PTR [rbp-0x8]
  de:	48 83 ec 08          	sub    rsp,0x8
  e2:	6a 03                	push   0x3
  e4:	49 c7 c1 ff ff ff ff 	mov    r9,0xffffffffffffffff
  eb:	49 c7 c0 ff ff ff ff 	mov    r8,0xffffffffffffffff
  f2:	48 c7 c1 ff ff ff ff 	mov    rcx,0xffffffffffffffff
  f9:	ba 00 00 00 00       	mov    edx,0x0
  fe:	be 00 00 00 00       	mov    esi,0x0
 103:	48 89 c7             	mov    rdi,rax
 106:	e8 00 00 00 00       	call   10b <get_cmd_info+0x10b>
 10b:	48 83 c4 10          	add    rsp,0x10
 10f:	48 8b 45 f0          	mov    rax,QWORD PTR [rbp-0x10]
 113:	c9                   	leave
 114:	c3                   	ret

0000000000000115 <_count_char>:
 115:	f3 0f 1e fa          	endbr64
 119:	55                   	push   rbp
 11a:	48 89 e5             	mov    rbp,rsp
 11d:	48 89 7d e8          	mov    QWORD PTR [rbp-0x18],rdi
 121:	89 f0                	mov    eax,esi
 123:	89 55 e0             	mov    DWORD PTR [rbp-0x20],edx
 126:	88 45 e4             	mov    BYTE PTR [rbp-0x1c],al
 129:	c7 45 fc 00 00 00 00 	mov    DWORD PTR [rbp-0x4],0x0
 130:	c7 45 f8 00 00 00 00 	mov    DWORD PTR [rbp-0x8],0x0
 137:	eb 1d                	jmp    156 <_count_char+0x41>
 139:	8b 45 f8             	mov    eax,DWORD PTR [rbp-0x8]
 13c:	48 63 d0             	movsxd rdx,eax
 13f:	48 8b 45 e8          	mov    rax,QWORD PTR [rbp-0x18]
 143:	48 01 d0             	add    rax,rdx
 146:	0f b6 00             	movzx  eax,BYTE PTR [rax]
 149:	38 45 e4             	cmp    BYTE PTR [rbp-0x1c],al
 14c:	75 04                	jne    152 <_count_char+0x3d>
 14e:	83 45 fc 01          	add    DWORD PTR [rbp-0x4],0x1
 152:	83 45 f8 01          	add    DWORD PTR [rbp-0x8],0x1
 156:	8b 45 f8             	mov    eax,DWORD PTR [rbp-0x8]
 159:	3b 45 e0             	cmp    eax,DWORD PTR [rbp-0x20]
 15c:	7c db                	jl     139 <_count_char+0x24>
 15e:	8b 45 fc             	mov    eax,DWORD PTR [rbp-0x4]
 161:	5d                   	pop    rbp
 162:	c3                   	ret

0000000000000163 <_find_char>:
 163:	f3 0f 1e fa          	endbr64
 167:	55                   	push   rbp
 168:	48 89 e5             	mov    rbp,rsp
 16b:	48 89 7d e8          	mov    QWORD PTR [rbp-0x18],rdi
 16f:	89 f0                	mov    eax,esi
 171:	89 55 e0             	mov    DWORD PTR [rbp-0x20],edx
 174:	89 4d dc             	mov    DWORD PTR [rbp-0x24],ecx
 177:	88 45 e4             	mov    BYTE PTR [rbp-0x1c],al
 17a:	c7 45 fc 00 00 00 00 	mov    DWORD PTR [rbp-0x4],0x0
 181:	c7 45 f8 00 00 00 00 	mov    DWORD PTR [rbp-0x8],0x0
 188:	eb 2a                	jmp    1b4 <_find_char+0x51>
 18a:	8b 45 f8             	mov    eax,DWORD PTR [rbp-0x8]
 18d:	48 63 d0             	movsxd rdx,eax
 190:	48 8b 45 e8          	mov    rax,QWORD PTR [rbp-0x18]
 194:	48 01 d0             	add    rax,rdx
 197:	0f b6 00             	movzx  eax,BYTE PTR [rax]
 19a:	38 45 e4             	cmp    BYTE PTR [rbp-0x1c],al
 19d:	75 04                	jne    1a3 <_find_char+0x40>
 19f:	83 45 fc 01          	add    DWORD PTR [rbp-0x4],0x1
 1a3:	8b 45 fc             	mov    eax,DWORD PTR [rbp-0x4]
 1a6:	3b 45 dc             	cmp    eax,DWORD PTR [rbp-0x24]
 1a9:	75 05                	jne    1b0 <_find_char+0x4d>
 1ab:	8b 45 f8             	mov    eax,DWORD PTR [rbp-0x8]
 1ae:	eb 11                	jmp    1c1 <_find_char+0x5e>
 1b0:	83 45 f8 01          	add    DWORD PTR [rbp-0x8],0x1
 1b4:	8b 45 f8             	mov    eax,DWORD PTR [rbp-0x8]
 1b7:	3b 45 e0             	cmp    eax,DWORD PTR [rbp-0x20]
 1ba:	7c ce                	jl     18a <_find_char+0x27>
 1bc:	b8 ff ff ff ff       	mov    eax,0xffffffff
 1c1:	5d                   	pop    rbp
 1c2:	c3                   	ret

00000000000001c3 <get_args>:
 1c3:	f3 0f 1e fa          	endbr64
 1c7:	55                   	push   rbp
 1c8:	48 89 e5             	mov    rbp,rsp
 1cb:	48 81 ec 40 04 00 00 	sub    rsp,0x440
 1d2:	48 89 bd c8 fb ff ff 	mov    QWORD PTR [rbp-0x438],rdi
 1d9:	c7 45 fc 00 00 00 00 	mov    DWORD PTR [rbp-0x4],0x0
 1e0:	48 8d 95 d0 fb ff ff 	lea    rdx,[rbp-0x430]
 1e7:	b8 00 00 00 00       	mov    eax,0x0
 1ec:	b9 80 00 00 00       	mov    ecx,0x80
 1f1:	48 89 d7             	mov    rdi,rdx
 1f4:	f3 48 ab             	rep stos QWORD PTR [rdi],rax
 1f7:	48 8d 85 d0 fb ff ff 	lea    rax,[rbp-0x430]
 1fe:	48 89 c7             	mov    rdi,rax
 201:	e8 fa fd ff ff       	call   0 <get_cmd_info>
 206:	89 45 f0             	mov    DWORD PTR [rbp-0x10],eax
 209:	48 8d 85 d0 fb ff ff 	lea    rax,[rbp-0x430]
 210:	48 89 45 e8          	mov    QWORD PTR [rbp-0x18],rax
 214:	8b 55 f0             	mov    edx,DWORD PTR [rbp-0x10]
 217:	48 8d 85 d0 fb ff ff 	lea    rax,[rbp-0x430]
 21e:	be 00 00 00 00       	mov    esi,0x0
 223:	48 89 c7             	mov    rdi,rax
 226:	e8 ea fe ff ff       	call   115 <_count_char>
 22b:	89 45 e4             	mov    DWORD PTR [rbp-0x1c],eax
 22e:	c7 45 f8 00 00 00 00 	mov    DWORD PTR [rbp-0x8],0x0
 235:	c7 45 f4 00 00 00 00 	mov    DWORD PTR [rbp-0xc],0x0
 23c:	c7 45 e0 00 00 00 00 	mov    DWORD PTR [rbp-0x20],0x0
 243:	eb 59                	jmp    29e <get_args+0xdb>
 245:	8b 45 f4             	mov    eax,DWORD PTR [rbp-0xc]
 248:	8d 50 01             	lea    edx,[rax+0x1]
 24b:	89 55 f4             	mov    DWORD PTR [rbp-0xc],edx
 24e:	8b 55 f0             	mov    edx,DWORD PTR [rbp-0x10]
 251:	48 8b 7d e8          	mov    rdi,QWORD PTR [rbp-0x18]
 255:	89 c1                	mov    ecx,eax
 257:	be 00 00 00 00       	mov    esi,0x0
 25c:	e8 02 ff ff ff       	call   163 <_find_char>
 261:	89 45 dc             	mov    DWORD PTR [rbp-0x24],eax
 264:	83 7d dc ff          	cmp    DWORD PTR [rbp-0x24],0xffffffff
 268:	74 3e                	je     2a8 <get_args+0xe5>
 26a:	8b 45 dc             	mov    eax,DWORD PTR [rbp-0x24]
 26d:	48 98                	cdqe
 26f:	48 8d 48 01          	lea    rcx,[rax+0x1]
 273:	8b 45 fc             	mov    eax,DWORD PTR [rbp-0x4]
 276:	8d 50 01             	lea    edx,[rax+0x1]
 279:	89 55 fc             	mov    DWORD PTR [rbp-0x4],edx
 27c:	48 98                	cdqe
 27e:	48 8d 14 c5 00 00 00 	lea    rdx,[rax*8+0x0]
 285:	00 
 286:	48 8b 85 c8 fb ff ff 	mov    rax,QWORD PTR [rbp-0x438]
 28d:	48 01 d0             	add    rax,rdx
 290:	48 8b 55 e8          	mov    rdx,QWORD PTR [rbp-0x18]
 294:	48 01 ca             	add    rdx,rcx
 297:	48 89 10             	mov    QWORD PTR [rax],rdx
 29a:	83 45 f8 01          	add    DWORD PTR [rbp-0x8],0x1
 29e:	8b 45 f8             	mov    eax,DWORD PTR [rbp-0x8]
 2a1:	3b 45 e4             	cmp    eax,DWORD PTR [rbp-0x1c]
 2a4:	7c 9f                	jl     245 <get_args+0x82>
 2a6:	eb 01                	jmp    2a9 <get_args+0xe6>
 2a8:	90                   	nop
 2a9:	8b 45 fc             	mov    eax,DWORD PTR [rbp-0x4]
 2ac:	c9                   	leave
 2ad:	c3                   	ret

string.o:     file format elf64-x86-64


Disassembly of section .text:

0000000000000000 <ptr_to_str>:
       0:	f3 0f 1e fa          	endbr64
       4:	55                   	push   rbp
       5:	48 89 e5             	mov    rbp,rsp
       8:	48 89 7d e8          	mov    QWORD PTR [rbp-0x18],rdi
       c:	48 89 75 e0          	mov    QWORD PTR [rbp-0x20],rsi
      10:	48 8b 45 e8          	mov    rax,QWORD PTR [rbp-0x18]
      14:	48 89 45 f0          	mov    QWORD PTR [rbp-0x10],rax
      18:	48 8b 45 e0          	mov    rax,QWORD PTR [rbp-0x20]
      1c:	c6 00 30             	mov    BYTE PTR [rax],0x30
      1f:	48 8b 45 e0          	mov    rax,QWORD PTR [rbp-0x20]
      23:	48 83 c0 01          	add    rax,0x1
      27:	c6 00 78             	mov    BYTE PTR [rax],0x78
      2a:	c7 45 fc 02 00 00 00 	mov    DWORD PTR [rbp-0x4],0x2
      31:	c7 45 f8 0f 00 00 00 	mov    DWORD PTR [rbp-0x8],0xf
      38:	eb 3c                	jmp    76 <ptr_to_str+0x76>
      3a:	8b 45 f8             	mov    eax,DWORD PTR [rbp-0x8]
      3d:	c1 e0 02             	shl    eax,0x2
      40:	48 8b 55 f0          	mov    rdx,QWORD PTR [rbp-0x10]
      44:	89 c1                	mov    ecx,eax
      46:	48 d3 ea             	shr    rdx,cl
      49:	48 89 d0             	mov    rax,rdx
      4c:	83 e0 0f             	and    eax,0xf
      4f:	48 89 c1             	mov    rcx,rax
      52:	8b 45 fc             	mov    eax,DWORD PTR [rbp-0x4]
      55:	8d 50 01             	lea    edx,[rax+0x1]
      58:	89 55 fc             	mov    DWORD PTR [rbp-0x4],edx
      5b:	48 63 d0             	movsxd rdx,eax
      5e:	48 8b 45 e0          	mov    rax,QWORD PTR [rbp-0x20]
      62:	48 01 c2             	add    rdx,rax
      65:	48 8d 05 00 00 00 00 	lea    rax,[rip+0x0]        # 6c <ptr_to_str+0x6c>
      6c:	0f b6 04 01          	movzx  eax,BYTE PTR [rcx+rax*1]
      70:	88 02                	mov    BYTE PTR [rdx],al
      72:	83 6d f8 01          	sub    DWORD PTR [rbp-0x8],0x1
      76:	83 7d f8 00          	cmp    DWORD PTR [rbp-0x8],0x0
      7a:	79 be                	jns    3a <ptr_to_str+0x3a>
      7c:	8b 45 fc             	mov    eax,DWORD PTR [rbp-0x4]
      7f:	48 63 d0             	movsxd rdx,eax
      82:	48 8b 45 e0          	mov    rax,QWORD PTR [rbp-0x20]
      86:	48 01 d0             	add    rax,rdx
      89:	c6 00 00             	mov    BYTE PTR [rax],0x0
      8c:	90                   	nop
      8d:	5d                   	pop    rbp
      8e:	c3                   	ret

000000000000008f <_int_to_str>:
      8f:	f3 0f 1e fa          	endbr64
      93:	55                   	push   rbp
      94:	48 89 e5             	mov    rbp,rsp
      97:	48 81 ec c0 00 00 00 	sub    rsp,0xc0
      9e:	89 bd 4c ff ff ff    	mov    DWORD PTR [rbp-0xb4],edi
      a4:	8b 85 4c ff ff ff    	mov    eax,DWORD PTR [rbp-0xb4]
      aa:	89 45 fc             	mov    DWORD PTR [rbp-0x4],eax
      ad:	c7 45 f8 00 00 00 00 	mov    DWORD PTR [rbp-0x8],0x0
      b4:	48 c7 85 50 ff ff ff 	mov    QWORD PTR [rbp-0xb0],0x0
      bb:	00 00 00 00 
      bf:	48 c7 85 58 ff ff ff 	mov    QWORD PTR [rbp-0xa8],0x0
      c6:	00 00 00 00 
      ca:	48 c7 85 60 ff ff ff 	mov    QWORD PTR [rbp-0xa0],0x0
      d1:	00 00 00 00 
      d5:	48 c7 85 68 ff ff ff 	mov    QWORD PTR [rbp-0x98],0x0
      dc:	00 00 00 00 
      e0:	48 c7 85 70 ff ff ff 	mov    QWORD PTR [rbp-0x90],0x0
      e7:	00 00 00 00 
      eb:	48 c7 85 78 ff ff ff 	mov    QWORD PTR [rbp-0x88],0x0
      f2:	00 00 00 00 
      f6:	48 c7 45 80 00 00 00 	mov    QWORD PTR [rbp-0x80],0x0
      fd:	00 
      fe:	48 c7 45 88 00 00 00 	mov    QWORD PTR [rbp-0x78],0x0
     105:	00 
     106:	48 c7 45 90 00 00 00 	mov    QWORD PTR [rbp-0x70],0x0
     10d:	00 
     10e:	48 c7 45 98 00 00 00 	mov    QWORD PTR [rbp-0x68],0x0
     115:	00 
     116:	48 c7 45 a0 00 00 00 	mov    QWORD PTR [rbp-0x60],0x0
     11d:	00 
     11e:	48 c7 45 a8 00 00 00 	mov    QWORD PTR [rbp-0x58],0x0
     125:	00 
     126:	48 c7 45 b0 00 00 00 	mov    QWORD PTR [rbp-0x50],0x0
     12d:	00 
     12e:	48 c7 45 b8 00 00 00 	mov    QWORD PTR [rbp-0x48],0x0
     135:	00 
     136:	48 c7 45 c0 00 00 00 	mov    QWORD PTR [rbp-0x40],0x0
     13d:	00 
     13e:	48 c7 45 c8 00 00 00 	mov    QWORD PTR [rbp-0x38],0x0
     145:	00 
     146:	48 c7 45 d0 00 00 00 	mov    QWORD PTR [rbp-0x30],0x0
     14d:	00 
     14e:	48 c7 45 d8 00 00 00 	mov    QWORD PTR [rbp-0x28],0x0
     155:	00 
     156:	48 c7 45 de 00 00 00 	mov    QWORD PTR [rbp-0x22],0x0
     15d:	00 
     15e:	eb 61                	jmp    1c1 <_int_to_str+0x132>
     160:	8b 55 fc             	mov    edx,DWORD PTR [rbp-0x4]
     163:	48 63 c2             	movsxd rax,edx
     166:	48 69 c0 67 66 66 66 	imul   rax,rax,0x66666667
     16d:	48 c1 e8 20          	shr    rax,0x20
     171:	89 c1                	mov    ecx,eax
     173:	c1 f9 02             	sar    ecx,0x2
     176:	89 d0                	mov    eax,edx
     178:	c1 f8 1f             	sar    eax,0x1f
     17b:	29 c1                	sub    ecx,eax
     17d:	89 c8                	mov    eax,ecx
     17f:	c1 e0 02             	shl    eax,0x2
     182:	01 c8                	add    eax,ecx
     184:	01 c0                	add    eax,eax
     186:	89 d1                	mov    ecx,edx
     188:	29 c1                	sub    ecx,eax
     18a:	89 c8                	mov    eax,ecx
     18c:	8d 48 30             	lea    ecx,[rax+0x30]
     18f:	8b 45 f8             	mov    eax,DWORD PTR [rbp-0x8]
     192:	8d 50 01             	lea    edx,[rax+0x1]
     195:	89 55 f8             	mov    DWORD PTR [rbp-0x8],edx
     198:	89 ca                	mov    edx,ecx
     19a:	48 98                	cdqe
     19c:	88 94 05 50 ff ff ff 	mov    BYTE PTR [rbp+rax*1-0xb0],dl
     1a3:	8b 45 fc             	mov    eax,DWORD PTR [rbp-0x4]
     1a6:	48 63 d0             	movsxd rdx,eax
     1a9:	48 69 d2 67 66 66 66 	imul   rdx,rdx,0x66666667
     1b0:	48 c1 ea 20          	shr    rdx,0x20
     1b4:	89 d1                	mov    ecx,edx
     1b6:	c1 f9 02             	sar    ecx,0x2
     1b9:	99                   	cdq
     1ba:	89 c8                	mov    eax,ecx
     1bc:	29 d0                	sub    eax,edx
     1be:	89 45 fc             	mov    DWORD PTR [rbp-0x4],eax
     1c1:	83 7d fc 00          	cmp    DWORD PTR [rbp-0x4],0x0
     1c5:	75 99                	jne    160 <_int_to_str+0xd1>
     1c7:	c7 45 f4 00 00 00 00 	mov    DWORD PTR [rbp-0xc],0x0
     1ce:	eb 48                	jmp    218 <_int_to_str+0x189>
     1d0:	8b 45 f4             	mov    eax,DWORD PTR [rbp-0xc]
     1d3:	48 98                	cdqe
     1d5:	0f b6 84 05 50 ff ff 	movzx  eax,BYTE PTR [rbp+rax*1-0xb0]
     1dc:	ff 
     1dd:	88 45 f3             	mov    BYTE PTR [rbp-0xd],al
     1e0:	83 6d f8 01          	sub    DWORD PTR [rbp-0x8],0x1
     1e4:	8b 45 f8             	mov    eax,DWORD PTR [rbp-0x8]
     1e7:	48 98                	cdqe
     1e9:	0f b6 84 05 50 ff ff 	movzx  eax,BYTE PTR [rbp+rax*1-0xb0]
     1f0:	ff 
     1f1:	88 45 f2             	mov    BYTE PTR [rbp-0xe],al
     1f4:	8b 45 f4             	mov    eax,DWORD PTR [rbp-0xc]
     1f7:	48 98                	cdqe
     1f9:	0f b6 55 f2          	movzx  edx,BYTE PTR [rbp-0xe]
     1fd:	88 94 05 50 ff ff ff 	mov    BYTE PTR [rbp+rax*1-0xb0],dl
     204:	8b 45 f8             	mov    eax,DWORD PTR [rbp-0x8]
     207:	48 98                	cdqe
     209:	0f b6 55 f3          	movzx  edx,BYTE PTR [rbp-0xd]
     20d:	88 94 05 50 ff ff ff 	mov    BYTE PTR [rbp+rax*1-0xb0],dl
     214:	83 45 f4 01          	add    DWORD PTR [rbp-0xc],0x1
     218:	8b 45 f4             	mov    eax,DWORD PTR [rbp-0xc]
     21b:	3b 45 f8             	cmp    eax,DWORD PTR [rbp-0x8]
     21e:	7c b0                	jl     1d0 <_int_to_str+0x141>
     220:	8b 45 f4             	mov    eax,DWORD PTR [rbp-0xc]
     223:	8d 50 01             	lea    edx,[rax+0x1]
     226:	48 8d 85 50 ff ff ff 	lea    rax,[rbp-0xb0]
     22d:	89 d6                	mov    esi,edx
     22f:	48 89 c7             	mov    rdi,rax
     232:	e8 00 00 00 00       	call   237 <_int_to_str+0x1a8>
     237:	c9                   	leave
     238:	c3                   	ret

0000000000000239 <int_to_str>:
     239:	f3 0f 1e fa          	endbr64
     23d:	55                   	push   rbp
     23e:	48 89 e5             	mov    rbp,rsp
     241:	48 81 ec c0 00 00 00 	sub    rsp,0xc0
     248:	89 bd 4c ff ff ff    	mov    DWORD PTR [rbp-0xb4],edi
     24e:	8b 85 4c ff ff ff    	mov    eax,DWORD PTR [rbp-0xb4]
     254:	89 45 fc             	mov    DWORD PTR [rbp-0x4],eax
     257:	c7 45 f8 00 00 00 00 	mov    DWORD PTR [rbp-0x8],0x0
     25e:	48 c7 85 50 ff ff ff 	mov    QWORD PTR [rbp-0xb0],0x0
     265:	00 00 00 00 
     269:	48 c7 85 58 ff ff ff 	mov    QWORD PTR [rbp-0xa8],0x0
     270:	00 00 00 00 
     274:	48 c7 85 60 ff ff ff 	mov    QWORD PTR [rbp-0xa0],0x0
     27b:	00 00 00 00 
     27f:	48 c7 85 68 ff ff ff 	mov    QWORD PTR [rbp-0x98],0x0
     286:	00 00 00 00 
     28a:	48 c7 85 70 ff ff ff 	mov    QWORD PTR [rbp-0x90],0x0
     291:	00 00 00 00 
     295:	48 c7 85 78 ff ff ff 	mov    QWORD PTR [rbp-0x88],0x0
     29c:	00 00 00 00 
     2a0:	48 c7 45 80 00 00 00 	mov    QWORD PTR [rbp-0x80],0x0
     2a7:	00 
     2a8:	48 c7 45 88 00 00 00 	mov    QWORD PTR [rbp-0x78],0x0
     2af:	00 
     2b0:	48 c7 45 90 00 00 00 	mov    QWORD PTR [rbp-0x70],0x0
     2b7:	00 
     2b8:	48 c7 45 98 00 00 00 	mov    QWORD PTR [rbp-0x68],0x0
     2bf:	00 
     2c0:	48 c7 45 a0 00 00 00 	mov    QWORD PTR [rbp-0x60],0x0
     2c7:	00 
     2c8:	48 c7 45 a8 00 00 00 	mov    QWORD PTR [rbp-0x58],0x0
     2cf:	00 
     2d0:	48 c7 45 b0 00 00 00 	mov    QWORD PTR [rbp-0x50],0x0
     2d7:	00 
     2d8:	48 c7 45 b8 00 00 00 	mov    QWORD PTR [rbp-0x48],0x0
     2df:	00 
     2e0:	48 c7 45 c0 00 00 00 	mov    QWORD PTR [rbp-0x40],0x0
     2e7:	00 
     2e8:	48 c7 45 c8 00 00 00 	mov    QWORD PTR [rbp-0x38],0x0
     2ef:	00 
     2f0:	48 c7 45 d0 00 00 00 	mov    QWORD PTR [rbp-0x30],0x0
     2f7:	00 
     2f8:	48 c7 45 d8 00 00 00 	mov    QWORD PTR [rbp-0x28],0x0
     2ff:	00 
     300:	48 c7 45 de 00 00 00 	mov    QWORD PTR [rbp-0x22],0x0
     307:	00 
     308:	83 bd 4c ff ff ff 00 	cmp    DWORD PTR [rbp-0xb4],0x0
     30f:	0f 85 81 00 00 00    	jne    396 <int_to_str+0x15d>
     315:	c6 85 50 ff ff ff 30 	mov    BYTE PTR [rbp-0xb0],0x30
     31c:	48 8d 85 50 ff ff ff 	lea    rax,[rbp-0xb0]
     323:	be 01 00 00 00       	mov    esi,0x1
     328:	48 89 c7             	mov    rdi,rax
     32b:	e8 00 00 00 00       	call   330 <int_to_str+0xf7>
     330:	e9 ec 00 00 00       	jmp    421 <int_to_str+0x1e8>
     335:	8b 55 fc             	mov    edx,DWORD PTR [rbp-0x4]
     338:	48 63 c2             	movsxd rax,edx
     33b:	48 69 c0 67 66 66 66 	imul   rax,rax,0x66666667
     342:	48 c1 e8 20          	shr    rax,0x20
     346:	89 c1                	mov    ecx,eax
     348:	c1 f9 02             	sar    ecx,0x2
     34b:	89 d0                	mov    eax,edx
     34d:	c1 f8 1f             	sar    eax,0x1f
     350:	29 c1                	sub    ecx,eax
     352:	89 c8                	mov    eax,ecx
     354:	c1 e0 02             	shl    eax,0x2
     357:	01 c8                	add    eax,ecx
     359:	01 c0                	add    eax,eax
     35b:	89 d1                	mov    ecx,edx
     35d:	29 c1                	sub    ecx,eax
     35f:	89 c8                	mov    eax,ecx
     361:	8d 48 30             	lea    ecx,[rax+0x30]
     364:	8b 45 f8             	mov    eax,DWORD PTR [rbp-0x8]
     367:	8d 50 01             	lea    edx,[rax+0x1]
     36a:	89 55 f8             	mov    DWORD PTR [rbp-0x8],edx
     36d:	89 ca                	mov    edx,ecx
     36f:	48 98                	cdqe
     371:	88 94 05 50 ff ff ff 	mov    BYTE PTR [rbp+rax*1-0xb0],dl
     378:	8b 45 fc             	mov    eax,DWORD PTR [rbp-0x4]
     37b:	48 63 d0             	movsxd rdx,eax
     37e:	48 69 d2 67 66 66 66 	imul   rdx,rdx,0x66666667
     385:	48 c1 ea 20          	shr    rdx,0x20
     389:	89 d1                	mov    ecx,edx
     38b:	c1 f9 02             	sar    ecx,0x2
     38e:	99                   	cdq
     38f:	89 c8                	mov    eax,ecx
     391:	29 d0                	sub    eax,edx
     393:	89 45 fc             	mov    DWORD PTR [rbp-0x4],eax
     396:	83 7d fc 00          	cmp    DWORD PTR [rbp-0x4],0x0
     39a:	75 99                	jne    335 <int_to_str+0xfc>
     39c:	c7 45 f4 00 00 00 00 	mov    DWORD PTR [rbp-0xc],0x0
     3a3:	eb 48                	jmp    3ed <int_to_str+0x1b4>
     3a5:	8b 45 f4             	mov    eax,DWORD PTR [rbp-0xc]
     3a8:	48 98                	cdqe
     3aa:	0f b6 84 05 50 ff ff 	movzx  eax,BYTE PTR [rbp+rax*1-0xb0]
     3b1:	ff 
     3b2:	88 45 f3             	mov    BYTE PTR [rbp-0xd],al
     3b5:	83 6d f8 01          	sub    DWORD PTR [rbp-0x8],0x1
     3b9:	8b 45 f8             	mov    eax,DWORD PTR [rbp-0x8]
     3bc:	48 98                	cdqe
     3be:	0f b6 84 05 50 ff ff 	movzx  eax,BYTE PTR [rbp+rax*1-0xb0]
     3c5:	ff 
     3c6:	88 45 f2             	mov    BYTE PTR [rbp-0xe],al
     3c9:	8b 45 f4             	mov    eax,DWORD PTR [rbp-0xc]
     3cc:	48 98                	cdqe
     3ce:	0f b6 55 f2          	movzx  edx,BYTE PTR [rbp-0xe]
     3d2:	88 94 05 50 ff ff ff 	mov    BYTE PTR [rbp+rax*1-0xb0],dl
     3d9:	8b 45 f8             	mov    eax,DWORD PTR [rbp-0x8]
     3dc:	48 98                	cdqe
     3de:	0f b6 55 f3          	movzx  edx,BYTE PTR [rbp-0xd]
     3e2:	88 94 05 50 ff ff ff 	mov    BYTE PTR [rbp+rax*1-0xb0],dl
     3e9:	83 45 f4 01          	add    DWORD PTR [rbp-0xc],0x1
     3ed:	8b 45 f4             	mov    eax,DWORD PTR [rbp-0xc]
     3f0:	3b 45 f8             	cmp    eax,DWORD PTR [rbp-0x8]
     3f3:	7c b0                	jl     3a5 <int_to_str+0x16c>
     3f5:	83 45 f4 01          	add    DWORD PTR [rbp-0xc],0x1
     3f9:	81 7d f4 96 00 00 00 	cmp    DWORD PTR [rbp-0xc],0x96
     400:	74 10                	je     412 <int_to_str+0x1d9>
     402:	8b 45 f4             	mov    eax,DWORD PTR [rbp-0xc]
     405:	83 c0 01             	add    eax,0x1
     408:	48 98                	cdqe
     40a:	c6 84 05 50 ff ff ff 	mov    BYTE PTR [rbp+rax*1-0xb0],0x0
     411:	00 
     412:	48 8d 85 50 ff ff ff 	lea    rax,[rbp-0xb0]
     419:	48 89 c7             	mov    rdi,rax
     41c:	e8 00 00 00 00       	call   421 <int_to_str+0x1e8>
     421:	c9                   	leave
     422:	c3                   	ret

0000000000000423 <is_str_ascii>:
     423:	f3 0f 1e fa          	endbr64
     427:	55                   	push   rbp
     428:	48 89 e5             	mov    rbp,rsp
     42b:	48 83 ec 20          	sub    rsp,0x20
     42f:	48 89 7d e8          	mov    QWORD PTR [rbp-0x18],rdi
     433:	48 83 7d e8 00       	cmp    QWORD PTR [rbp-0x18],0x0
     438:	75 07                	jne    441 <is_str_ascii+0x1e>
     43a:	b8 00 00 00 00       	mov    eax,0x0
     43f:	eb 4b                	jmp    48c <is_str_ascii+0x69>
     441:	c7 45 fc 00 00 00 00 	mov    DWORD PTR [rbp-0x4],0x0
     448:	eb 29                	jmp    473 <is_str_ascii+0x50>
     44a:	8b 45 fc             	mov    eax,DWORD PTR [rbp-0x4]
     44d:	48 63 d0             	movsxd rdx,eax
     450:	48 8b 45 e8          	mov    rax,QWORD PTR [rbp-0x18]
     454:	48 01 d0             	add    rax,rdx
     457:	0f b6 00             	movzx  eax,BYTE PTR [rax]
     45a:	0f be c0             	movsx  eax,al
     45d:	89 c7                	mov    edi,eax
     45f:	e8 00 00 00 00       	call   464 <is_str_ascii+0x41>
     464:	85 c0                	test   eax,eax
     466:	75 07                	jne    46f <is_str_ascii+0x4c>
     468:	b8 00 00 00 00       	mov    eax,0x0
     46d:	eb 1d                	jmp    48c <is_str_ascii+0x69>
     46f:	83 45 fc 01          	add    DWORD PTR [rbp-0x4],0x1
     473:	8b 45 fc             	mov    eax,DWORD PTR [rbp-0x4]
     476:	48 63 d0             	movsxd rdx,eax
     479:	48 8b 45 e8          	mov    rax,QWORD PTR [rbp-0x18]
     47d:	48 01 d0             	add    rax,rdx
     480:	0f b6 00             	movzx  eax,BYTE PTR [rax]
     483:	84 c0                	test   al,al
     485:	75 c3                	jne    44a <is_str_ascii+0x27>
     487:	b8 01 00 00 00       	mov    eax,0x1
     48c:	c9                   	leave
     48d:	c3                   	ret

000000000000048e <_sprintf>:
     48e:	f3 0f 1e fa          	endbr64
     492:	55                   	push   rbp
     493:	48 89 e5             	mov    rbp,rsp
     496:	48 83 ec 70          	sub    rsp,0x70
     49a:	48 89 7d a8          	mov    QWORD PTR [rbp-0x58],rdi
     49e:	48 89 75 a0          	mov    QWORD PTR [rbp-0x60],rsi
     4a2:	48 89 55 98          	mov    QWORD PTR [rbp-0x68],rdx
     4a6:	c7 45 fc 00 00 00 00 	mov    DWORD PTR [rbp-0x4],0x0
     4ad:	c7 45 f8 00 00 00 00 	mov    DWORD PTR [rbp-0x8],0x0
     4b4:	c7 45 f4 00 00 00 00 	mov    DWORD PTR [rbp-0xc],0x0
     4bb:	e9 ef 02 00 00       	jmp    7af <_sprintf+0x321>
     4c0:	8b 45 f4             	mov    eax,DWORD PTR [rbp-0xc]
     4c3:	48 63 d0             	movsxd rdx,eax
     4c6:	48 8b 45 a0          	mov    rax,QWORD PTR [rbp-0x60]
     4ca:	48 01 d0             	add    rax,rdx
     4cd:	0f b6 00             	movzx  eax,BYTE PTR [rax]
     4d0:	3c 25                	cmp    al,0x25
     4d2:	0f 85 9e 00 00 00    	jne    576 <_sprintf+0xe8>
     4d8:	8b 45 f4             	mov    eax,DWORD PTR [rbp-0xc]
     4db:	48 98                	cdqe
     4dd:	48 8d 50 01          	lea    rdx,[rax+0x1]
     4e1:	48 8b 45 a0          	mov    rax,QWORD PTR [rbp-0x60]
     4e5:	48 01 d0             	add    rax,rdx
     4e8:	0f b6 00             	movzx  eax,BYTE PTR [rax]
     4eb:	3c 63                	cmp    al,0x63
     4ed:	0f 85 83 00 00 00    	jne    576 <_sprintf+0xe8>
     4f3:	8b 45 fc             	mov    eax,DWORD PTR [rbp-0x4]
     4f6:	48 98                	cdqe
     4f8:	48 8d 14 c5 00 00 00 	lea    rdx,[rax*8+0x0]
     4ff:	00 
     500:	48 8b 45 98          	mov    rax,QWORD PTR [rbp-0x68]
     504:	48 01 d0             	add    rax,rdx
     507:	48 8b 00             	mov    rax,QWORD PTR [rax]
     50a:	8b 00                	mov    eax,DWORD PTR [rax]
     50c:	0f be c0             	movsx  eax,al
     50f:	89 c7                	mov    edi,eax
     511:	e8 00 00 00 00       	call   516 <_sprintf+0x88>
     516:	85 c0                	test   eax,eax
     518:	75 1c                	jne    536 <_sprintf+0xa8>
     51a:	48 8d 05 00 00 00 00 	lea    rax,[rip+0x0]        # 521 <_sprintf+0x93>
     521:	48 89 c7             	mov    rdi,rax
     524:	e8 00 00 00 00       	call   529 <_sprintf+0x9b>
     529:	83 45 f4 01          	add    DWORD PTR [rbp-0xc],0x1
     52d:	83 45 fc 01          	add    DWORD PTR [rbp-0x4],0x1
     531:	e9 75 02 00 00       	jmp    7ab <_sprintf+0x31d>
     536:	8b 45 fc             	mov    eax,DWORD PTR [rbp-0x4]
     539:	48 98                	cdqe
     53b:	48 8d 14 c5 00 00 00 	lea    rdx,[rax*8+0x0]
     542:	00 
     543:	48 8b 45 98          	mov    rax,QWORD PTR [rbp-0x68]
     547:	48 01 d0             	add    rax,rdx
     54a:	48 8b 00             	mov    rax,QWORD PTR [rax]
     54d:	8b 00                	mov    eax,DWORD PTR [rax]
     54f:	8d 48 30             	lea    ecx,[rax+0x30]
     552:	8b 45 f8             	mov    eax,DWORD PTR [rbp-0x8]
     555:	8d 50 01             	lea    edx,[rax+0x1]
     558:	89 55 f8             	mov    DWORD PTR [rbp-0x8],edx
     55b:	48 63 d0             	movsxd rdx,eax
     55e:	48 8b 45 a8          	mov    rax,QWORD PTR [rbp-0x58]
     562:	48 01 d0             	add    rax,rdx
     565:	89 ca                	mov    edx,ecx
     567:	88 10                	mov    BYTE PTR [rax],dl
     569:	83 45 f4 01          	add    DWORD PTR [rbp-0xc],0x1
     56d:	83 45 fc 01          	add    DWORD PTR [rbp-0x4],0x1
     571:	e9 35 02 00 00       	jmp    7ab <_sprintf+0x31d>
     576:	8b 45 f4             	mov    eax,DWORD PTR [rbp-0xc]
     579:	48 63 d0             	movsxd rdx,eax
     57c:	48 8b 45 a0          	mov    rax,QWORD PTR [rbp-0x60]
     580:	48 01 d0             	add    rax,rdx
     583:	0f b6 00             	movzx  eax,BYTE PTR [rax]
     586:	3c 25                	cmp    al,0x25
     588:	0f 85 9c 00 00 00    	jne    62a <_sprintf+0x19c>
     58e:	8b 45 f4             	mov    eax,DWORD PTR [rbp-0xc]
     591:	48 98                	cdqe
     593:	48 8d 50 01          	lea    rdx,[rax+0x1]
     597:	48 8b 45 a0          	mov    rax,QWORD PTR [rbp-0x60]
     59b:	48 01 d0             	add    rax,rdx
     59e:	0f b6 00             	movzx  eax,BYTE PTR [rax]
     5a1:	3c 73                	cmp    al,0x73
     5a3:	0f 85 81 00 00 00    	jne    62a <_sprintf+0x19c>
     5a9:	8b 45 fc             	mov    eax,DWORD PTR [rbp-0x4]
     5ac:	48 98                	cdqe
     5ae:	48 8d 14 c5 00 00 00 	lea    rdx,[rax*8+0x0]
     5b5:	00 
     5b6:	48 8b 45 98          	mov    rax,QWORD PTR [rbp-0x68]
     5ba:	48 01 d0             	add    rax,rdx
     5bd:	48 8b 00             	mov    rax,QWORD PTR [rax]
     5c0:	48 89 45 e8          	mov    QWORD PTR [rbp-0x18],rax
     5c4:	48 83 7d e8 00       	cmp    QWORD PTR [rbp-0x18],0x0
     5c9:	75 0b                	jne    5d6 <_sprintf+0x148>
     5cb:	48 8d 05 00 00 00 00 	lea    rax,[rip+0x0]        # 5d2 <_sprintf+0x144>
     5d2:	48 89 45 e8          	mov    QWORD PTR [rbp-0x18],rax
     5d6:	c7 45 e4 00 00 00 00 	mov    DWORD PTR [rbp-0x1c],0x0
     5dd:	eb 2a                	jmp    609 <_sprintf+0x17b>
     5df:	8b 45 e4             	mov    eax,DWORD PTR [rbp-0x1c]
     5e2:	48 63 d0             	movsxd rdx,eax
     5e5:	48 8b 45 e8          	mov    rax,QWORD PTR [rbp-0x18]
     5e9:	48 8d 0c 02          	lea    rcx,[rdx+rax*1]
     5ed:	8b 45 f8             	mov    eax,DWORD PTR [rbp-0x8]
     5f0:	8d 50 01             	lea    edx,[rax+0x1]
     5f3:	89 55 f8             	mov    DWORD PTR [rbp-0x8],edx
     5f6:	48 63 d0             	movsxd rdx,eax
     5f9:	48 8b 45 a8          	mov    rax,QWORD PTR [rbp-0x58]
     5fd:	48 01 c2             	add    rdx,rax
     600:	0f b6 01             	movzx  eax,BYTE PTR [rcx]
     603:	88 02                	mov    BYTE PTR [rdx],al
     605:	83 45 e4 01          	add    DWORD PTR [rbp-0x1c],0x1
     609:	8b 45 e4             	mov    eax,DWORD PTR [rbp-0x1c]
     60c:	48 63 d0             	movsxd rdx,eax
     60f:	48 8b 45 e8          	mov    rax,QWORD PTR [rbp-0x18]
     613:	48 01 d0             	add    rax,rdx
     616:	0f b6 00             	movzx  eax,BYTE PTR [rax]
     619:	84 c0                	test   al,al
     61b:	75 c2                	jne    5df <_sprintf+0x151>
     61d:	83 45 fc 01          	add    DWORD PTR [rbp-0x4],0x1
     621:	83 45 f4 01          	add    DWORD PTR [rbp-0xc],0x1
     625:	e9 81 01 00 00       	jmp    7ab <_sprintf+0x31d>
     62a:	8b 45 f4             	mov    eax,DWORD PTR [rbp-0xc]
     62d:	48 63 d0             	movsxd rdx,eax
     630:	48 8b 45 a0          	mov    rax,QWORD PTR [rbp-0x60]
     634:	48 01 d0             	add    rax,rdx
     637:	0f b6 00             	movzx  eax,BYTE PTR [rax]
     63a:	3c 25                	cmp    al,0x25
     63c:	0f 85 aa 00 00 00    	jne    6ec <_sprintf+0x25e>
     642:	8b 45 f4             	mov    eax,DWORD PTR [rbp-0xc]
     645:	48 98                	cdqe
     647:	48 8d 50 01          	lea    rdx,[rax+0x1]
     64b:	48 8b 45 a0          	mov    rax,QWORD PTR [rbp-0x60]
     64f:	48 01 d0             	add    rax,rdx
     652:	0f b6 00             	movzx  eax,BYTE PTR [rax]
     655:	3c 64                	cmp    al,0x64
     657:	0f 85 8f 00 00 00    	jne    6ec <_sprintf+0x25e>
     65d:	8b 45 fc             	mov    eax,DWORD PTR [rbp-0x4]
     660:	48 98                	cdqe
     662:	48 8d 14 c5 00 00 00 	lea    rdx,[rax*8+0x0]
     669:	00 
     66a:	48 8b 45 98          	mov    rax,QWORD PTR [rbp-0x68]
     66e:	48 01 d0             	add    rax,rdx
     671:	48 8b 00             	mov    rax,QWORD PTR [rax]
     674:	8b 00                	mov    eax,DWORD PTR [rax]
     676:	89 45 d8             	mov    DWORD PTR [rbp-0x28],eax
     679:	8b 45 d8             	mov    eax,DWORD PTR [rbp-0x28]
     67c:	89 c7                	mov    edi,eax
     67e:	e8 00 00 00 00       	call   683 <_sprintf+0x1f5>
     683:	48 89 45 d0          	mov    QWORD PTR [rbp-0x30],rax
     687:	c7 45 e0 00 00 00 00 	mov    DWORD PTR [rbp-0x20],0x0
     68e:	eb 2a                	jmp    6ba <_sprintf+0x22c>
     690:	8b 45 e0             	mov    eax,DWORD PTR [rbp-0x20]
     693:	48 63 d0             	movsxd rdx,eax
     696:	48 8b 45 d0          	mov    rax,QWORD PTR [rbp-0x30]
     69a:	48 8d 0c 02          	lea    rcx,[rdx+rax*1]
     69e:	8b 45 f8             	mov    eax,DWORD PTR [rbp-0x8]
     6a1:	8d 50 01             	lea    edx,[rax+0x1]
     6a4:	89 55 f8             	mov    DWORD PTR [rbp-0x8],edx
     6a7:	48 63 d0             	movsxd rdx,eax
     6aa:	48 8b 45 a8          	mov    rax,QWORD PTR [rbp-0x58]
     6ae:	48 01 c2             	add    rdx,rax
     6b1:	0f b6 01             	movzx  eax,BYTE PTR [rcx]
     6b4:	88 02                	mov    BYTE PTR [rdx],al
     6b6:	83 45 e0 01          	add    DWORD PTR [rbp-0x20],0x1
     6ba:	8b 45 e0             	mov    eax,DWORD PTR [rbp-0x20]
     6bd:	48 63 d0             	movsxd rdx,eax
     6c0:	48 8b 45 d0          	mov    rax,QWORD PTR [rbp-0x30]
     6c4:	48 01 d0             	add    rax,rdx
     6c7:	0f b6 00             	movzx  eax,BYTE PTR [rax]
     6ca:	84 c0                	test   al,al
     6cc:	75 c2                	jne    690 <_sprintf+0x202>
     6ce:	48 8b 45 d0          	mov    rax,QWORD PTR [rbp-0x30]
     6d2:	be 01 00 00 00       	mov    esi,0x1
     6d7:	48 89 c7             	mov    rdi,rax
     6da:	e8 00 00 00 00       	call   6df <_sprintf+0x251>
     6df:	83 45 fc 01          	add    DWORD PTR [rbp-0x4],0x1
     6e3:	83 45 f4 01          	add    DWORD PTR [rbp-0xc],0x1
     6e7:	e9 bf 00 00 00       	jmp    7ab <_sprintf+0x31d>
     6ec:	8b 45 f4             	mov    eax,DWORD PTR [rbp-0xc]
     6ef:	48 63 d0             	movsxd rdx,eax
     6f2:	48 8b 45 a0          	mov    rax,QWORD PTR [rbp-0x60]
     6f6:	48 01 d0             	add    rax,rdx
     6f9:	0f b6 00             	movzx  eax,BYTE PTR [rax]
     6fc:	3c 25                	cmp    al,0x25
     6fe:	0f 85 81 00 00 00    	jne    785 <_sprintf+0x2f7>
     704:	8b 45 f4             	mov    eax,DWORD PTR [rbp-0xc]
     707:	48 98                	cdqe
     709:	48 8d 50 01          	lea    rdx,[rax+0x1]
     70d:	48 8b 45 a0          	mov    rax,QWORD PTR [rbp-0x60]
     711:	48 01 d0             	add    rax,rdx
     714:	0f b6 00             	movzx  eax,BYTE PTR [rax]
     717:	3c 70                	cmp    al,0x70
     719:	75 6a                	jne    785 <_sprintf+0x2f7>
     71b:	8b 45 fc             	mov    eax,DWORD PTR [rbp-0x4]
     71e:	48 98                	cdqe
     720:	48 8d 14 c5 00 00 00 	lea    rdx,[rax*8+0x0]
     727:	00 
     728:	48 8b 45 98          	mov    rax,QWORD PTR [rbp-0x68]
     72c:	48 01 d0             	add    rax,rdx
     72f:	48 8b 00             	mov    rax,QWORD PTR [rax]
     732:	48 8d 55 b0          	lea    rdx,[rbp-0x50]
     736:	48 89 d6             	mov    rsi,rdx
     739:	48 89 c7             	mov    rdi,rax
     73c:	e8 00 00 00 00       	call   741 <_sprintf+0x2b3>
     741:	c7 45 dc 00 00 00 00 	mov    DWORD PTR [rbp-0x24],0x0
     748:	eb 23                	jmp    76d <_sprintf+0x2df>
     74a:	8b 45 f8             	mov    eax,DWORD PTR [rbp-0x8]
     74d:	8d 50 01             	lea    edx,[rax+0x1]
     750:	89 55 f8             	mov    DWORD PTR [rbp-0x8],edx
     753:	48 63 d0             	movsxd rdx,eax
     756:	48 8b 45 a8          	mov    rax,QWORD PTR [rbp-0x58]
     75a:	48 01 c2             	add    rdx,rax
     75d:	8b 45 dc             	mov    eax,DWORD PTR [rbp-0x24]
     760:	48 98                	cdqe
     762:	0f b6 44 05 b0       	movzx  eax,BYTE PTR [rbp+rax*1-0x50]
     767:	88 02                	mov    BYTE PTR [rdx],al
     769:	83 45 dc 01          	add    DWORD PTR [rbp-0x24],0x1
     76d:	8b 45 dc             	mov    eax,DWORD PTR [rbp-0x24]
     770:	48 98                	cdqe
     772:	0f b6 44 05 b0       	movzx  eax,BYTE PTR [rbp+rax*1-0x50]
     777:	84 c0                	test   al,al
     779:	75 cf                	jne    74a <_sprintf+0x2bc>
     77b:	83 45 fc 01          	add    DWORD PTR [rbp-0x4],0x1
     77f:	83 45 f4 01          	add    DWORD PTR [rbp-0xc],0x1
     783:	eb 26                	jmp    7ab <_sprintf+0x31d>
     785:	8b 45 f4             	mov    eax,DWORD PTR [rbp-0xc]
     788:	48 63 d0             	movsxd rdx,eax
     78b:	48 8b 45 a0          	mov    rax,QWORD PTR [rbp-0x60]
     78f:	48 8d 0c 02          	lea    rcx,[rdx+rax*1]
     793:	8b 45 f8             	mov    eax,DWORD PTR [rbp-0x8]
     796:	8d 50 01             	lea    edx,[rax+0x1]
     799:	89 55 f8             	mov    DWORD PTR [rbp-0x8],edx
     79c:	48 63 d0             	movsxd rdx,eax
     79f:	48 8b 45 a8          	mov    rax,QWORD PTR [rbp-0x58]
     7a3:	48 01 c2             	add    rdx,rax
     7a6:	0f b6 01             	movzx  eax,BYTE PTR [rcx]
     7a9:	88 02                	mov    BYTE PTR [rdx],al
     7ab:	83 45 f4 01          	add    DWORD PTR [rbp-0xc],0x1
     7af:	8b 45 f4             	mov    eax,DWORD PTR [rbp-0xc]
     7b2:	48 63 d0             	movsxd rdx,eax
     7b5:	48 8b 45 a0          	mov    rax,QWORD PTR [rbp-0x60]
     7b9:	48 01 d0             	add    rax,rdx
     7bc:	0f b6 00             	movzx  eax,BYTE PTR [rax]
     7bf:	84 c0                	test   al,al
     7c1:	0f 85 f9 fc ff ff    	jne    4c0 <_sprintf+0x32>
     7c7:	8b 45 f8             	mov    eax,DWORD PTR [rbp-0x8]
     7ca:	48 63 d0             	movsxd rdx,eax
     7cd:	48 8b 45 a8          	mov    rax,QWORD PTR [rbp-0x58]
     7d1:	48 01 d0             	add    rax,rdx
     7d4:	c6 00 00             	mov    BYTE PTR [rax],0x0
     7d7:	90                   	nop
     7d8:	c9                   	leave
     7d9:	c3                   	ret

00000000000007da <str_append_int>:
     7da:	f3 0f 1e fa          	endbr64
     7de:	55                   	push   rbp
     7df:	48 89 e5             	mov    rbp,rsp
     7e2:	48 81 ec 20 02 00 00 	sub    rsp,0x220
     7e9:	48 89 bd e8 fd ff ff 	mov    QWORD PTR [rbp-0x218],rdi
     7f0:	89 b5 e4 fd ff ff    	mov    DWORD PTR [rbp-0x21c],esi
     7f6:	8b 85 e4 fd ff ff    	mov    eax,DWORD PTR [rbp-0x21c]
     7fc:	89 45 fc             	mov    DWORD PTR [rbp-0x4],eax
     7ff:	c7 45 f8 00 00 00 00 	mov    DWORD PTR [rbp-0x8],0x0
     806:	48 8d 95 f0 fd ff ff 	lea    rdx,[rbp-0x210]
     80d:	b8 00 00 00 00       	mov    eax,0x0
     812:	b9 3e 00 00 00       	mov    ecx,0x3e
     817:	48 89 d7             	mov    rdi,rdx
     81a:	f3 48 ab             	rep stos QWORD PTR [rdi],rax
     81d:	48 89 fa             	mov    rdx,rdi
     820:	89 02                	mov    DWORD PTR [rdx],eax
     822:	48 83 c2 04          	add    rdx,0x4
     826:	eb 61                	jmp    889 <str_append_int+0xaf>
     828:	8b 55 fc             	mov    edx,DWORD PTR [rbp-0x4]
     82b:	48 63 c2             	movsxd rax,edx
     82e:	48 69 c0 67 66 66 66 	imul   rax,rax,0x66666667
     835:	48 c1 e8 20          	shr    rax,0x20
     839:	89 c1                	mov    ecx,eax
     83b:	c1 f9 02             	sar    ecx,0x2
     83e:	89 d0                	mov    eax,edx
     840:	c1 f8 1f             	sar    eax,0x1f
     843:	29 c1                	sub    ecx,eax
     845:	89 c8                	mov    eax,ecx
     847:	c1 e0 02             	shl    eax,0x2
     84a:	01 c8                	add    eax,ecx
     84c:	01 c0                	add    eax,eax
     84e:	89 d1                	mov    ecx,edx
     850:	29 c1                	sub    ecx,eax
     852:	89 c8                	mov    eax,ecx
     854:	8d 48 30             	lea    ecx,[rax+0x30]
     857:	8b 45 f8             	mov    eax,DWORD PTR [rbp-0x8]
     85a:	8d 50 01             	lea    edx,[rax+0x1]
     85d:	89 55 f8             	mov    DWORD PTR [rbp-0x8],edx
     860:	89 ca                	mov    edx,ecx
     862:	48 98                	cdqe
     864:	88 94 05 f0 fd ff ff 	mov    BYTE PTR [rbp+rax*1-0x210],dl
     86b:	8b 45 fc             	mov    eax,DWORD PTR [rbp-0x4]
     86e:	48 63 d0             	movsxd rdx,eax
     871:	48 69 d2 67 66 66 66 	imul   rdx,rdx,0x66666667
     878:	48 c1 ea 20          	shr    rdx,0x20
     87c:	89 d1                	mov    ecx,edx
     87e:	c1 f9 02             	sar    ecx,0x2
     881:	99                   	cdq
     882:	89 c8                	mov    eax,ecx
     884:	29 d0                	sub    eax,edx
     886:	89 45 fc             	mov    DWORD PTR [rbp-0x4],eax
     889:	83 7d fc 00          	cmp    DWORD PTR [rbp-0x4],0x0
     88d:	75 99                	jne    828 <str_append_int+0x4e>
     88f:	c7 45 f4 00 00 00 00 	mov    DWORD PTR [rbp-0xc],0x0
     896:	eb 48                	jmp    8e0 <str_append_int+0x106>
     898:	8b 45 f4             	mov    eax,DWORD PTR [rbp-0xc]
     89b:	48 98                	cdqe
     89d:	0f b6 84 05 f0 fd ff 	movzx  eax,BYTE PTR [rbp+rax*1-0x210]
     8a4:	ff 
     8a5:	88 45 f3             	mov    BYTE PTR [rbp-0xd],al
     8a8:	83 6d f8 01          	sub    DWORD PTR [rbp-0x8],0x1
     8ac:	8b 45 f8             	mov    eax,DWORD PTR [rbp-0x8]
     8af:	48 98                	cdqe
     8b1:	0f b6 84 05 f0 fd ff 	movzx  eax,BYTE PTR [rbp+rax*1-0x210]
     8b8:	ff 
     8b9:	88 45 f2             	mov    BYTE PTR [rbp-0xe],al
     8bc:	8b 45 f4             	mov    eax,DWORD PTR [rbp-0xc]
     8bf:	48 98                	cdqe
     8c1:	0f b6 55 f2          	movzx  edx,BYTE PTR [rbp-0xe]
     8c5:	88 94 05 f0 fd ff ff 	mov    BYTE PTR [rbp+rax*1-0x210],dl
     8cc:	8b 45 f8             	mov    eax,DWORD PTR [rbp-0x8]
     8cf:	48 98                	cdqe
     8d1:	0f b6 55 f3          	movzx  edx,BYTE PTR [rbp-0xd]
     8d5:	88 94 05 f0 fd ff ff 	mov    BYTE PTR [rbp+rax*1-0x210],dl
     8dc:	83 45 f4 01          	add    DWORD PTR [rbp-0xc],0x1
     8e0:	8b 45 f4             	mov    eax,DWORD PTR [rbp-0xc]
     8e3:	3b 45 f8             	cmp    eax,DWORD PTR [rbp-0x8]
     8e6:	7c b0                	jl     898 <str_append_int+0xbe>
     8e8:	48 8d 95 f0 fd ff ff 	lea    rdx,[rbp-0x210]
     8ef:	48 8b 85 e8 fd ff ff 	mov    rax,QWORD PTR [rbp-0x218]
     8f6:	48 89 d6             	mov    rsi,rdx
     8f9:	48 89 c7             	mov    rdi,rax
     8fc:	e8 00 00 00 00       	call   901 <str_append_int+0x127>
     901:	90                   	nop
     902:	c9                   	leave
     903:	c3                   	ret

0000000000000904 <str_dup>:
     904:	f3 0f 1e fa          	endbr64
     908:	55                   	push   rbp
     909:	48 89 e5             	mov    rbp,rsp
     90c:	48 83 ec 10          	sub    rsp,0x10
     910:	48 89 7d f8          	mov    QWORD PTR [rbp-0x8],rdi
     914:	48 83 7d f8 00       	cmp    QWORD PTR [rbp-0x8],0x0
     919:	75 07                	jne    922 <str_dup+0x1e>
     91b:	b8 00 00 00 00       	mov    eax,0x0
     920:	eb 1c                	jmp    93e <str_dup+0x3a>
     922:	48 8b 45 f8          	mov    rax,QWORD PTR [rbp-0x8]
     926:	48 89 c7             	mov    rdi,rax
     929:	e8 00 00 00 00       	call   92e <str_dup+0x2a>
     92e:	89 c2                	mov    edx,eax
     930:	48 8b 45 f8          	mov    rax,QWORD PTR [rbp-0x8]
     934:	89 d6                	mov    esi,edx
     936:	48 89 c7             	mov    rdi,rax
     939:	e8 00 00 00 00       	call   93e <str_dup+0x3a>
     93e:	c9                   	leave
     93f:	c3                   	ret

0000000000000940 <str_len>:
     940:	f3 0f 1e fa          	endbr64
     944:	55                   	push   rbp
     945:	48 89 e5             	mov    rbp,rsp
     948:	48 83 ec 10          	sub    rsp,0x10
     94c:	48 89 7d f8          	mov    QWORD PTR [rbp-0x8],rdi
     950:	48 8b 45 f8          	mov    rax,QWORD PTR [rbp-0x8]
     954:	48 89 c7             	mov    rdi,rax
     957:	e8 00 00 00 00       	call   95c <str_len+0x1c>
     95c:	8b 40 0c             	mov    eax,DWORD PTR [rax+0xc]
     95f:	83 f8 7c             	cmp    eax,0x7c
     962:	75 11                	jne    975 <str_len+0x35>
     964:	48 8b 45 f8          	mov    rax,QWORD PTR [rbp-0x8]
     968:	48 89 c7             	mov    rdi,rax
     96b:	e8 00 00 00 00       	call   970 <str_len+0x30>
     970:	83 e8 01             	sub    eax,0x1
     973:	eb 0c                	jmp    981 <str_len+0x41>
     975:	48 8b 45 f8          	mov    rax,QWORD PTR [rbp-0x8]
     979:	48 89 c7             	mov    rdi,rax
     97c:	e8 00 00 00 00       	call   981 <str_len+0x41>
     981:	c9                   	leave
     982:	c3                   	ret

0000000000000983 <_str_len>:
     983:	f3 0f 1e fa          	endbr64
     987:	55                   	push   rbp
     988:	48 89 e5             	mov    rbp,rsp
     98b:	48 89 7d e8          	mov    QWORD PTR [rbp-0x18],rdi
     98f:	48 83 7d e8 00       	cmp    QWORD PTR [rbp-0x18],0x0
     994:	75 07                	jne    99d <_str_len+0x1a>
     996:	b8 ff ff ff ff       	mov    eax,0xffffffff
     99b:	eb 2f                	jmp    9cc <_str_len+0x49>
     99d:	c7 45 fc 00 00 00 00 	mov    DWORD PTR [rbp-0x4],0x0
     9a4:	c7 45 f8 00 00 00 00 	mov    DWORD PTR [rbp-0x8],0x0
     9ab:	eb 08                	jmp    9b5 <_str_len+0x32>
     9ad:	83 45 fc 01          	add    DWORD PTR [rbp-0x4],0x1
     9b1:	83 45 f8 01          	add    DWORD PTR [rbp-0x8],0x1
     9b5:	8b 45 f8             	mov    eax,DWORD PTR [rbp-0x8]
     9b8:	48 63 d0             	movsxd rdx,eax
     9bb:	48 8b 45 e8          	mov    rax,QWORD PTR [rbp-0x18]
     9bf:	48 01 d0             	add    rax,rdx
     9c2:	0f b6 00             	movzx  eax,BYTE PTR [rax]
     9c5:	84 c0                	test   al,al
     9c7:	75 e4                	jne    9ad <_str_len+0x2a>
     9c9:	8b 45 fc             	mov    eax,DWORD PTR [rbp-0x4]
     9cc:	5d                   	pop    rbp
     9cd:	c3                   	ret

00000000000009ce <str_cmp>:
     9ce:	f3 0f 1e fa          	endbr64
     9d2:	55                   	push   rbp
     9d3:	48 89 e5             	mov    rbp,rsp
     9d6:	48 83 ec 10          	sub    rsp,0x10
     9da:	48 89 7d f8          	mov    QWORD PTR [rbp-0x8],rdi
     9de:	48 89 75 f0          	mov    QWORD PTR [rbp-0x10],rsi
     9e2:	48 83 7d f8 00       	cmp    QWORD PTR [rbp-0x8],0x0
     9e7:	74 07                	je     9f0 <str_cmp+0x22>
     9e9:	48 83 7d f0 00       	cmp    QWORD PTR [rbp-0x10],0x0
     9ee:	75 07                	jne    9f7 <str_cmp+0x29>
     9f0:	b8 00 00 00 00       	mov    eax,0x0
     9f5:	eb 22                	jmp    a19 <str_cmp+0x4b>
     9f7:	48 8b 45 f8          	mov    rax,QWORD PTR [rbp-0x8]
     9fb:	48 89 c7             	mov    rdi,rax
     9fe:	e8 00 00 00 00       	call   a03 <str_cmp+0x35>
     a03:	48 63 d0             	movsxd rdx,eax
     a06:	48 8b 4d f0          	mov    rcx,QWORD PTR [rbp-0x10]
     a0a:	48 8b 45 f8          	mov    rax,QWORD PTR [rbp-0x8]
     a0e:	48 89 ce             	mov    rsi,rcx
     a11:	48 89 c7             	mov    rdi,rax
     a14:	e8 00 00 00 00       	call   a19 <str_cmp+0x4b>
     a19:	c9                   	leave
     a1a:	c3                   	ret

0000000000000a1b <str_append_array>:
     a1b:	f3 0f 1e fa          	endbr64
     a1f:	55                   	push   rbp
     a20:	48 89 e5             	mov    rbp,rsp
     a23:	48 83 ec 20          	sub    rsp,0x20
     a27:	48 89 7d e8          	mov    QWORD PTR [rbp-0x18],rdi
     a2b:	48 89 75 e0          	mov    QWORD PTR [rbp-0x20],rsi
     a2f:	48 83 7d e8 00       	cmp    QWORD PTR [rbp-0x18],0x0
     a34:	74 07                	je     a3d <str_append_array+0x22>
     a36:	48 83 7d e0 00       	cmp    QWORD PTR [rbp-0x20],0x0
     a3b:	75 07                	jne    a44 <str_append_array+0x29>
     a3d:	b8 00 00 00 00       	mov    eax,0x0
     a42:	eb 54                	jmp    a98 <str_append_array+0x7d>
     a44:	c7 45 fc 00 00 00 00 	mov    DWORD PTR [rbp-0x4],0x0
     a4b:	eb 2a                	jmp    a77 <str_append_array+0x5c>
     a4d:	8b 45 fc             	mov    eax,DWORD PTR [rbp-0x4]
     a50:	48 98                	cdqe
     a52:	48 8d 14 c5 00 00 00 	lea    rdx,[rax*8+0x0]
     a59:	00 
     a5a:	48 8b 45 e0          	mov    rax,QWORD PTR [rbp-0x20]
     a5e:	48 01 d0             	add    rax,rdx
     a61:	48 8b 10             	mov    rdx,QWORD PTR [rax]
     a64:	48 8b 45 e8          	mov    rax,QWORD PTR [rbp-0x18]
     a68:	48 89 d6             	mov    rsi,rdx
     a6b:	48 89 c7             	mov    rdi,rax
     a6e:	e8 00 00 00 00       	call   a73 <str_append_array+0x58>
     a73:	83 45 fc 01          	add    DWORD PTR [rbp-0x4],0x1
     a77:	8b 45 fc             	mov    eax,DWORD PTR [rbp-0x4]
     a7a:	48 98                	cdqe
     a7c:	48 8d 14 c5 00 00 00 	lea    rdx,[rax*8+0x0]
     a83:	00 
     a84:	48 8b 45 e0          	mov    rax,QWORD PTR [rbp-0x20]
     a88:	48 01 d0             	add    rax,rdx
     a8b:	48 8b 00             	mov    rax,QWORD PTR [rax]
     a8e:	48 85 c0             	test   rax,rax
     a91:	75 ba                	jne    a4d <str_append_array+0x32>
     a93:	b8 01 00 00 00       	mov    eax,0x1
     a98:	c9                   	leave
     a99:	c3                   	ret

0000000000000a9a <str_append>:
     a9a:	f3 0f 1e fa          	endbr64
     a9e:	55                   	push   rbp
     a9f:	48 89 e5             	mov    rbp,rsp
     aa2:	48 83 ec 20          	sub    rsp,0x20
     aa6:	48 89 7d e8          	mov    QWORD PTR [rbp-0x18],rdi
     aaa:	48 89 75 e0          	mov    QWORD PTR [rbp-0x20],rsi
     aae:	48 83 7d e8 00       	cmp    QWORD PTR [rbp-0x18],0x0
     ab3:	74 07                	je     abc <str_append+0x22>
     ab5:	48 83 7d e0 00       	cmp    QWORD PTR [rbp-0x20],0x0
     aba:	75 07                	jne    ac3 <str_append+0x29>
     abc:	b8 00 00 00 00       	mov    eax,0x0
     ac1:	eb 6b                	jmp    b2e <str_append+0x94>
     ac3:	48 8b 45 e8          	mov    rax,QWORD PTR [rbp-0x18]
     ac7:	48 89 c7             	mov    rdi,rax
     aca:	e8 00 00 00 00       	call   acf <str_append+0x35>
     acf:	89 45 fc             	mov    DWORD PTR [rbp-0x4],eax
     ad2:	c7 45 f8 00 00 00 00 	mov    DWORD PTR [rbp-0x8],0x0
     ad9:	eb 2a                	jmp    b05 <str_append+0x6b>
     adb:	8b 45 f8             	mov    eax,DWORD PTR [rbp-0x8]
     ade:	48 63 d0             	movsxd rdx,eax
     ae1:	48 8b 45 e0          	mov    rax,QWORD PTR [rbp-0x20]
     ae5:	48 8d 0c 02          	lea    rcx,[rdx+rax*1]
     ae9:	8b 45 fc             	mov    eax,DWORD PTR [rbp-0x4]
     aec:	8d 50 01             	lea    edx,[rax+0x1]
     aef:	89 55 fc             	mov    DWORD PTR [rbp-0x4],edx
     af2:	48 63 d0             	movsxd rdx,eax
     af5:	48 8b 45 e8          	mov    rax,QWORD PTR [rbp-0x18]
     af9:	48 01 c2             	add    rdx,rax
     afc:	0f b6 01             	movzx  eax,BYTE PTR [rcx]
     aff:	88 02                	mov    BYTE PTR [rdx],al
     b01:	83 45 f8 01          	add    DWORD PTR [rbp-0x8],0x1
     b05:	8b 45 f8             	mov    eax,DWORD PTR [rbp-0x8]
     b08:	48 63 d0             	movsxd rdx,eax
     b0b:	48 8b 45 e0          	mov    rax,QWORD PTR [rbp-0x20]
     b0f:	48 01 d0             	add    rax,rdx
     b12:	0f b6 00             	movzx  eax,BYTE PTR [rax]
     b15:	84 c0                	test   al,al
     b17:	75 c2                	jne    adb <str_append+0x41>
     b19:	8b 45 fc             	mov    eax,DWORD PTR [rbp-0x4]
     b1c:	48 63 d0             	movsxd rdx,eax
     b1f:	48 8b 45 e8          	mov    rax,QWORD PTR [rbp-0x18]
     b23:	48 01 d0             	add    rax,rdx
     b26:	c6 00 00             	mov    BYTE PTR [rax],0x0
     b29:	b8 01 00 00 00       	mov    eax,0x1
     b2e:	c9                   	leave
     b2f:	c3                   	ret

0000000000000b30 <is_str_lowercase>:
     b30:	f3 0f 1e fa          	endbr64
     b34:	55                   	push   rbp
     b35:	48 89 e5             	mov    rbp,rsp
     b38:	48 83 ec 20          	sub    rsp,0x20
     b3c:	48 89 7d e8          	mov    QWORD PTR [rbp-0x18],rdi
     b40:	48 83 7d e8 00       	cmp    QWORD PTR [rbp-0x18],0x0
     b45:	75 07                	jne    b4e <is_str_lowercase+0x1e>
     b47:	b8 00 00 00 00       	mov    eax,0x0
     b4c:	eb 58                	jmp    ba6 <is_str_lowercase+0x76>
     b4e:	48 8b 45 e8          	mov    rax,QWORD PTR [rbp-0x18]
     b52:	48 89 c7             	mov    rdi,rax
     b55:	e8 00 00 00 00       	call   b5a <is_str_lowercase+0x2a>
     b5a:	89 45 f8             	mov    DWORD PTR [rbp-0x8],eax
     b5d:	c7 45 fc 00 00 00 00 	mov    DWORD PTR [rbp-0x4],0x0
     b64:	eb 33                	jmp    b99 <is_str_lowercase+0x69>
     b66:	8b 45 fc             	mov    eax,DWORD PTR [rbp-0x4]
     b69:	48 63 d0             	movsxd rdx,eax
     b6c:	48 8b 45 e8          	mov    rax,QWORD PTR [rbp-0x18]
     b70:	48 01 d0             	add    rax,rdx
     b73:	0f b6 00             	movzx  eax,BYTE PTR [rax]
     b76:	3c 60                	cmp    al,0x60
     b78:	7e 14                	jle    b8e <is_str_lowercase+0x5e>
     b7a:	8b 45 fc             	mov    eax,DWORD PTR [rbp-0x4]
     b7d:	48 63 d0             	movsxd rdx,eax
     b80:	48 8b 45 e8          	mov    rax,QWORD PTR [rbp-0x18]
     b84:	48 01 d0             	add    rax,rdx
     b87:	0f b6 00             	movzx  eax,BYTE PTR [rax]
     b8a:	3c 7a                	cmp    al,0x7a
     b8c:	7e 07                	jle    b95 <is_str_lowercase+0x65>
     b8e:	b8 00 00 00 00       	mov    eax,0x0
     b93:	eb 11                	jmp    ba6 <is_str_lowercase+0x76>
     b95:	83 45 fc 01          	add    DWORD PTR [rbp-0x4],0x1
     b99:	8b 45 fc             	mov    eax,DWORD PTR [rbp-0x4]
     b9c:	3b 45 f8             	cmp    eax,DWORD PTR [rbp-0x8]
     b9f:	7c c5                	jl     b66 <is_str_lowercase+0x36>
     ba1:	b8 01 00 00 00       	mov    eax,0x1
     ba6:	c9                   	leave
     ba7:	c3                   	ret

0000000000000ba8 <is_str_uppercase>:
     ba8:	f3 0f 1e fa          	endbr64
     bac:	55                   	push   rbp
     bad:	48 89 e5             	mov    rbp,rsp
     bb0:	48 83 ec 20          	sub    rsp,0x20
     bb4:	48 89 7d e8          	mov    QWORD PTR [rbp-0x18],rdi
     bb8:	48 83 7d e8 00       	cmp    QWORD PTR [rbp-0x18],0x0
     bbd:	75 07                	jne    bc6 <is_str_uppercase+0x1e>
     bbf:	b8 00 00 00 00       	mov    eax,0x0
     bc4:	eb 58                	jmp    c1e <is_str_uppercase+0x76>
     bc6:	48 8b 45 e8          	mov    rax,QWORD PTR [rbp-0x18]
     bca:	48 89 c7             	mov    rdi,rax
     bcd:	e8 00 00 00 00       	call   bd2 <is_str_uppercase+0x2a>
     bd2:	89 45 f8             	mov    DWORD PTR [rbp-0x8],eax
     bd5:	c7 45 fc 00 00 00 00 	mov    DWORD PTR [rbp-0x4],0x0
     bdc:	eb 33                	jmp    c11 <is_str_uppercase+0x69>
     bde:	8b 45 fc             	mov    eax,DWORD PTR [rbp-0x4]
     be1:	48 63 d0             	movsxd rdx,eax
     be4:	48 8b 45 e8          	mov    rax,QWORD PTR [rbp-0x18]
     be8:	48 01 d0             	add    rax,rdx
     beb:	0f b6 00             	movzx  eax,BYTE PTR [rax]
     bee:	3c 40                	cmp    al,0x40
     bf0:	7e 14                	jle    c06 <is_str_uppercase+0x5e>
     bf2:	8b 45 fc             	mov    eax,DWORD PTR [rbp-0x4]
     bf5:	48 63 d0             	movsxd rdx,eax
     bf8:	48 8b 45 e8          	mov    rax,QWORD PTR [rbp-0x18]
     bfc:	48 01 d0             	add    rax,rdx
     bff:	0f b6 00             	movzx  eax,BYTE PTR [rax]
     c02:	3c 5a                	cmp    al,0x5a
     c04:	7e 07                	jle    c0d <is_str_uppercase+0x65>
     c06:	b8 00 00 00 00       	mov    eax,0x0
     c0b:	eb 11                	jmp    c1e <is_str_uppercase+0x76>
     c0d:	83 45 fc 01          	add    DWORD PTR [rbp-0x4],0x1
     c11:	8b 45 fc             	mov    eax,DWORD PTR [rbp-0x4]
     c14:	3b 45 f8             	cmp    eax,DWORD PTR [rbp-0x8]
     c17:	7c c5                	jl     bde <is_str_uppercase+0x36>
     c19:	b8 01 00 00 00       	mov    eax,0x1
     c1e:	c9                   	leave
     c1f:	c3                   	ret

0000000000000c20 <find_string>:
     c20:	f3 0f 1e fa          	endbr64
     c24:	55                   	push   rbp
     c25:	48 89 e5             	mov    rbp,rsp
     c28:	48 83 ec 20          	sub    rsp,0x20
     c2c:	48 89 7d e8          	mov    QWORD PTR [rbp-0x18],rdi
     c30:	48 89 75 e0          	mov    QWORD PTR [rbp-0x20],rsi
     c34:	48 83 7d e8 00       	cmp    QWORD PTR [rbp-0x18],0x0
     c39:	74 07                	je     c42 <find_string+0x22>
     c3b:	48 83 7d e0 00       	cmp    QWORD PTR [rbp-0x20],0x0
     c40:	75 0a                	jne    c4c <find_string+0x2c>
     c42:	b8 ff ff ff ff       	mov    eax,0xffffffff
     c47:	e9 b6 00 00 00       	jmp    d02 <find_string+0xe2>
     c4c:	48 8b 45 e8          	mov    rax,QWORD PTR [rbp-0x18]
     c50:	48 89 c7             	mov    rdi,rax
     c53:	e8 00 00 00 00       	call   c58 <find_string+0x38>
     c58:	89 45 f4             	mov    DWORD PTR [rbp-0xc],eax
     c5b:	48 8b 45 e0          	mov    rax,QWORD PTR [rbp-0x20]
     c5f:	48 89 c7             	mov    rdi,rax
     c62:	e8 00 00 00 00       	call   c67 <find_string+0x47>
     c67:	89 45 f0             	mov    DWORD PTR [rbp-0x10],eax
     c6a:	c7 45 fc 00 00 00 00 	mov    DWORD PTR [rbp-0x4],0x0
     c71:	eb 7e                	jmp    cf1 <find_string+0xd1>
     c73:	c7 45 f8 00 00 00 00 	mov    DWORD PTR [rbp-0x8],0x0
     c7a:	eb 66                	jmp    ce2 <find_string+0xc2>
     c7c:	8b 55 fc             	mov    edx,DWORD PTR [rbp-0x4]
     c7f:	8b 45 f8             	mov    eax,DWORD PTR [rbp-0x8]
     c82:	01 d0                	add    eax,edx
     c84:	48 63 d0             	movsxd rdx,eax
     c87:	48 8b 45 e8          	mov    rax,QWORD PTR [rbp-0x18]
     c8b:	48 01 d0             	add    rax,rdx
     c8e:	0f b6 10             	movzx  edx,BYTE PTR [rax]
     c91:	8b 45 f8             	mov    eax,DWORD PTR [rbp-0x8]
     c94:	48 63 c8             	movsxd rcx,eax
     c97:	48 8b 45 e0          	mov    rax,QWORD PTR [rbp-0x20]
     c9b:	48 01 c8             	add    rax,rcx
     c9e:	0f b6 00             	movzx  eax,BYTE PTR [rax]
     ca1:	38 c2                	cmp    dl,al
     ca3:	75 10                	jne    cb5 <find_string+0x95>
     ca5:	8b 45 f0             	mov    eax,DWORD PTR [rbp-0x10]
     ca8:	83 e8 01             	sub    eax,0x1
     cab:	39 45 f8             	cmp    DWORD PTR [rbp-0x8],eax
     cae:	75 05                	jne    cb5 <find_string+0x95>
     cb0:	8b 45 fc             	mov    eax,DWORD PTR [rbp-0x4]
     cb3:	eb 4d                	jmp    d02 <find_string+0xe2>
     cb5:	8b 55 fc             	mov    edx,DWORD PTR [rbp-0x4]
     cb8:	8b 45 f8             	mov    eax,DWORD PTR [rbp-0x8]
     cbb:	01 d0                	add    eax,edx
     cbd:	48 63 d0             	movsxd rdx,eax
     cc0:	48 8b 45 e8          	mov    rax,QWORD PTR [rbp-0x18]
     cc4:	48 01 d0             	add    rax,rdx
     cc7:	0f b6 10             	movzx  edx,BYTE PTR [rax]
     cca:	8b 45 f8             	mov    eax,DWORD PTR [rbp-0x8]
     ccd:	48 63 c8             	movsxd rcx,eax
     cd0:	48 8b 45 e0          	mov    rax,QWORD PTR [rbp-0x20]
     cd4:	48 01 c8             	add    rax,rcx
     cd7:	0f b6 00             	movzx  eax,BYTE PTR [rax]
     cda:	38 c2                	cmp    dl,al
     cdc:	75 0e                	jne    cec <find_string+0xcc>
     cde:	83 45 f8 01          	add    DWORD PTR [rbp-0x8],0x1
     ce2:	8b 45 f8             	mov    eax,DWORD PTR [rbp-0x8]
     ce5:	3b 45 f0             	cmp    eax,DWORD PTR [rbp-0x10]
     ce8:	7c 92                	jl     c7c <find_string+0x5c>
     cea:	eb 01                	jmp    ced <find_string+0xcd>
     cec:	90                   	nop
     ced:	83 45 fc 01          	add    DWORD PTR [rbp-0x4],0x1
     cf1:	8b 45 fc             	mov    eax,DWORD PTR [rbp-0x4]
     cf4:	3b 45 f4             	cmp    eax,DWORD PTR [rbp-0xc]
     cf7:	0f 8e 76 ff ff ff    	jle    c73 <find_string+0x53>
     cfd:	b8 ff ff ff ff       	mov    eax,0xffffffff
     d02:	c9                   	leave
     d03:	c3                   	ret

0000000000000d04 <split_lines>:
     d04:	f3 0f 1e fa          	endbr64
     d08:	55                   	push   rbp
     d09:	48 89 e5             	mov    rbp,rsp
     d0c:	41 54                	push   r12
     d0e:	53                   	push   rbx
     d0f:	48 83 ec 50          	sub    rsp,0x50
     d13:	48 89 7d a8          	mov    QWORD PTR [rbp-0x58],rdi
     d17:	48 89 75 a0          	mov    QWORD PTR [rbp-0x60],rsi
     d1b:	48 89 e0             	mov    rax,rsp
     d1e:	49 89 c4             	mov    r12,rax
     d21:	48 83 7d a8 00       	cmp    QWORD PTR [rbp-0x58],0x0
     d26:	75 0a                	jne    d32 <split_lines+0x2e>
     d28:	b8 00 00 00 00       	mov    eax,0x0
     d2d:	e9 52 02 00 00       	jmp    f84 <split_lines+0x280>
     d32:	48 8b 45 a8          	mov    rax,QWORD PTR [rbp-0x58]
     d36:	48 89 c7             	mov    rdi,rax
     d39:	e8 00 00 00 00       	call   d3e <split_lines+0x3a>
     d3e:	89 45 dc             	mov    DWORD PTR [rbp-0x24],eax
     d41:	48 8b 45 a8          	mov    rax,QWORD PTR [rbp-0x58]
     d45:	be 0a 00 00 00       	mov    esi,0xa
     d4a:	48 89 c7             	mov    rdi,rax
     d4d:	e8 00 00 00 00       	call   d52 <split_lines+0x4e>
     d52:	89 45 d8             	mov    DWORD PTR [rbp-0x28],eax
     d55:	8b 45 d8             	mov    eax,DWORD PTR [rbp-0x28]
     d58:	83 c0 01             	add    eax,0x1
     d5b:	89 c6                	mov    esi,eax
     d5d:	bf 08 00 00 00       	mov    edi,0x8
     d62:	e8 00 00 00 00       	call   d67 <split_lines+0x63>
     d67:	48 89 45 e8          	mov    QWORD PTR [rbp-0x18],rax
     d6b:	48 8b 45 a0          	mov    rax,QWORD PTR [rbp-0x60]
     d6f:	c7 00 00 00 00 00    	mov    DWORD PTR [rax],0x0
     d75:	c7 45 e4 00 00 00 00 	mov    DWORD PTR [rbp-0x1c],0x0
     d7c:	8b 45 dc             	mov    eax,DWORD PTR [rbp-0x24]
     d7f:	48 63 d0             	movsxd rdx,eax
     d82:	48 83 ea 01          	sub    rdx,0x1
     d86:	48 89 55 d0          	mov    QWORD PTR [rbp-0x30],rdx
     d8a:	48 98                	cdqe
     d8c:	ba 10 00 00 00       	mov    edx,0x10
     d91:	48 83 ea 01          	sub    rdx,0x1
     d95:	48 01 d0             	add    rax,rdx
     d98:	bb 10 00 00 00       	mov    ebx,0x10
     d9d:	ba 00 00 00 00       	mov    edx,0x0
     da2:	48 f7 f3             	div    rbx
     da5:	48 6b c0 10          	imul   rax,rax,0x10
     da9:	48 89 c1             	mov    rcx,rax
     dac:	48 81 e1 00 f0 ff ff 	and    rcx,0xfffffffffffff000
     db3:	48 89 e2             	mov    rdx,rsp
     db6:	48 29 ca             	sub    rdx,rcx
     db9:	48 39 d4             	cmp    rsp,rdx
     dbc:	74 12                	je     dd0 <split_lines+0xcc>
     dbe:	48 81 ec 00 10 00 00 	sub    rsp,0x1000
     dc5:	48 83 8c 24 f8 0f 00 	or     QWORD PTR [rsp+0xff8],0x0
     dcc:	00 00 
     dce:	eb e9                	jmp    db9 <split_lines+0xb5>
     dd0:	48 89 c2             	mov    rdx,rax
     dd3:	81 e2 ff 0f 00 00    	and    edx,0xfff
     dd9:	48 29 d4             	sub    rsp,rdx
     ddc:	48 89 c2             	mov    rdx,rax
     ddf:	81 e2 ff 0f 00 00    	and    edx,0xfff
     de5:	48 85 d2             	test   rdx,rdx
     de8:	74 10                	je     dfa <split_lines+0xf6>
     dea:	25 ff 0f 00 00       	and    eax,0xfff
     def:	48 83 e8 08          	sub    rax,0x8
     df3:	48 01 e0             	add    rax,rsp
     df6:	48 83 08 00          	or     QWORD PTR [rax],0x0
     dfa:	48 89 e0             	mov    rax,rsp
     dfd:	48 89 45 c8          	mov    QWORD PTR [rbp-0x38],rax
     e01:	c7 45 e0 00 00 00 00 	mov    DWORD PTR [rbp-0x20],0x0
     e08:	e9 42 01 00 00       	jmp    f4f <split_lines+0x24b>
     e0d:	8b 45 e0             	mov    eax,DWORD PTR [rbp-0x20]
     e10:	48 63 d0             	movsxd rdx,eax
     e13:	48 8b 45 a8          	mov    rax,QWORD PTR [rbp-0x58]
     e17:	48 01 d0             	add    rax,rdx
     e1a:	0f b6 00             	movzx  eax,BYTE PTR [rax]
     e1d:	84 c0                	test   al,al
     e1f:	0f 84 38 01 00 00    	je     f5d <split_lines+0x259>
     e25:	8b 45 e0             	mov    eax,DWORD PTR [rbp-0x20]
     e28:	48 63 d0             	movsxd rdx,eax
     e2b:	48 8b 45 a8          	mov    rax,QWORD PTR [rbp-0x58]
     e2f:	48 01 d0             	add    rax,rdx
     e32:	0f b6 00             	movzx  eax,BYTE PTR [rax]
     e35:	3c 0a                	cmp    al,0xa
     e37:	0f 85 de 00 00 00    	jne    f1b <split_lines+0x217>
     e3d:	48 8b 45 c8          	mov    rax,QWORD PTR [rbp-0x38]
     e41:	48 89 c7             	mov    rdi,rax
     e44:	e8 00 00 00 00       	call   e49 <split_lines+0x145>
     e49:	89 45 c4             	mov    DWORD PTR [rbp-0x3c],eax
     e4c:	83 7d c4 00          	cmp    DWORD PTR [rbp-0x3c],0x0
     e50:	75 0f                	jne    e61 <split_lines+0x15d>
     e52:	48 8b 45 c8          	mov    rax,QWORD PTR [rbp-0x38]
     e56:	c6 00 20             	mov    BYTE PTR [rax],0x20
     e59:	48 8b 45 c8          	mov    rax,QWORD PTR [rbp-0x38]
     e5d:	c6 40 01 00          	mov    BYTE PTR [rax+0x1],0x0
     e61:	48 8b 55 c8          	mov    rdx,QWORD PTR [rbp-0x38]
     e65:	8b 45 e4             	mov    eax,DWORD PTR [rbp-0x1c]
     e68:	48 98                	cdqe
     e6a:	c6 04 02 00          	mov    BYTE PTR [rdx+rax*1],0x0
     e6e:	48 8b 45 a0          	mov    rax,QWORD PTR [rbp-0x60]
     e72:	8b 00                	mov    eax,DWORD PTR [rax]
     e74:	8d 48 01             	lea    ecx,[rax+0x1]
     e77:	48 8b 55 a0          	mov    rdx,QWORD PTR [rbp-0x60]
     e7b:	89 0a                	mov    DWORD PTR [rdx],ecx
     e7d:	48 98                	cdqe
     e7f:	48 8d 14 c5 00 00 00 	lea    rdx,[rax*8+0x0]
     e86:	00 
     e87:	48 8b 45 e8          	mov    rax,QWORD PTR [rbp-0x18]
     e8b:	48 8d 1c 02          	lea    rbx,[rdx+rax*1]
     e8f:	48 8b 45 c8          	mov    rax,QWORD PTR [rbp-0x38]
     e93:	48 89 c7             	mov    rdi,rax
     e96:	e8 00 00 00 00       	call   e9b <split_lines+0x197>
     e9b:	48 89 03             	mov    QWORD PTR [rbx],rax
     e9e:	48 8b 45 a0          	mov    rax,QWORD PTR [rbp-0x60]
     ea2:	8b 00                	mov    eax,DWORD PTR [rax]
     ea4:	83 c0 01             	add    eax,0x1
     ea7:	c1 e0 03             	shl    eax,0x3
     eaa:	89 c2                	mov    edx,eax
     eac:	48 8b 45 e8          	mov    rax,QWORD PTR [rbp-0x18]
     eb0:	89 d6                	mov    esi,edx
     eb2:	48 89 c7             	mov    rdi,rax
     eb5:	e8 00 00 00 00       	call   eba <split_lines+0x1b6>
     eba:	48 89 45 b8          	mov    QWORD PTR [rbp-0x48],rax
     ebe:	48 8b 45 e8          	mov    rax,QWORD PTR [rbp-0x18]
     ec2:	be 01 00 00 00       	mov    esi,0x1
     ec7:	48 89 c7             	mov    rdi,rax
     eca:	e8 00 00 00 00       	call   ecf <split_lines+0x1cb>
     ecf:	48 8b 45 b8          	mov    rax,QWORD PTR [rbp-0x48]
     ed3:	48 89 45 e8          	mov    QWORD PTR [rbp-0x18],rax
     ed7:	48 83 7d e8 00       	cmp    QWORD PTR [rbp-0x18],0x0
     edc:	75 0f                	jne    eed <split_lines+0x1e9>
     ede:	48 8d 05 00 00 00 00 	lea    rax,[rip+0x0]        # ee5 <split_lines+0x1e1>
     ee5:	48 89 c7             	mov    rdi,rax
     ee8:	e8 00 00 00 00       	call   eed <split_lines+0x1e9>
     eed:	48 8b 45 a0          	mov    rax,QWORD PTR [rbp-0x60]
     ef1:	8b 00                	mov    eax,DWORD PTR [rax]
     ef3:	48 98                	cdqe
     ef5:	48 8d 14 c5 00 00 00 	lea    rdx,[rax*8+0x0]
     efc:	00 
     efd:	48 8b 45 e8          	mov    rax,QWORD PTR [rbp-0x18]
     f01:	48 01 d0             	add    rax,rdx
     f04:	48 c7 00 00 00 00 00 	mov    QWORD PTR [rax],0x0
     f0b:	48 8b 45 c8          	mov    rax,QWORD PTR [rbp-0x38]
     f0f:	c6 00 00             	mov    BYTE PTR [rax],0x0
     f12:	c7 45 e4 00 00 00 00 	mov    DWORD PTR [rbp-0x1c],0x0
     f19:	eb 30                	jmp    f4b <split_lines+0x247>
     f1b:	8b 45 e0             	mov    eax,DWORD PTR [rbp-0x20]
     f1e:	48 63 d0             	movsxd rdx,eax
     f21:	48 8b 45 a8          	mov    rax,QWORD PTR [rbp-0x58]
     f25:	48 8d 0c 02          	lea    rcx,[rdx+rax*1]
     f29:	8b 45 e4             	mov    eax,DWORD PTR [rbp-0x1c]
     f2c:	8d 50 01             	lea    edx,[rax+0x1]
     f2f:	89 55 e4             	mov    DWORD PTR [rbp-0x1c],edx
     f32:	0f b6 09             	movzx  ecx,BYTE PTR [rcx]
     f35:	48 8b 55 c8          	mov    rdx,QWORD PTR [rbp-0x38]
     f39:	48 98                	cdqe
     f3b:	88 0c 02             	mov    BYTE PTR [rdx+rax*1],cl
     f3e:	48 8b 55 c8          	mov    rdx,QWORD PTR [rbp-0x38]
     f42:	8b 45 e4             	mov    eax,DWORD PTR [rbp-0x1c]
     f45:	48 98                	cdqe
     f47:	c6 04 02 00          	mov    BYTE PTR [rdx+rax*1],0x0
     f4b:	83 45 e0 01          	add    DWORD PTR [rbp-0x20],0x1
     f4f:	8b 45 e0             	mov    eax,DWORD PTR [rbp-0x20]
     f52:	3b 45 dc             	cmp    eax,DWORD PTR [rbp-0x24]
     f55:	0f 8c b2 fe ff ff    	jl     e0d <split_lines+0x109>
     f5b:	eb 01                	jmp    f5e <split_lines+0x25a>
     f5d:	90                   	nop
     f5e:	48 8b 45 a0          	mov    rax,QWORD PTR [rbp-0x60]
     f62:	8b 00                	mov    eax,DWORD PTR [rax]
     f64:	85 c0                	test   eax,eax
     f66:	7e 06                	jle    f6e <split_lines+0x26a>
     f68:	48 8b 45 e8          	mov    rax,QWORD PTR [rbp-0x18]
     f6c:	eb 16                	jmp    f84 <split_lines+0x280>
     f6e:	48 8b 45 e8          	mov    rax,QWORD PTR [rbp-0x18]
     f72:	be 01 00 00 00       	mov    esi,0x1
     f77:	48 89 c7             	mov    rdi,rax
     f7a:	e8 00 00 00 00       	call   f7f <split_lines+0x27b>
     f7f:	b8 00 00 00 00       	mov    eax,0x0
     f84:	4c 89 e4             	mov    rsp,r12
     f87:	48 8d 65 f0          	lea    rsp,[rbp-0x10]
     f8b:	5b                   	pop    rbx
     f8c:	41 5c                	pop    r12
     f8e:	5d                   	pop    rbp
     f8f:	c3                   	ret

0000000000000f90 <split_string>:
     f90:	f3 0f 1e fa          	endbr64
     f94:	55                   	push   rbp
     f95:	48 89 e5             	mov    rbp,rsp
     f98:	41 54                	push   r12
     f9a:	53                   	push   rbx
     f9b:	48 83 ec 60          	sub    rsp,0x60
     f9f:	48 89 7d a8          	mov    QWORD PTR [rbp-0x58],rdi
     fa3:	89 f0                	mov    eax,esi
     fa5:	48 89 55 98          	mov    QWORD PTR [rbp-0x68],rdx
     fa9:	88 45 a4             	mov    BYTE PTR [rbp-0x5c],al
     fac:	48 89 e0             	mov    rax,rsp
     faf:	49 89 c4             	mov    r12,rax
     fb2:	48 83 7d a8 00       	cmp    QWORD PTR [rbp-0x58],0x0
     fb7:	75 0a                	jne    fc3 <split_string+0x33>
     fb9:	b8 00 00 00 00       	mov    eax,0x0
     fbe:	e9 94 02 00 00       	jmp    1257 <split_string+0x2c7>
     fc3:	48 8b 45 a8          	mov    rax,QWORD PTR [rbp-0x58]
     fc7:	48 89 c7             	mov    rdi,rax
     fca:	e8 00 00 00 00       	call   fcf <split_string+0x3f>
     fcf:	89 45 dc             	mov    DWORD PTR [rbp-0x24],eax
     fd2:	48 8b 45 a8          	mov    rax,QWORD PTR [rbp-0x58]
     fd6:	be 0a 00 00 00       	mov    esi,0xa
     fdb:	48 89 c7             	mov    rdi,rax
     fde:	e8 00 00 00 00       	call   fe3 <split_string+0x53>
     fe3:	89 45 d8             	mov    DWORD PTR [rbp-0x28],eax
     fe6:	8b 45 d8             	mov    eax,DWORD PTR [rbp-0x28]
     fe9:	83 c0 01             	add    eax,0x1
     fec:	89 c6                	mov    esi,eax
     fee:	bf 08 00 00 00       	mov    edi,0x8
     ff3:	e8 00 00 00 00       	call   ff8 <split_string+0x68>
     ff8:	48 89 45 e8          	mov    QWORD PTR [rbp-0x18],rax
     ffc:	48 8b 45 98          	mov    rax,QWORD PTR [rbp-0x68]
    1000:	c7 00 00 00 00 00    	mov    DWORD PTR [rax],0x0
    1006:	c7 45 e4 00 00 00 00 	mov    DWORD PTR [rbp-0x1c],0x0
    100d:	8b 45 dc             	mov    eax,DWORD PTR [rbp-0x24]
    1010:	48 63 d0             	movsxd rdx,eax
    1013:	48 83 ea 01          	sub    rdx,0x1
    1017:	48 89 55 d0          	mov    QWORD PTR [rbp-0x30],rdx
    101b:	48 98                	cdqe
    101d:	ba 10 00 00 00       	mov    edx,0x10
    1022:	48 83 ea 01          	sub    rdx,0x1
    1026:	48 01 d0             	add    rax,rdx
    1029:	bb 10 00 00 00       	mov    ebx,0x10
    102e:	ba 00 00 00 00       	mov    edx,0x0
    1033:	48 f7 f3             	div    rbx
    1036:	48 6b c0 10          	imul   rax,rax,0x10
    103a:	48 89 c1             	mov    rcx,rax
    103d:	48 81 e1 00 f0 ff ff 	and    rcx,0xfffffffffffff000
    1044:	48 89 e2             	mov    rdx,rsp
    1047:	48 29 ca             	sub    rdx,rcx
    104a:	48 39 d4             	cmp    rsp,rdx
    104d:	74 12                	je     1061 <split_string+0xd1>
    104f:	48 81 ec 00 10 00 00 	sub    rsp,0x1000
    1056:	48 83 8c 24 f8 0f 00 	or     QWORD PTR [rsp+0xff8],0x0
    105d:	00 00 
    105f:	eb e9                	jmp    104a <split_string+0xba>
    1061:	48 89 c2             	mov    rdx,rax
    1064:	81 e2 ff 0f 00 00    	and    edx,0xfff
    106a:	48 29 d4             	sub    rsp,rdx
    106d:	48 89 c2             	mov    rdx,rax
    1070:	81 e2 ff 0f 00 00    	and    edx,0xfff
    1076:	48 85 d2             	test   rdx,rdx
    1079:	74 10                	je     108b <split_string+0xfb>
    107b:	25 ff 0f 00 00       	and    eax,0xfff
    1080:	48 83 e8 08          	sub    rax,0x8
    1084:	48 01 e0             	add    rax,rsp
    1087:	48 83 08 00          	or     QWORD PTR [rax],0x0
    108b:	48 89 e0             	mov    rax,rsp
    108e:	48 89 45 c8          	mov    QWORD PTR [rbp-0x38],rax
    1092:	c7 45 e0 00 00 00 00 	mov    DWORD PTR [rbp-0x20],0x0
    1099:	e9 36 01 00 00       	jmp    11d4 <split_string+0x244>
    109e:	8b 45 e0             	mov    eax,DWORD PTR [rbp-0x20]
    10a1:	48 63 d0             	movsxd rdx,eax
    10a4:	48 8b 45 a8          	mov    rax,QWORD PTR [rbp-0x58]
    10a8:	48 01 d0             	add    rax,rdx
    10ab:	0f b6 00             	movzx  eax,BYTE PTR [rax]
    10ae:	84 c0                	test   al,al
    10b0:	0f 84 2c 01 00 00    	je     11e2 <split_string+0x252>
    10b6:	8b 45 e0             	mov    eax,DWORD PTR [rbp-0x20]
    10b9:	48 63 d0             	movsxd rdx,eax
    10bc:	48 8b 45 a8          	mov    rax,QWORD PTR [rbp-0x58]
    10c0:	48 01 d0             	add    rax,rdx
    10c3:	0f b6 00             	movzx  eax,BYTE PTR [rax]
    10c6:	38 45 a4             	cmp    BYTE PTR [rbp-0x5c],al
    10c9:	0f 85 d1 00 00 00    	jne    11a0 <split_string+0x210>
    10cf:	48 8b 45 c8          	mov    rax,QWORD PTR [rbp-0x38]
    10d3:	48 89 c7             	mov    rdi,rax
    10d6:	e8 00 00 00 00       	call   10db <split_string+0x14b>
    10db:	89 45 c4             	mov    DWORD PTR [rbp-0x3c],eax
    10de:	83 7d c4 00          	cmp    DWORD PTR [rbp-0x3c],0x0
    10e2:	75 0f                	jne    10f3 <split_string+0x163>
    10e4:	48 8b 45 c8          	mov    rax,QWORD PTR [rbp-0x38]
    10e8:	c6 00 20             	mov    BYTE PTR [rax],0x20
    10eb:	48 8b 45 c8          	mov    rax,QWORD PTR [rbp-0x38]
    10ef:	c6 40 01 00          	mov    BYTE PTR [rax+0x1],0x0
    10f3:	48 8b 45 98          	mov    rax,QWORD PTR [rbp-0x68]
    10f7:	8b 00                	mov    eax,DWORD PTR [rax]
    10f9:	8d 48 01             	lea    ecx,[rax+0x1]
    10fc:	48 8b 55 98          	mov    rdx,QWORD PTR [rbp-0x68]
    1100:	89 0a                	mov    DWORD PTR [rdx],ecx
    1102:	48 98                	cdqe
    1104:	48 8d 14 c5 00 00 00 	lea    rdx,[rax*8+0x0]
    110b:	00 
    110c:	48 8b 45 e8          	mov    rax,QWORD PTR [rbp-0x18]
    1110:	48 8d 1c 02          	lea    rbx,[rdx+rax*1]
    1114:	48 8b 45 c8          	mov    rax,QWORD PTR [rbp-0x38]
    1118:	48 89 c7             	mov    rdi,rax
    111b:	e8 00 00 00 00       	call   1120 <split_string+0x190>
    1120:	48 89 03             	mov    QWORD PTR [rbx],rax
    1123:	48 8b 45 98          	mov    rax,QWORD PTR [rbp-0x68]
    1127:	8b 00                	mov    eax,DWORD PTR [rax]
    1129:	83 c0 01             	add    eax,0x1
    112c:	c1 e0 03             	shl    eax,0x3
    112f:	89 c2                	mov    edx,eax
    1131:	48 8b 45 e8          	mov    rax,QWORD PTR [rbp-0x18]
    1135:	89 d6                	mov    esi,edx
    1137:	48 89 c7             	mov    rdi,rax
    113a:	e8 00 00 00 00       	call   113f <split_string+0x1af>
    113f:	48 89 45 b8          	mov    QWORD PTR [rbp-0x48],rax
    1143:	48 8b 45 e8          	mov    rax,QWORD PTR [rbp-0x18]
    1147:	be 01 00 00 00       	mov    esi,0x1
    114c:	48 89 c7             	mov    rdi,rax
    114f:	e8 00 00 00 00       	call   1154 <split_string+0x1c4>
    1154:	48 8b 45 b8          	mov    rax,QWORD PTR [rbp-0x48]
    1158:	48 89 45 e8          	mov    QWORD PTR [rbp-0x18],rax
    115c:	48 83 7d e8 00       	cmp    QWORD PTR [rbp-0x18],0x0
    1161:	75 0f                	jne    1172 <split_string+0x1e2>
    1163:	48 8d 05 00 00 00 00 	lea    rax,[rip+0x0]        # 116a <split_string+0x1da>
    116a:	48 89 c7             	mov    rdi,rax
    116d:	e8 00 00 00 00       	call   1172 <split_string+0x1e2>
    1172:	48 8b 45 98          	mov    rax,QWORD PTR [rbp-0x68]
    1176:	8b 00                	mov    eax,DWORD PTR [rax]
    1178:	48 98                	cdqe
    117a:	48 8d 14 c5 00 00 00 	lea    rdx,[rax*8+0x0]
    1181:	00 
    1182:	48 8b 45 e8          	mov    rax,QWORD PTR [rbp-0x18]
    1186:	48 01 d0             	add    rax,rdx
    1189:	48 c7 00 00 00 00 00 	mov    QWORD PTR [rax],0x0
    1190:	48 8b 45 c8          	mov    rax,QWORD PTR [rbp-0x38]
    1194:	c6 00 00             	mov    BYTE PTR [rax],0x0
    1197:	c7 45 e4 00 00 00 00 	mov    DWORD PTR [rbp-0x1c],0x0
    119e:	eb 30                	jmp    11d0 <split_string+0x240>
    11a0:	8b 45 e0             	mov    eax,DWORD PTR [rbp-0x20]
    11a3:	48 63 d0             	movsxd rdx,eax
    11a6:	48 8b 45 a8          	mov    rax,QWORD PTR [rbp-0x58]
    11aa:	48 8d 0c 02          	lea    rcx,[rdx+rax*1]
    11ae:	8b 45 e4             	mov    eax,DWORD PTR [rbp-0x1c]
    11b1:	8d 50 01             	lea    edx,[rax+0x1]
    11b4:	89 55 e4             	mov    DWORD PTR [rbp-0x1c],edx
    11b7:	0f b6 09             	movzx  ecx,BYTE PTR [rcx]
    11ba:	48 8b 55 c8          	mov    rdx,QWORD PTR [rbp-0x38]
    11be:	48 98                	cdqe
    11c0:	88 0c 02             	mov    BYTE PTR [rdx+rax*1],cl
    11c3:	48 8b 55 c8          	mov    rdx,QWORD PTR [rbp-0x38]
    11c7:	8b 45 e4             	mov    eax,DWORD PTR [rbp-0x1c]
    11ca:	48 98                	cdqe
    11cc:	c6 04 02 00          	mov    BYTE PTR [rdx+rax*1],0x0
    11d0:	83 45 e0 01          	add    DWORD PTR [rbp-0x20],0x1
    11d4:	8b 45 e0             	mov    eax,DWORD PTR [rbp-0x20]
    11d7:	3b 45 dc             	cmp    eax,DWORD PTR [rbp-0x24]
    11da:	0f 8c be fe ff ff    	jl     109e <split_string+0x10e>
    11e0:	eb 01                	jmp    11e3 <split_string+0x253>
    11e2:	90                   	nop
    11e3:	48 8b 45 98          	mov    rax,QWORD PTR [rbp-0x68]
    11e7:	8b 00                	mov    eax,DWORD PTR [rax]
    11e9:	8d 48 01             	lea    ecx,[rax+0x1]
    11ec:	48 8b 55 98          	mov    rdx,QWORD PTR [rbp-0x68]
    11f0:	89 0a                	mov    DWORD PTR [rdx],ecx
    11f2:	48 98                	cdqe
    11f4:	48 8d 14 c5 00 00 00 	lea    rdx,[rax*8+0x0]
    11fb:	00 
    11fc:	48 8b 45 e8          	mov    rax,QWORD PTR [rbp-0x18]
    1200:	48 8d 1c 02          	lea    rbx,[rdx+rax*1]
    1204:	48 8b 45 c8          	mov    rax,QWORD PTR [rbp-0x38]
    1208:	48 89 c7             	mov    rdi,rax
    120b:	e8 00 00 00 00       	call   1210 <split_string+0x280>
    1210:	48 89 03             	mov    QWORD PTR [rbx],rax
    1213:	48 8b 45 98          	mov    rax,QWORD PTR [rbp-0x68]
    1217:	8b 00                	mov    eax,DWORD PTR [rax]
    1219:	48 98                	cdqe
    121b:	48 8d 14 c5 00 00 00 	lea    rdx,[rax*8+0x0]
    1222:	00 
    1223:	48 8b 45 e8          	mov    rax,QWORD PTR [rbp-0x18]
    1227:	48 01 d0             	add    rax,rdx
    122a:	48 c7 00 00 00 00 00 	mov    QWORD PTR [rax],0x0
    1231:	48 8b 45 98          	mov    rax,QWORD PTR [rbp-0x68]
    1235:	8b 00                	mov    eax,DWORD PTR [rax]
    1237:	85 c0                	test   eax,eax
    1239:	7e 06                	jle    1241 <split_string+0x2b1>
    123b:	48 8b 45 e8          	mov    rax,QWORD PTR [rbp-0x18]
    123f:	eb 16                	jmp    1257 <split_string+0x2c7>
    1241:	48 8b 45 e8          	mov    rax,QWORD PTR [rbp-0x18]
    1245:	be 01 00 00 00       	mov    esi,0x1
    124a:	48 89 c7             	mov    rdi,rax
    124d:	e8 00 00 00 00       	call   1252 <split_string+0x2c2>
    1252:	b8 00 00 00 00       	mov    eax,0x0
    1257:	4c 89 e4             	mov    rsp,r12
    125a:	48 8d 65 f0          	lea    rsp,[rbp-0x10]
    125e:	5b                   	pop    rbx
    125f:	41 5c                	pop    r12
    1261:	5d                   	pop    rbp
    1262:	c3                   	ret

0000000000001263 <get_sub_str>:
    1263:	f3 0f 1e fa          	endbr64
    1267:	55                   	push   rbp
    1268:	48 89 e5             	mov    rbp,rsp
    126b:	48 89 7d e8          	mov    QWORD PTR [rbp-0x18],rdi
    126f:	89 75 e4             	mov    DWORD PTR [rbp-0x1c],esi
    1272:	89 55 e0             	mov    DWORD PTR [rbp-0x20],edx
    1275:	48 89 4d d8          	mov    QWORD PTR [rbp-0x28],rcx
    1279:	48 83 7d e8 00       	cmp    QWORD PTR [rbp-0x18],0x0
    127e:	75 07                	jne    1287 <get_sub_str+0x24>
    1280:	b8 ff ff ff ff       	mov    eax,0xffffffff
    1285:	eb 7c                	jmp    1303 <get_sub_str+0xa0>
    1287:	8b 45 e0             	mov    eax,DWORD PTR [rbp-0x20]
    128a:	2b 45 e4             	sub    eax,DWORD PTR [rbp-0x1c]
    128d:	89 45 f4             	mov    DWORD PTR [rbp-0xc],eax
    1290:	c7 45 fc 00 00 00 00 	mov    DWORD PTR [rbp-0x4],0x0
    1297:	c7 45 f8 00 00 00 00 	mov    DWORD PTR [rbp-0x8],0x0
    129e:	eb 3a                	jmp    12da <get_sub_str+0x77>
    12a0:	8b 45 f8             	mov    eax,DWORD PTR [rbp-0x8]
    12a3:	3b 45 e4             	cmp    eax,DWORD PTR [rbp-0x1c]
    12a6:	7c 2e                	jl     12d6 <get_sub_str+0x73>
    12a8:	8b 45 f8             	mov    eax,DWORD PTR [rbp-0x8]
    12ab:	3b 45 e0             	cmp    eax,DWORD PTR [rbp-0x20]
    12ae:	7f 26                	jg     12d6 <get_sub_str+0x73>
    12b0:	8b 45 f8             	mov    eax,DWORD PTR [rbp-0x8]
    12b3:	48 63 d0             	movsxd rdx,eax
    12b6:	48 8b 45 e8          	mov    rax,QWORD PTR [rbp-0x18]
    12ba:	48 8d 0c 02          	lea    rcx,[rdx+rax*1]
    12be:	8b 45 fc             	mov    eax,DWORD PTR [rbp-0x4]
    12c1:	8d 50 01             	lea    edx,[rax+0x1]
    12c4:	89 55 fc             	mov    DWORD PTR [rbp-0x4],edx
    12c7:	48 63 d0             	movsxd rdx,eax
    12ca:	48 8b 45 d8          	mov    rax,QWORD PTR [rbp-0x28]
    12ce:	48 01 c2             	add    rdx,rax
    12d1:	0f b6 01             	movzx  eax,BYTE PTR [rcx]
    12d4:	88 02                	mov    BYTE PTR [rdx],al
    12d6:	83 45 f8 01          	add    DWORD PTR [rbp-0x8],0x1
    12da:	8b 45 f8             	mov    eax,DWORD PTR [rbp-0x8]
    12dd:	48 63 d0             	movsxd rdx,eax
    12e0:	48 8b 45 e8          	mov    rax,QWORD PTR [rbp-0x18]
    12e4:	48 01 d0             	add    rax,rdx
    12e7:	0f b6 00             	movzx  eax,BYTE PTR [rax]
    12ea:	84 c0                	test   al,al
    12ec:	75 b2                	jne    12a0 <get_sub_str+0x3d>
    12ee:	8b 45 fc             	mov    eax,DWORD PTR [rbp-0x4]
    12f1:	48 63 d0             	movsxd rdx,eax
    12f4:	48 8b 45 d8          	mov    rax,QWORD PTR [rbp-0x28]
    12f8:	48 01 d0             	add    rax,rdx
    12fb:	c6 00 00             	mov    BYTE PTR [rax],0x0
    12fe:	b8 00 00 00 00       	mov    eax,0x0
    1303:	5d                   	pop    rbp
    1304:	c3                   	ret

0000000000001305 <get_substr_upto>:
    1305:	f3 0f 1e fa          	endbr64
    1309:	55                   	push   rbp
    130a:	48 89 e5             	mov    rbp,rsp
    130d:	48 83 ec 30          	sub    rsp,0x30
    1311:	48 89 7d e8          	mov    QWORD PTR [rbp-0x18],rdi
    1315:	89 f0                	mov    eax,esi
    1317:	48 89 55 d8          	mov    QWORD PTR [rbp-0x28],rdx
    131b:	88 45 e4             	mov    BYTE PTR [rbp-0x1c],al
    131e:	48 83 7d e8 00       	cmp    QWORD PTR [rbp-0x18],0x0
    1323:	75 07                	jne    132c <get_substr_upto+0x27>
    1325:	b8 00 00 00 00       	mov    eax,0x0
    132a:	eb 4e                	jmp    137a <get_substr_upto+0x75>
    132c:	0f be 55 e4          	movsx  edx,BYTE PTR [rbp-0x1c]
    1330:	48 8b 45 e8          	mov    rax,QWORD PTR [rbp-0x18]
    1334:	89 d6                	mov    esi,edx
    1336:	48 89 c7             	mov    rdi,rax
    1339:	e8 00 00 00 00       	call   133e <get_substr_upto+0x39>
    133e:	89 45 f8             	mov    DWORD PTR [rbp-0x8],eax
    1341:	c7 45 fc 00 00 00 00 	mov    DWORD PTR [rbp-0x4],0x0
    1348:	eb 23                	jmp    136d <get_substr_upto+0x68>
    134a:	8b 45 fc             	mov    eax,DWORD PTR [rbp-0x4]
    134d:	48 63 d0             	movsxd rdx,eax
    1350:	48 8b 45 e8          	mov    rax,QWORD PTR [rbp-0x18]
    1354:	48 01 d0             	add    rax,rdx
    1357:	8b 55 fc             	mov    edx,DWORD PTR [rbp-0x4]
    135a:	48 63 ca             	movsxd rcx,edx
    135d:	48 8b 55 d8          	mov    rdx,QWORD PTR [rbp-0x28]
    1361:	48 01 ca             	add    rdx,rcx
    1364:	0f b6 00             	movzx  eax,BYTE PTR [rax]
    1367:	88 02                	mov    BYTE PTR [rdx],al
    1369:	83 45 fc 01          	add    DWORD PTR [rbp-0x4],0x1
    136d:	8b 45 fc             	mov    eax,DWORD PTR [rbp-0x4]
    1370:	3b 45 f8             	cmp    eax,DWORD PTR [rbp-0x8]
    1373:	7c d5                	jl     134a <get_substr_upto+0x45>
    1375:	b8 01 00 00 00       	mov    eax,0x1
    137a:	c9                   	leave
    137b:	c3                   	ret

000000000000137c <is_number>:
    137c:	f3 0f 1e fa          	endbr64
    1380:	55                   	push   rbp
    1381:	48 89 e5             	mov    rbp,rsp
    1384:	48 89 7d e8          	mov    QWORD PTR [rbp-0x18],rdi
    1388:	48 83 7d e8 00       	cmp    QWORD PTR [rbp-0x18],0x0
    138d:	75 07                	jne    1396 <is_number+0x1a>
    138f:	b8 00 00 00 00       	mov    eax,0x0
    1394:	eb 55                	jmp    13eb <is_number+0x6f>
    1396:	c7 45 fc 00 00 00 00 	mov    DWORD PTR [rbp-0x4],0x0
    139d:	eb 33                	jmp    13d2 <is_number+0x56>
    139f:	8b 45 fc             	mov    eax,DWORD PTR [rbp-0x4]
    13a2:	48 63 d0             	movsxd rdx,eax
    13a5:	48 8b 45 e8          	mov    rax,QWORD PTR [rbp-0x18]
    13a9:	48 01 d0             	add    rax,rdx
    13ac:	0f b6 00             	movzx  eax,BYTE PTR [rax]
    13af:	3c 2f                	cmp    al,0x2f
    13b1:	7e 14                	jle    13c7 <is_number+0x4b>
    13b3:	8b 45 fc             	mov    eax,DWORD PTR [rbp-0x4]
    13b6:	48 63 d0             	movsxd rdx,eax
    13b9:	48 8b 45 e8          	mov    rax,QWORD PTR [rbp-0x18]
    13bd:	48 01 d0             	add    rax,rdx
    13c0:	0f b6 00             	movzx  eax,BYTE PTR [rax]
    13c3:	3c 39                	cmp    al,0x39
    13c5:	7e 07                	jle    13ce <is_number+0x52>
    13c7:	b8 00 00 00 00       	mov    eax,0x0
    13cc:	eb 1d                	jmp    13eb <is_number+0x6f>
    13ce:	83 45 fc 01          	add    DWORD PTR [rbp-0x4],0x1
    13d2:	8b 45 fc             	mov    eax,DWORD PTR [rbp-0x4]
    13d5:	48 63 d0             	movsxd rdx,eax
    13d8:	48 8b 45 e8          	mov    rax,QWORD PTR [rbp-0x18]
    13dc:	48 01 d0             	add    rax,rdx
    13df:	0f b6 00             	movzx  eax,BYTE PTR [rax]
    13e2:	84 c0                	test   al,al
    13e4:	75 b9                	jne    139f <is_number+0x23>
    13e6:	b8 01 00 00 00       	mov    eax,0x1
    13eb:	5d                   	pop    rbp
    13ec:	c3                   	ret

00000000000013ed <is_empty>:
    13ed:	f3 0f 1e fa          	endbr64
    13f1:	55                   	push   rbp
    13f2:	48 89 e5             	mov    rbp,rsp
    13f5:	48 89 7d e8          	mov    QWORD PTR [rbp-0x18],rdi
    13f9:	48 83 7d e8 00       	cmp    QWORD PTR [rbp-0x18],0x0
    13fe:	75 07                	jne    1407 <is_empty+0x1a>
    1400:	b8 00 00 00 00       	mov    eax,0x0
    1405:	eb 41                	jmp    1448 <is_empty+0x5b>
    1407:	c7 45 fc 00 00 00 00 	mov    DWORD PTR [rbp-0x4],0x0
    140e:	eb 1f                	jmp    142f <is_empty+0x42>
    1410:	8b 45 fc             	mov    eax,DWORD PTR [rbp-0x4]
    1413:	48 63 d0             	movsxd rdx,eax
    1416:	48 8b 45 e8          	mov    rax,QWORD PTR [rbp-0x18]
    141a:	48 01 d0             	add    rax,rdx
    141d:	0f b6 00             	movzx  eax,BYTE PTR [rax]
    1420:	3c 20                	cmp    al,0x20
    1422:	74 07                	je     142b <is_empty+0x3e>
    1424:	b8 00 00 00 00       	mov    eax,0x0
    1429:	eb 1d                	jmp    1448 <is_empty+0x5b>
    142b:	83 45 fc 01          	add    DWORD PTR [rbp-0x4],0x1
    142f:	8b 45 fc             	mov    eax,DWORD PTR [rbp-0x4]
    1432:	48 63 d0             	movsxd rdx,eax
    1435:	48 8b 45 e8          	mov    rax,QWORD PTR [rbp-0x18]
    1439:	48 01 d0             	add    rax,rdx
    143c:	0f b6 00             	movzx  eax,BYTE PTR [rax]
    143f:	84 c0                	test   al,al
    1441:	75 cd                	jne    1410 <is_empty+0x23>
    1443:	b8 01 00 00 00       	mov    eax,0x1
    1448:	5d                   	pop    rbp
    1449:	c3                   	ret

000000000000144a <byte_to_hex>:
    144a:	f3 0f 1e fa          	endbr64
    144e:	55                   	push   rbp
    144f:	48 89 e5             	mov    rbp,rsp
    1452:	89 f8                	mov    eax,edi
    1454:	48 89 75 d0          	mov    QWORD PTR [rbp-0x30],rsi
    1458:	88 45 dc             	mov    BYTE PTR [rbp-0x24],al
    145b:	48 b8 30 31 32 33 34 	movabs rax,0x3736353433323130
    1462:	35 36 37 
    1465:	48 ba 38 39 41 42 43 	movabs rdx,0x4645444342413938
    146c:	44 45 46 
    146f:	48 89 45 e0          	mov    QWORD PTR [rbp-0x20],rax
    1473:	48 89 55 e8          	mov    QWORD PTR [rbp-0x18],rdx
    1477:	c6 45 f0 00          	mov    BYTE PTR [rbp-0x10],0x0
    147b:	0f b6 45 dc          	movzx  eax,BYTE PTR [rbp-0x24]
    147f:	c0 e8 04             	shr    al,0x4
    1482:	0f b6 c0             	movzx  eax,al
    1485:	83 e0 0f             	and    eax,0xf
    1488:	48 98                	cdqe
    148a:	0f b6 54 05 e0       	movzx  edx,BYTE PTR [rbp+rax*1-0x20]
    148f:	48 8b 45 d0          	mov    rax,QWORD PTR [rbp-0x30]
    1493:	88 10                	mov    BYTE PTR [rax],dl
    1495:	0f b6 45 dc          	movzx  eax,BYTE PTR [rbp-0x24]
    1499:	83 e0 0f             	and    eax,0xf
    149c:	89 c1                	mov    ecx,eax
    149e:	48 8b 45 d0          	mov    rax,QWORD PTR [rbp-0x30]
    14a2:	48 8d 50 01          	lea    rdx,[rax+0x1]
    14a6:	48 63 c1             	movsxd rax,ecx
    14a9:	0f b6 44 05 e0       	movzx  eax,BYTE PTR [rbp+rax*1-0x20]
    14ae:	88 02                	mov    BYTE PTR [rdx],al
    14b0:	48 8b 45 d0          	mov    rax,QWORD PTR [rbp-0x30]
    14b4:	48 83 c0 02          	add    rax,0x2
    14b8:	c6 00 00             	mov    BYTE PTR [rax],0x0
    14bb:	90                   	nop
    14bc:	5d                   	pop    rbp
    14bd:	c3                   	ret

00000000000014be <string_reverse>:
    14be:	f3 0f 1e fa          	endbr64
    14c2:	55                   	push   rbp
    14c3:	48 89 e5             	mov    rbp,rsp
    14c6:	48 83 ec 20          	sub    rsp,0x20
    14ca:	48 89 7d e8          	mov    QWORD PTR [rbp-0x18],rdi
    14ce:	48 89 75 e0          	mov    QWORD PTR [rbp-0x20],rsi
    14d2:	48 83 7d e8 00       	cmp    QWORD PTR [rbp-0x18],0x0
    14d7:	75 07                	jne    14e0 <string_reverse+0x22>
    14d9:	b8 00 00 00 00       	mov    eax,0x0
    14de:	eb 55                	jmp    1535 <string_reverse+0x77>
    14e0:	48 8b 45 e8          	mov    rax,QWORD PTR [rbp-0x18]
    14e4:	48 89 c7             	mov    rdi,rax
    14e7:	e8 00 00 00 00       	call   14ec <string_reverse+0x2e>
    14ec:	89 45 f4             	mov    DWORD PTR [rbp-0xc],eax
    14ef:	8b 45 f4             	mov    eax,DWORD PTR [rbp-0xc]
    14f2:	83 e8 01             	sub    eax,0x1
    14f5:	89 45 fc             	mov    DWORD PTR [rbp-0x4],eax
    14f8:	c7 45 f8 00 00 00 00 	mov    DWORD PTR [rbp-0x8],0x0
    14ff:	eb 27                	jmp    1528 <string_reverse+0x6a>
    1501:	8b 45 fc             	mov    eax,DWORD PTR [rbp-0x4]
    1504:	48 63 d0             	movsxd rdx,eax
    1507:	48 8b 45 e8          	mov    rax,QWORD PTR [rbp-0x18]
    150b:	48 01 d0             	add    rax,rdx
    150e:	8b 55 f8             	mov    edx,DWORD PTR [rbp-0x8]
    1511:	48 63 ca             	movsxd rcx,edx
    1514:	48 8b 55 e0          	mov    rdx,QWORD PTR [rbp-0x20]
    1518:	48 01 ca             	add    rdx,rcx
    151b:	0f b6 00             	movzx  eax,BYTE PTR [rax]
    151e:	88 02                	mov    BYTE PTR [rdx],al
    1520:	83 6d fc 01          	sub    DWORD PTR [rbp-0x4],0x1
    1524:	83 45 f8 01          	add    DWORD PTR [rbp-0x8],0x1
    1528:	8b 45 f8             	mov    eax,DWORD PTR [rbp-0x8]
    152b:	3b 45 f4             	cmp    eax,DWORD PTR [rbp-0xc]
    152e:	7c d1                	jl     1501 <string_reverse+0x43>
    1530:	b8 01 00 00 00       	mov    eax,0x1
    1535:	c9                   	leave
    1536:	c3                   	ret

0000000000001537 <str_startswith>:
    1537:	f3 0f 1e fa          	endbr64
    153b:	55                   	push   rbp
    153c:	48 89 e5             	mov    rbp,rsp
    153f:	48 83 ec 20          	sub    rsp,0x20
    1543:	48 89 7d e8          	mov    QWORD PTR [rbp-0x18],rdi
    1547:	48 89 75 e0          	mov    QWORD PTR [rbp-0x20],rsi
    154b:	48 83 7d e8 00       	cmp    QWORD PTR [rbp-0x18],0x0
    1550:	74 07                	je     1559 <str_startswith+0x22>
    1552:	48 83 7d e0 00       	cmp    QWORD PTR [rbp-0x20],0x0
    1557:	75 07                	jne    1560 <str_startswith+0x29>
    1559:	b8 00 00 00 00       	mov    eax,0x0
    155e:	eb 7b                	jmp    15db <str_startswith+0xa4>
    1560:	48 8b 45 e8          	mov    rax,QWORD PTR [rbp-0x18]
    1564:	48 89 c7             	mov    rdi,rax
    1567:	e8 00 00 00 00       	call   156c <str_startswith+0x35>
    156c:	89 45 f8             	mov    DWORD PTR [rbp-0x8],eax
    156f:	48 8b 45 e0          	mov    rax,QWORD PTR [rbp-0x20]
    1573:	48 89 c7             	mov    rdi,rax
    1576:	e8 00 00 00 00       	call   157b <str_startswith+0x44>
    157b:	89 45 f4             	mov    DWORD PTR [rbp-0xc],eax
    157e:	8b 45 f4             	mov    eax,DWORD PTR [rbp-0xc]
    1581:	3b 45 f8             	cmp    eax,DWORD PTR [rbp-0x8]
    1584:	7e 07                	jle    158d <str_startswith+0x56>
    1586:	b8 00 00 00 00       	mov    eax,0x0
    158b:	eb 4e                	jmp    15db <str_startswith+0xa4>
    158d:	8b 45 f8             	mov    eax,DWORD PTR [rbp-0x8]
    1590:	2b 45 f4             	sub    eax,DWORD PTR [rbp-0xc]
    1593:	89 45 f0             	mov    DWORD PTR [rbp-0x10],eax
    1596:	c7 45 fc 00 00 00 00 	mov    DWORD PTR [rbp-0x4],0x0
    159d:	eb 2f                	jmp    15ce <str_startswith+0x97>
    159f:	8b 45 fc             	mov    eax,DWORD PTR [rbp-0x4]
    15a2:	48 63 d0             	movsxd rdx,eax
    15a5:	48 8b 45 e8          	mov    rax,QWORD PTR [rbp-0x18]
    15a9:	48 01 d0             	add    rax,rdx
    15ac:	0f b6 10             	movzx  edx,BYTE PTR [rax]
    15af:	8b 45 fc             	mov    eax,DWORD PTR [rbp-0x4]
    15b2:	48 63 c8             	movsxd rcx,eax
    15b5:	48 8b 45 e0          	mov    rax,QWORD PTR [rbp-0x20]
    15b9:	48 01 c8             	add    rax,rcx
    15bc:	0f b6 00             	movzx  eax,BYTE PTR [rax]
    15bf:	38 c2                	cmp    dl,al
    15c1:	74 07                	je     15ca <str_startswith+0x93>
    15c3:	b8 00 00 00 00       	mov    eax,0x0
    15c8:	eb 11                	jmp    15db <str_startswith+0xa4>
    15ca:	83 45 fc 01          	add    DWORD PTR [rbp-0x4],0x1
    15ce:	8b 45 fc             	mov    eax,DWORD PTR [rbp-0x4]
    15d1:	3b 45 f4             	cmp    eax,DWORD PTR [rbp-0xc]
    15d4:	7c c9                	jl     159f <str_startswith+0x68>
    15d6:	b8 01 00 00 00       	mov    eax,0x1
    15db:	c9                   	leave
    15dc:	c3                   	ret

00000000000015dd <str_endswith>:
    15dd:	f3 0f 1e fa          	endbr64
    15e1:	55                   	push   rbp
    15e2:	48 89 e5             	mov    rbp,rsp
    15e5:	48 83 ec 30          	sub    rsp,0x30
    15e9:	48 89 7d d8          	mov    QWORD PTR [rbp-0x28],rdi
    15ed:	48 89 75 d0          	mov    QWORD PTR [rbp-0x30],rsi
    15f1:	48 83 7d d8 00       	cmp    QWORD PTR [rbp-0x28],0x0
    15f6:	74 07                	je     15ff <str_endswith+0x22>
    15f8:	48 83 7d d0 00       	cmp    QWORD PTR [rbp-0x30],0x0
    15fd:	75 0a                	jne    1609 <str_endswith+0x2c>
    15ff:	b8 00 00 00 00       	mov    eax,0x0
    1604:	e9 91 00 00 00       	jmp    169a <str_endswith+0xbd>
    1609:	48 8b 45 d8          	mov    rax,QWORD PTR [rbp-0x28]
    160d:	48 89 c7             	mov    rdi,rax
    1610:	e8 00 00 00 00       	call   1615 <str_endswith+0x38>
    1615:	89 45 f4             	mov    DWORD PTR [rbp-0xc],eax
    1618:	48 8b 45 d0          	mov    rax,QWORD PTR [rbp-0x30]
    161c:	48 89 c7             	mov    rdi,rax
    161f:	e8 00 00 00 00       	call   1624 <str_endswith+0x47>
    1624:	89 45 f0             	mov    DWORD PTR [rbp-0x10],eax
    1627:	8b 45 f0             	mov    eax,DWORD PTR [rbp-0x10]
    162a:	3b 45 f4             	cmp    eax,DWORD PTR [rbp-0xc]
    162d:	7e 07                	jle    1636 <str_endswith+0x59>
    162f:	b8 00 00 00 00       	mov    eax,0x0
    1634:	eb 64                	jmp    169a <str_endswith+0xbd>
    1636:	8b 45 f4             	mov    eax,DWORD PTR [rbp-0xc]
    1639:	2b 45 f0             	sub    eax,DWORD PTR [rbp-0x10]
    163c:	89 45 ec             	mov    DWORD PTR [rbp-0x14],eax
    163f:	8b 45 ec             	mov    eax,DWORD PTR [rbp-0x14]
    1642:	89 45 fc             	mov    DWORD PTR [rbp-0x4],eax
    1645:	c7 45 f8 00 00 00 00 	mov    DWORD PTR [rbp-0x8],0x0
    164c:	eb 33                	jmp    1681 <str_endswith+0xa4>
    164e:	8b 45 fc             	mov    eax,DWORD PTR [rbp-0x4]
    1651:	48 63 d0             	movsxd rdx,eax
    1654:	48 8b 45 d8          	mov    rax,QWORD PTR [rbp-0x28]
    1658:	48 01 d0             	add    rax,rdx
    165b:	0f b6 10             	movzx  edx,BYTE PTR [rax]
    165e:	8b 45 f8             	mov    eax,DWORD PTR [rbp-0x8]
    1661:	48 63 c8             	movsxd rcx,eax
    1664:	48 8b 45 d0          	mov    rax,QWORD PTR [rbp-0x30]
    1668:	48 01 c8             	add    rax,rcx
    166b:	0f b6 00             	movzx  eax,BYTE PTR [rax]
    166e:	38 c2                	cmp    dl,al
    1670:	74 07                	je     1679 <str_endswith+0x9c>
    1672:	b8 00 00 00 00       	mov    eax,0x0
    1677:	eb 21                	jmp    169a <str_endswith+0xbd>
    1679:	83 45 fc 01          	add    DWORD PTR [rbp-0x4],0x1
    167d:	83 45 f8 01          	add    DWORD PTR [rbp-0x8],0x1
    1681:	8b 45 fc             	mov    eax,DWORD PTR [rbp-0x4]
    1684:	48 63 d0             	movsxd rdx,eax
    1687:	48 8b 45 d8          	mov    rax,QWORD PTR [rbp-0x28]
    168b:	48 01 d0             	add    rax,rdx
    168e:	0f b6 00             	movzx  eax,BYTE PTR [rax]
    1691:	84 c0                	test   al,al
    1693:	75 b9                	jne    164e <str_endswith+0x71>
    1695:	b8 01 00 00 00       	mov    eax,0x1
    169a:	c9                   	leave
    169b:	c3                   	ret

000000000000169c <str_strip_idx_to_end>:
    169c:	f3 0f 1e fa          	endbr64
    16a0:	55                   	push   rbp
    16a1:	48 89 e5             	mov    rbp,rsp
    16a4:	48 83 ec 20          	sub    rsp,0x20
    16a8:	48 89 7d e8          	mov    QWORD PTR [rbp-0x18],rdi
    16ac:	89 75 e4             	mov    DWORD PTR [rbp-0x1c],esi
    16af:	48 83 7d e8 00       	cmp    QWORD PTR [rbp-0x18],0x0
    16b4:	74 06                	je     16bc <str_strip_idx_to_end+0x20>
    16b6:	83 7d e4 00          	cmp    DWORD PTR [rbp-0x1c],0x0
    16ba:	75 07                	jne    16c3 <str_strip_idx_to_end+0x27>
    16bc:	b8 00 00 00 00       	mov    eax,0x0
    16c1:	eb 38                	jmp    16fb <str_strip_idx_to_end+0x5f>
    16c3:	48 8b 45 e8          	mov    rax,QWORD PTR [rbp-0x18]
    16c7:	48 89 c7             	mov    rdi,rax
    16ca:	e8 00 00 00 00       	call   16cf <str_strip_idx_to_end+0x33>
    16cf:	89 45 f8             	mov    DWORD PTR [rbp-0x8],eax
    16d2:	8b 45 e4             	mov    eax,DWORD PTR [rbp-0x1c]
    16d5:	89 45 fc             	mov    DWORD PTR [rbp-0x4],eax
    16d8:	eb 14                	jmp    16ee <str_strip_idx_to_end+0x52>
    16da:	8b 45 fc             	mov    eax,DWORD PTR [rbp-0x4]
    16dd:	48 63 d0             	movsxd rdx,eax
    16e0:	48 8b 45 e8          	mov    rax,QWORD PTR [rbp-0x18]
    16e4:	48 01 d0             	add    rax,rdx
    16e7:	c6 00 00             	mov    BYTE PTR [rax],0x0
    16ea:	83 45 fc 01          	add    DWORD PTR [rbp-0x4],0x1
    16ee:	8b 45 fc             	mov    eax,DWORD PTR [rbp-0x4]
    16f1:	3b 45 f8             	cmp    eax,DWORD PTR [rbp-0x8]
    16f4:	7c e4                	jl     16da <str_strip_idx_to_end+0x3e>
    16f6:	b8 01 00 00 00       	mov    eax,0x1
    16fb:	c9                   	leave
    16fc:	c3                   	ret

00000000000016fd <str_strip_start_to_idx>:
    16fd:	f3 0f 1e fa          	endbr64
    1701:	55                   	push   rbp
    1702:	48 89 e5             	mov    rbp,rsp
    1705:	48 83 ec 20          	sub    rsp,0x20
    1709:	48 89 7d e8          	mov    QWORD PTR [rbp-0x18],rdi
    170d:	89 75 e4             	mov    DWORD PTR [rbp-0x1c],esi
    1710:	48 83 7d e8 00       	cmp    QWORD PTR [rbp-0x18],0x0
    1715:	74 06                	je     171d <str_strip_start_to_idx+0x20>
    1717:	83 7d e4 00          	cmp    DWORD PTR [rbp-0x1c],0x0
    171b:	75 07                	jne    1724 <str_strip_start_to_idx+0x27>
    171d:	b8 00 00 00 00       	mov    eax,0x0
    1722:	eb 48                	jmp    176c <str_strip_start_to_idx+0x6f>
    1724:	48 8b 45 e8          	mov    rax,QWORD PTR [rbp-0x18]
    1728:	48 89 c7             	mov    rdi,rax
    172b:	e8 00 00 00 00       	call   1730 <str_strip_start_to_idx+0x33>
    1730:	89 45 f8             	mov    DWORD PTR [rbp-0x8],eax
    1733:	8b 45 e4             	mov    eax,DWORD PTR [rbp-0x1c]
    1736:	3b 45 f8             	cmp    eax,DWORD PTR [rbp-0x8]
    1739:	7e 07                	jle    1742 <str_strip_start_to_idx+0x45>
    173b:	b8 00 00 00 00       	mov    eax,0x0
    1740:	eb 2a                	jmp    176c <str_strip_start_to_idx+0x6f>
    1742:	c7 45 fc 00 00 00 00 	mov    DWORD PTR [rbp-0x4],0x0
    1749:	eb 14                	jmp    175f <str_strip_start_to_idx+0x62>
    174b:	8b 45 fc             	mov    eax,DWORD PTR [rbp-0x4]
    174e:	48 63 d0             	movsxd rdx,eax
    1751:	48 8b 45 e8          	mov    rax,QWORD PTR [rbp-0x18]
    1755:	48 01 d0             	add    rax,rdx
    1758:	c6 00 00             	mov    BYTE PTR [rax],0x0
    175b:	83 45 fc 01          	add    DWORD PTR [rbp-0x4],0x1
    175f:	8b 45 fc             	mov    eax,DWORD PTR [rbp-0x4]
    1762:	3b 45 e4             	cmp    eax,DWORD PTR [rbp-0x1c]
    1765:	75 e4                	jne    174b <str_strip_start_to_idx+0x4e>
    1767:	b8 01 00 00 00       	mov    eax,0x1
    176c:	c9                   	leave
    176d:	c3                   	ret

000000000000176e <str_join>:
    176e:	f3 0f 1e fa          	endbr64
    1772:	55                   	push   rbp
    1773:	48 89 e5             	mov    rbp,rsp
    1776:	48 83 ec 28          	sub    rsp,0x28
    177a:	48 89 7d e8          	mov    QWORD PTR [rbp-0x18],rdi
    177e:	48 89 75 e0          	mov    QWORD PTR [rbp-0x20],rsi
    1782:	89 d0                	mov    eax,edx
    1784:	88 45 dc             	mov    BYTE PTR [rbp-0x24],al
    1787:	48 83 7d e8 00       	cmp    QWORD PTR [rbp-0x18],0x0
    178c:	74 07                	je     1795 <str_join+0x27>
    178e:	48 83 7d e0 00       	cmp    QWORD PTR [rbp-0x20],0x0
    1793:	75 07                	jne    179c <str_join+0x2e>
    1795:	b8 00 00 00 00       	mov    eax,0x0
    179a:	eb 74                	jmp    1810 <str_join+0xa2>
    179c:	c7 45 fc 00 00 00 00 	mov    DWORD PTR [rbp-0x4],0x0
    17a3:	eb 4a                	jmp    17ef <str_join+0x81>
    17a5:	66 c7 45 fa 00 00    	mov    WORD PTR [rbp-0x6],0x0
    17ab:	0f b6 45 dc          	movzx  eax,BYTE PTR [rbp-0x24]
    17af:	88 45 fa             	mov    BYTE PTR [rbp-0x6],al
    17b2:	8b 45 fc             	mov    eax,DWORD PTR [rbp-0x4]
    17b5:	48 98                	cdqe
    17b7:	48 8d 14 c5 00 00 00 	lea    rdx,[rax*8+0x0]
    17be:	00 
    17bf:	48 8b 45 e0          	mov    rax,QWORD PTR [rbp-0x20]
    17c3:	48 01 d0             	add    rax,rdx
    17c6:	48 8b 10             	mov    rdx,QWORD PTR [rax]
    17c9:	48 8b 45 e8          	mov    rax,QWORD PTR [rbp-0x18]
    17cd:	48 89 d6             	mov    rsi,rdx
    17d0:	48 89 c7             	mov    rdi,rax
    17d3:	e8 00 00 00 00       	call   17d8 <str_join+0x6a>
    17d8:	48 8d 55 fa          	lea    rdx,[rbp-0x6]
    17dc:	48 8b 45 e8          	mov    rax,QWORD PTR [rbp-0x18]
    17e0:	48 89 d6             	mov    rsi,rdx
    17e3:	48 89 c7             	mov    rdi,rax
    17e6:	e8 00 00 00 00       	call   17eb <str_join+0x7d>
    17eb:	83 45 fc 01          	add    DWORD PTR [rbp-0x4],0x1
    17ef:	8b 45 fc             	mov    eax,DWORD PTR [rbp-0x4]
    17f2:	48 98                	cdqe
    17f4:	48 8d 14 c5 00 00 00 	lea    rdx,[rax*8+0x0]
    17fb:	00 
    17fc:	48 8b 45 e0          	mov    rax,QWORD PTR [rbp-0x20]
    1800:	48 01 d0             	add    rax,rdx
    1803:	48 8b 00             	mov    rax,QWORD PTR [rax]
    1806:	48 85 c0             	test   rax,rax
    1809:	75 9a                	jne    17a5 <str_join+0x37>
    180b:	b8 01 00 00 00       	mov    eax,0x1
    1810:	c9                   	leave
    1811:	c3                   	ret

0000000000001812 <str_strip>:
    1812:	f3 0f 1e fa          	endbr64
    1816:	55                   	push   rbp
    1817:	48 89 e5             	mov    rbp,rsp
    181a:	48 83 ec 30          	sub    rsp,0x30
    181e:	48 89 7d d8          	mov    QWORD PTR [rbp-0x28],rdi
    1822:	48 83 7d d8 00       	cmp    QWORD PTR [rbp-0x28],0x0
    1827:	75 0a                	jne    1833 <str_strip+0x21>
    1829:	b8 00 00 00 00       	mov    eax,0x0
    182e:	e9 e1 00 00 00       	jmp    1914 <str_strip+0x102>
    1833:	48 8b 45 d8          	mov    rax,QWORD PTR [rbp-0x28]
    1837:	48 89 c7             	mov    rdi,rax
    183a:	e8 00 00 00 00       	call   183f <str_strip+0x2d>
    183f:	89 45 ec             	mov    DWORD PTR [rbp-0x14],eax
    1842:	c7 45 fc 00 00 00 00 	mov    DWORD PTR [rbp-0x4],0x0
    1849:	8b 45 ec             	mov    eax,DWORD PTR [rbp-0x14]
    184c:	83 e8 01             	sub    eax,0x1
    184f:	89 45 f8             	mov    DWORD PTR [rbp-0x8],eax
    1852:	eb 04                	jmp    1858 <str_strip+0x46>
    1854:	83 45 fc 01          	add    DWORD PTR [rbp-0x4],0x1
    1858:	8b 45 fc             	mov    eax,DWORD PTR [rbp-0x4]
    185b:	3b 45 ec             	cmp    eax,DWORD PTR [rbp-0x14]
    185e:	7d 2e                	jge    188e <str_strip+0x7c>
    1860:	8b 45 fc             	mov    eax,DWORD PTR [rbp-0x4]
    1863:	48 63 d0             	movsxd rdx,eax
    1866:	48 8b 45 d8          	mov    rax,QWORD PTR [rbp-0x28]
    186a:	48 01 d0             	add    rax,rdx
    186d:	0f b6 00             	movzx  eax,BYTE PTR [rax]
    1870:	3c 20                	cmp    al,0x20
    1872:	74 e0                	je     1854 <str_strip+0x42>
    1874:	8b 45 fc             	mov    eax,DWORD PTR [rbp-0x4]
    1877:	48 63 d0             	movsxd rdx,eax
    187a:	48 8b 45 d8          	mov    rax,QWORD PTR [rbp-0x28]
    187e:	48 01 d0             	add    rax,rdx
    1881:	0f b6 00             	movzx  eax,BYTE PTR [rax]
    1884:	3c 09                	cmp    al,0x9
    1886:	74 cc                	je     1854 <str_strip+0x42>
    1888:	eb 04                	jmp    188e <str_strip+0x7c>
    188a:	83 6d f8 01          	sub    DWORD PTR [rbp-0x8],0x1
    188e:	8b 45 f8             	mov    eax,DWORD PTR [rbp-0x8]
    1891:	3b 45 fc             	cmp    eax,DWORD PTR [rbp-0x4]
    1894:	7c 28                	jl     18be <str_strip+0xac>
    1896:	8b 45 f8             	mov    eax,DWORD PTR [rbp-0x8]
    1899:	48 63 d0             	movsxd rdx,eax
    189c:	48 8b 45 d8          	mov    rax,QWORD PTR [rbp-0x28]
    18a0:	48 01 d0             	add    rax,rdx
    18a3:	0f b6 00             	movzx  eax,BYTE PTR [rax]
    18a6:	3c 20                	cmp    al,0x20
    18a8:	74 e0                	je     188a <str_strip+0x78>
    18aa:	8b 45 f8             	mov    eax,DWORD PTR [rbp-0x8]
    18ad:	48 63 d0             	movsxd rdx,eax
    18b0:	48 8b 45 d8          	mov    rax,QWORD PTR [rbp-0x28]
    18b4:	48 01 d0             	add    rax,rdx
    18b7:	0f b6 00             	movzx  eax,BYTE PTR [rax]
    18ba:	3c 09                	cmp    al,0x9
    18bc:	74 cc                	je     188a <str_strip+0x78>
    18be:	c7 45 f4 00 00 00 00 	mov    DWORD PTR [rbp-0xc],0x0
    18c5:	8b 45 fc             	mov    eax,DWORD PTR [rbp-0x4]
    18c8:	89 45 f0             	mov    DWORD PTR [rbp-0x10],eax
    18cb:	eb 2a                	jmp    18f7 <str_strip+0xe5>
    18cd:	8b 45 f0             	mov    eax,DWORD PTR [rbp-0x10]
    18d0:	48 63 d0             	movsxd rdx,eax
    18d3:	48 8b 45 d8          	mov    rax,QWORD PTR [rbp-0x28]
    18d7:	48 8d 0c 02          	lea    rcx,[rdx+rax*1]
    18db:	8b 45 f4             	mov    eax,DWORD PTR [rbp-0xc]
    18de:	8d 50 01             	lea    edx,[rax+0x1]
    18e1:	89 55 f4             	mov    DWORD PTR [rbp-0xc],edx
    18e4:	48 63 d0             	movsxd rdx,eax
    18e7:	48 8b 45 d8          	mov    rax,QWORD PTR [rbp-0x28]
    18eb:	48 01 c2             	add    rdx,rax
    18ee:	0f b6 01             	movzx  eax,BYTE PTR [rcx]
    18f1:	88 02                	mov    BYTE PTR [rdx],al
    18f3:	83 45 f0 01          	add    DWORD PTR [rbp-0x10],0x1
    18f7:	8b 45 f0             	mov    eax,DWORD PTR [rbp-0x10]
    18fa:	3b 45 f8             	cmp    eax,DWORD PTR [rbp-0x8]
    18fd:	7e ce                	jle    18cd <str_strip+0xbb>
    18ff:	8b 45 f4             	mov    eax,DWORD PTR [rbp-0xc]
    1902:	48 63 d0             	movsxd rdx,eax
    1905:	48 8b 45 d8          	mov    rax,QWORD PTR [rbp-0x28]
    1909:	48 01 d0             	add    rax,rdx
    190c:	c6 00 00             	mov    BYTE PTR [rax],0x0
    190f:	b8 01 00 00 00       	mov    eax,0x1
    1914:	c9                   	leave
    1915:	c3                   	ret

0000000000001916 <float_to_str>:
    1916:	f3 0f 1e fa          	endbr64
    191a:	55                   	push   rbp
    191b:	48 89 e5             	mov    rbp,rsp
    191e:	f2 0f 11 45 b8       	movsd  QWORD PTR [rbp-0x48],xmm0
    1923:	48 89 7d b0          	mov    QWORD PTR [rbp-0x50],rdi
    1927:	89 75 ac             	mov    DWORD PTR [rbp-0x54],esi
    192a:	c7 45 fc 00 00 00 00 	mov    DWORD PTR [rbp-0x4],0x0
    1931:	66 0f ef c0          	pxor   xmm0,xmm0
    1935:	66 0f 2f 45 b8       	comisd xmm0,QWORD PTR [rbp-0x48]
    193a:	76 2c                	jbe    1968 <float_to_str+0x52>
    193c:	8b 45 fc             	mov    eax,DWORD PTR [rbp-0x4]
    193f:	8d 50 01             	lea    edx,[rax+0x1]
    1942:	89 55 fc             	mov    DWORD PTR [rbp-0x4],edx
    1945:	48 63 d0             	movsxd rdx,eax
    1948:	48 8b 45 b0          	mov    rax,QWORD PTR [rbp-0x50]
    194c:	48 01 d0             	add    rax,rdx
    194f:	c6 00 2d             	mov    BYTE PTR [rax],0x2d
    1952:	f2 0f 10 45 b8       	movsd  xmm0,QWORD PTR [rbp-0x48]
    1957:	f3 0f 7e 0d 00 00 00 	movq   xmm1,QWORD PTR [rip+0x0]        # 195f <float_to_str+0x49>
    195e:	00 
    195f:	66 0f 57 c1          	xorpd  xmm0,xmm1
    1963:	f2 0f 11 45 b8       	movsd  QWORD PTR [rbp-0x48],xmm0
    1968:	f2 0f 10 45 b8       	movsd  xmm0,QWORD PTR [rbp-0x48]
    196d:	f2 48 0f 2c c0       	cvttsd2si rax,xmm0
    1972:	48 89 45 f0          	mov    QWORD PTR [rbp-0x10],rax
    1976:	66 0f ef c9          	pxor   xmm1,xmm1
    197a:	f2 48 0f 2a 4d f0    	cvtsi2sd xmm1,QWORD PTR [rbp-0x10]
    1980:	f2 0f 10 45 b8       	movsd  xmm0,QWORD PTR [rbp-0x48]
    1985:	f2 0f 5c c1          	subsd  xmm0,xmm1
    1989:	f2 0f 11 45 e8       	movsd  QWORD PTR [rbp-0x18],xmm0
    198e:	c7 45 e4 00 00 00 00 	mov    DWORD PTR [rbp-0x1c],0x0
    1995:	48 83 7d f0 00       	cmp    QWORD PTR [rbp-0x10],0x0
    199a:	0f 85 86 00 00 00    	jne    1a26 <float_to_str+0x110>
    19a0:	8b 45 e4             	mov    eax,DWORD PTR [rbp-0x1c]
    19a3:	8d 50 01             	lea    edx,[rax+0x1]
    19a6:	89 55 e4             	mov    DWORD PTR [rbp-0x1c],edx
    19a9:	48 98                	cdqe
    19ab:	c6 44 05 c0 30       	mov    BYTE PTR [rbp+rax*1-0x40],0x30
    19b0:	eb 74                	jmp    1a26 <float_to_str+0x110>
    19b2:	48 8b 4d f0          	mov    rcx,QWORD PTR [rbp-0x10]
    19b6:	48 ba 67 66 66 66 66 	movabs rdx,0x6666666666666667
    19bd:	66 66 66 
    19c0:	48 89 c8             	mov    rax,rcx
    19c3:	48 f7 ea             	imul   rdx
    19c6:	48 c1 fa 02          	sar    rdx,0x2
    19ca:	48 89 c8             	mov    rax,rcx
    19cd:	48 c1 f8 3f          	sar    rax,0x3f
    19d1:	48 29 c2             	sub    rdx,rax
    19d4:	48 89 d0             	mov    rax,rdx
    19d7:	48 c1 e0 02          	shl    rax,0x2
    19db:	48 01 d0             	add    rax,rdx
    19de:	48 01 c0             	add    rax,rax
    19e1:	48 29 c1             	sub    rcx,rax
    19e4:	48 89 ca             	mov    rdx,rcx
    19e7:	89 d0                	mov    eax,edx
    19e9:	8d 48 30             	lea    ecx,[rax+0x30]
    19ec:	8b 45 e4             	mov    eax,DWORD PTR [rbp-0x1c]
    19ef:	8d 50 01             	lea    edx,[rax+0x1]
    19f2:	89 55 e4             	mov    DWORD PTR [rbp-0x1c],edx
    19f5:	89 ca                	mov    edx,ecx
    19f7:	48 98                	cdqe
    19f9:	88 54 05 c0          	mov    BYTE PTR [rbp+rax*1-0x40],dl
    19fd:	48 8b 4d f0          	mov    rcx,QWORD PTR [rbp-0x10]
    1a01:	48 ba 67 66 66 66 66 	movabs rdx,0x6666666666666667
    1a08:	66 66 66 
    1a0b:	48 89 c8             	mov    rax,rcx
    1a0e:	48 f7 ea             	imul   rdx
    1a11:	48 89 d0             	mov    rax,rdx
    1a14:	48 c1 f8 02          	sar    rax,0x2
    1a18:	48 c1 f9 3f          	sar    rcx,0x3f
    1a1c:	48 89 ca             	mov    rdx,rcx
    1a1f:	48 29 d0             	sub    rax,rdx
    1a22:	48 89 45 f0          	mov    QWORD PTR [rbp-0x10],rax
    1a26:	48 83 7d f0 00       	cmp    QWORD PTR [rbp-0x10],0x0
    1a2b:	7f 85                	jg     19b2 <float_to_str+0x9c>
    1a2d:	eb 1f                	jmp    1a4e <float_to_str+0x138>
    1a2f:	8b 45 fc             	mov    eax,DWORD PTR [rbp-0x4]
    1a32:	8d 50 01             	lea    edx,[rax+0x1]
    1a35:	89 55 fc             	mov    DWORD PTR [rbp-0x4],edx
    1a38:	48 63 d0             	movsxd rdx,eax
    1a3b:	48 8b 45 b0          	mov    rax,QWORD PTR [rbp-0x50]
    1a3f:	48 01 c2             	add    rdx,rax
    1a42:	8b 45 e4             	mov    eax,DWORD PTR [rbp-0x1c]
    1a45:	48 98                	cdqe
    1a47:	0f b6 44 05 c0       	movzx  eax,BYTE PTR [rbp+rax*1-0x40]
    1a4c:	88 02                	mov    BYTE PTR [rdx],al
    1a4e:	8b 45 e4             	mov    eax,DWORD PTR [rbp-0x1c]
    1a51:	8d 50 ff             	lea    edx,[rax-0x1]
    1a54:	89 55 e4             	mov    DWORD PTR [rbp-0x1c],edx
    1a57:	85 c0                	test   eax,eax
    1a59:	75 d4                	jne    1a2f <float_to_str+0x119>
    1a5b:	83 7d ac 00          	cmp    DWORD PTR [rbp-0x54],0x0
    1a5f:	7e 7b                	jle    1adc <float_to_str+0x1c6>
    1a61:	8b 45 fc             	mov    eax,DWORD PTR [rbp-0x4]
    1a64:	8d 50 01             	lea    edx,[rax+0x1]
    1a67:	89 55 fc             	mov    DWORD PTR [rbp-0x4],edx
    1a6a:	48 63 d0             	movsxd rdx,eax
    1a6d:	48 8b 45 b0          	mov    rax,QWORD PTR [rbp-0x50]
    1a71:	48 01 d0             	add    rax,rdx
    1a74:	c6 00 2e             	mov    BYTE PTR [rax],0x2e
    1a77:	eb 56                	jmp    1acf <float_to_str+0x1b9>
    1a79:	f2 0f 10 4d e8       	movsd  xmm1,QWORD PTR [rbp-0x18]
    1a7e:	f2 0f 10 05 00 00 00 	movsd  xmm0,QWORD PTR [rip+0x0]        # 1a86 <float_to_str+0x170>
    1a85:	00 
    1a86:	f2 0f 59 c1          	mulsd  xmm0,xmm1
    1a8a:	f2 0f 11 45 e8       	movsd  QWORD PTR [rbp-0x18],xmm0
    1a8f:	f2 0f 10 45 e8       	movsd  xmm0,QWORD PTR [rbp-0x18]
    1a94:	f2 0f 2c c0          	cvttsd2si eax,xmm0
    1a98:	89 45 e0             	mov    DWORD PTR [rbp-0x20],eax
    1a9b:	8b 45 e0             	mov    eax,DWORD PTR [rbp-0x20]
    1a9e:	8d 48 30             	lea    ecx,[rax+0x30]
    1aa1:	8b 45 fc             	mov    eax,DWORD PTR [rbp-0x4]
    1aa4:	8d 50 01             	lea    edx,[rax+0x1]
    1aa7:	89 55 fc             	mov    DWORD PTR [rbp-0x4],edx
    1aaa:	48 63 d0             	movsxd rdx,eax
    1aad:	48 8b 45 b0          	mov    rax,QWORD PTR [rbp-0x50]
    1ab1:	48 01 d0             	add    rax,rdx
    1ab4:	89 ca                	mov    edx,ecx
    1ab6:	88 10                	mov    BYTE PTR [rax],dl
    1ab8:	66 0f ef c9          	pxor   xmm1,xmm1
    1abc:	f2 0f 2a 4d e0       	cvtsi2sd xmm1,DWORD PTR [rbp-0x20]
    1ac1:	f2 0f 10 45 e8       	movsd  xmm0,QWORD PTR [rbp-0x18]
    1ac6:	f2 0f 5c c1          	subsd  xmm0,xmm1
    1aca:	f2 0f 11 45 e8       	movsd  QWORD PTR [rbp-0x18],xmm0
    1acf:	8b 45 ac             	mov    eax,DWORD PTR [rbp-0x54]
    1ad2:	8d 50 ff             	lea    edx,[rax-0x1]
    1ad5:	89 55 ac             	mov    DWORD PTR [rbp-0x54],edx
    1ad8:	85 c0                	test   eax,eax
    1ada:	75 9d                	jne    1a79 <float_to_str+0x163>
    1adc:	8b 45 fc             	mov    eax,DWORD PTR [rbp-0x4]
    1adf:	48 63 d0             	movsxd rdx,eax
    1ae2:	48 8b 45 b0          	mov    rax,QWORD PTR [rbp-0x50]
    1ae6:	48 01 d0             	add    rax,rdx
    1ae9:	c6 00 00             	mov    BYTE PTR [rax],0x0
    1aec:	90                   	nop
    1aed:	5d                   	pop    rbp
    1aee:	c3                   	ret

0000000000001aef <str_remove_substr_idx>:
    1aef:	f3 0f 1e fa          	endbr64
    1af3:	55                   	push   rbp
    1af4:	48 89 e5             	mov    rbp,rsp
    1af7:	53                   	push   rbx
    1af8:	48 83 ec 38          	sub    rsp,0x38
    1afc:	48 89 7d c8          	mov    QWORD PTR [rbp-0x38],rdi
    1b00:	89 75 c4             	mov    DWORD PTR [rbp-0x3c],esi
    1b03:	89 55 c0             	mov    DWORD PTR [rbp-0x40],edx
    1b06:	48 89 e0             	mov    rax,rsp
    1b09:	48 89 c3             	mov    rbx,rax
    1b0c:	48 83 7d c8 00       	cmp    QWORD PTR [rbp-0x38],0x0
    1b11:	75 0a                	jne    1b1d <str_remove_substr_idx+0x2e>
    1b13:	b8 00 00 00 00       	mov    eax,0x0
    1b18:	e9 23 01 00 00       	jmp    1c40 <str_remove_substr_idx+0x151>
    1b1d:	8b 45 c4             	mov    eax,DWORD PTR [rbp-0x3c]
    1b20:	3b 45 c0             	cmp    eax,DWORD PTR [rbp-0x40]
    1b23:	7c 0a                	jl     1b2f <str_remove_substr_idx+0x40>
    1b25:	b8 00 00 00 00       	mov    eax,0x0
    1b2a:	e9 11 01 00 00       	jmp    1c40 <str_remove_substr_idx+0x151>
    1b2f:	48 8b 45 c8          	mov    rax,QWORD PTR [rbp-0x38]
    1b33:	48 89 c7             	mov    rdi,rax
    1b36:	e8 00 00 00 00       	call   1b3b <str_remove_substr_idx+0x4c>
    1b3b:	89 45 e8             	mov    DWORD PTR [rbp-0x18],eax
    1b3e:	8b 45 c0             	mov    eax,DWORD PTR [rbp-0x40]
    1b41:	2b 45 c4             	sub    eax,DWORD PTR [rbp-0x3c]
    1b44:	8b 55 e8             	mov    edx,DWORD PTR [rbp-0x18]
    1b47:	29 c2                	sub    edx,eax
    1b49:	89 55 e4             	mov    DWORD PTR [rbp-0x1c],edx
    1b4c:	8b 45 e4             	mov    eax,DWORD PTR [rbp-0x1c]
    1b4f:	48 63 d0             	movsxd rdx,eax
    1b52:	48 83 ea 01          	sub    rdx,0x1
    1b56:	48 89 55 d8          	mov    QWORD PTR [rbp-0x28],rdx
    1b5a:	48 98                	cdqe
    1b5c:	ba 10 00 00 00       	mov    edx,0x10
    1b61:	48 83 ea 01          	sub    rdx,0x1
    1b65:	48 01 d0             	add    rax,rdx
    1b68:	be 10 00 00 00       	mov    esi,0x10
    1b6d:	ba 00 00 00 00       	mov    edx,0x0
    1b72:	48 f7 f6             	div    rsi
    1b75:	48 6b c0 10          	imul   rax,rax,0x10
    1b79:	48 89 c1             	mov    rcx,rax
    1b7c:	48 81 e1 00 f0 ff ff 	and    rcx,0xfffffffffffff000
    1b83:	48 89 e2             	mov    rdx,rsp
    1b86:	48 29 ca             	sub    rdx,rcx
    1b89:	48 39 d4             	cmp    rsp,rdx
    1b8c:	74 12                	je     1ba0 <str_remove_substr_idx+0xb1>
    1b8e:	48 81 ec 00 10 00 00 	sub    rsp,0x1000
    1b95:	48 83 8c 24 f8 0f 00 	or     QWORD PTR [rsp+0xff8],0x0
    1b9c:	00 00 
    1b9e:	eb e9                	jmp    1b89 <str_remove_substr_idx+0x9a>
    1ba0:	48 89 c2             	mov    rdx,rax
    1ba3:	81 e2 ff 0f 00 00    	and    edx,0xfff
    1ba9:	48 29 d4             	sub    rsp,rdx
    1bac:	48 89 c2             	mov    rdx,rax
    1baf:	81 e2 ff 0f 00 00    	and    edx,0xfff
    1bb5:	48 85 d2             	test   rdx,rdx
    1bb8:	74 10                	je     1bca <str_remove_substr_idx+0xdb>
    1bba:	25 ff 0f 00 00       	and    eax,0xfff
    1bbf:	48 83 e8 08          	sub    rax,0x8
    1bc3:	48 01 e0             	add    rax,rsp
    1bc6:	48 83 08 00          	or     QWORD PTR [rax],0x0
    1bca:	48 89 e0             	mov    rax,rsp
    1bcd:	48 89 45 d0          	mov    QWORD PTR [rbp-0x30],rax
    1bd1:	c7 45 ec 00 00 00 00 	mov    DWORD PTR [rbp-0x14],0x0
    1bd8:	eb 33                	jmp    1c0d <str_remove_substr_idx+0x11e>
    1bda:	8b 45 ec             	mov    eax,DWORD PTR [rbp-0x14]
    1bdd:	3b 45 c4             	cmp    eax,DWORD PTR [rbp-0x3c]
    1be0:	7f 26                	jg     1c08 <str_remove_substr_idx+0x119>
    1be2:	8b 45 ec             	mov    eax,DWORD PTR [rbp-0x14]
    1be5:	3b 45 c0             	cmp    eax,DWORD PTR [rbp-0x40]
    1be8:	7c 1e                	jl     1c08 <str_remove_substr_idx+0x119>
    1bea:	8b 45 ec             	mov    eax,DWORD PTR [rbp-0x14]
    1bed:	48 63 d0             	movsxd rdx,eax
    1bf0:	48 8b 45 c8          	mov    rax,QWORD PTR [rbp-0x38]
    1bf4:	48 01 d0             	add    rax,rdx
    1bf7:	0f b6 08             	movzx  ecx,BYTE PTR [rax]
    1bfa:	48 8b 55 d0          	mov    rdx,QWORD PTR [rbp-0x30]
    1bfe:	8b 45 ec             	mov    eax,DWORD PTR [rbp-0x14]
    1c01:	48 98                	cdqe
    1c03:	88 0c 02             	mov    BYTE PTR [rdx+rax*1],cl
    1c06:	eb 01                	jmp    1c09 <str_remove_substr_idx+0x11a>
    1c08:	90                   	nop
    1c09:	83 45 ec 01          	add    DWORD PTR [rbp-0x14],0x1
    1c0d:	8b 45 ec             	mov    eax,DWORD PTR [rbp-0x14]
    1c10:	3b 45 e8             	cmp    eax,DWORD PTR [rbp-0x18]
    1c13:	7c c5                	jl     1bda <str_remove_substr_idx+0xeb>
    1c15:	48 8b 55 d0          	mov    rdx,QWORD PTR [rbp-0x30]
    1c19:	8b 45 e4             	mov    eax,DWORD PTR [rbp-0x1c]
    1c1c:	48 98                	cdqe
    1c1e:	c6 04 02 00          	mov    BYTE PTR [rdx+rax*1],0x0
    1c22:	8b 45 e4             	mov    eax,DWORD PTR [rbp-0x1c]
    1c25:	48 63 d0             	movsxd rdx,eax
    1c28:	48 8b 4d d0          	mov    rcx,QWORD PTR [rbp-0x30]
    1c2c:	48 8b 45 c8          	mov    rax,QWORD PTR [rbp-0x38]
    1c30:	48 89 ce             	mov    rsi,rcx
    1c33:	48 89 c7             	mov    rdi,rax
    1c36:	e8 00 00 00 00       	call   1c3b <str_remove_substr_idx+0x14c>
    1c3b:	b8 01 00 00 00       	mov    eax,0x1
    1c40:	48 89 dc             	mov    rsp,rbx
    1c43:	48 8b 5d f8          	mov    rbx,QWORD PTR [rbp-0x8]
    1c47:	c9                   	leave
    1c48:	c3                   	ret

thread.o:     file format elf64-x86-64


Disassembly of section .text:

0000000000000000 <_start_thread>:
   0:	f3 0f 1e fa          	endbr64
   4:	55                   	push   rbp
   5:	48 89 e5             	mov    rbp,rsp
   8:	41 55                	push   r13
   a:	48 83 ec 38          	sub    rsp,0x38
   e:	48 89 7d c8          	mov    QWORD PTR [rbp-0x38],rdi
  12:	48 89 75 c0          	mov    QWORD PTR [rbp-0x40],rsi
  16:	48 83 ec 08          	sub    rsp,0x8
  1a:	6a 09                	push   0x9
  1c:	41 b9 00 00 00 00    	mov    r9d,0x0
  22:	49 c7 c0 ff ff ff ff 	mov    r8,0xffffffffffffffff
  29:	b9 22 00 00 00       	mov    ecx,0x22
  2e:	ba 03 00 00 00       	mov    edx,0x3
  33:	be 00 00 01 00       	mov    esi,0x10000
  38:	bf 00 00 00 00       	mov    edi,0x0
  3d:	e8 00 00 00 00       	call   42 <_start_thread+0x42>
  42:	48 83 c4 10          	add    rsp,0x10
  46:	48 89 45 e8          	mov    QWORD PTR [rbp-0x18],rax
  4a:	48 8b 45 e8          	mov    rax,QWORD PTR [rbp-0x18]
  4e:	48 05 00 00 01 00    	add    rax,0x10000
  54:	48 89 45 e0          	mov    QWORD PTR [rbp-0x20],rax
  58:	48 8b 45 e0          	mov    rax,QWORD PTR [rbp-0x20]
  5c:	48 83 e0 f0          	and    rax,0xfffffffffffffff0
  60:	48 89 45 e0          	mov    QWORD PTR [rbp-0x20],rax
  64:	48 83 6d e0 08       	sub    QWORD PTR [rbp-0x20],0x8
  69:	48 83 6d e0 08       	sub    QWORD PTR [rbp-0x20],0x8
  6e:	48 8b 45 e0          	mov    rax,QWORD PTR [rbp-0x20]
  72:	48 8b 55 c8          	mov    rdx,QWORD PTR [rbp-0x38]
  76:	48 89 10             	mov    QWORD PTR [rax],rdx
  79:	48 83 6d e0 08       	sub    QWORD PTR [rbp-0x20],0x8
  7e:	48 8b 45 e0          	mov    rax,QWORD PTR [rbp-0x20]
  82:	48 8b 55 c0          	mov    rdx,QWORD PTR [rbp-0x40]
  86:	48 89 10             	mov    QWORD PTR [rax],rdx
  89:	4c 8b 6d c0          	mov    r13,QWORD PTR [rbp-0x40]
  8d:	48 8b 45 e0          	mov    rax,QWORD PTR [rbp-0x20]
  91:	48 83 ec 08          	sub    rsp,0x8
  95:	6a 38                	push   0x38
  97:	41 b9 00 00 00 00    	mov    r9d,0x0
  9d:	41 b8 00 00 00 00    	mov    r8d,0x0
  a3:	b9 00 00 00 00       	mov    ecx,0x0
  a8:	ba 00 00 00 00       	mov    edx,0x0
  ad:	48 89 c6             	mov    rsi,rax
  b0:	bf 00 0f 01 00       	mov    edi,0x10f00
  b5:	e8 00 00 00 00       	call   ba <_start_thread+0xba>
  ba:	48 83 c4 10          	add    rsp,0x10
  be:	48 89 45 d8          	mov    QWORD PTR [rbp-0x28],rax
  c2:	48 83 7d d8 00       	cmp    QWORD PTR [rbp-0x28],0x0
  c7:	75 37                	jne    100 <_start_thread+0x100>
  c9:	48 83 ec 08          	sub    rsp,0x8
  cd:	6a 3c                	push   0x3c
  cf:	49 c7 c1 ff ff ff ff 	mov    r9,0xffffffffffffffff
  d6:	49 c7 c0 ff ff ff ff 	mov    r8,0xffffffffffffffff
  dd:	48 c7 c1 ff ff ff ff 	mov    rcx,0xffffffffffffffff
  e4:	48 c7 c2 ff ff ff ff 	mov    rdx,0xffffffffffffffff
  eb:	48 c7 c6 ff ff ff ff 	mov    rsi,0xffffffffffffffff
  f2:	bf 00 00 00 00       	mov    edi,0x0
  f7:	e8 00 00 00 00       	call   fc <_start_thread+0xfc>
  fc:	48 83 c4 10          	add    rsp,0x10
 100:	48 8b 45 d8          	mov    rax,QWORD PTR [rbp-0x28]
 104:	4c 8b 6d f8          	mov    r13,QWORD PTR [rbp-0x8]
 108:	c9                   	leave
 109:	c3                   	ret

utils.o:     file format elf64-x86-64


Disassembly of section .text:

0000000000000000 <_usleep>:
   0:	f3 0f 1e fa          	endbr64
   4:	55                   	push   rbp
   5:	48 89 e5             	mov    rbp,rsp
   8:	48 83 ec 20          	sub    rsp,0x20
   c:	89 7d ec             	mov    DWORD PTR [rbp-0x14],edi
   f:	48 c7 45 f0 00 00 00 	mov    QWORD PTR [rbp-0x10],0x0
  16:	00 
  17:	8b 45 ec             	mov    eax,DWORD PTR [rbp-0x14]
  1a:	48 98                	cdqe
  1c:	48 89 45 f8          	mov    QWORD PTR [rbp-0x8],rax
  20:	48 8d 45 f0          	lea    rax,[rbp-0x10]
  24:	48 83 ec 08          	sub    rsp,0x8
  28:	6a 23                	push   0x23
  2a:	41 b9 00 00 00 00    	mov    r9d,0x0
  30:	41 b8 00 00 00 00    	mov    r8d,0x0
  36:	b9 00 00 00 00       	mov    ecx,0x0
  3b:	ba 00 00 00 00       	mov    edx,0x0
  40:	be 00 00 00 00       	mov    esi,0x0
  45:	48 89 c7             	mov    rdi,rax
  48:	e8 00 00 00 00       	call   4d <_usleep+0x4d>
  4d:	48 83 c4 10          	add    rsp,0x10
  51:	90                   	nop
  52:	c9                   	leave
  53:	c3                   	ret

0000000000000054 <_sleep>:
  54:	f3 0f 1e fa          	endbr64
  58:	55                   	push   rbp
  59:	48 89 e5             	mov    rbp,rsp
  5c:	48 83 ec 20          	sub    rsp,0x20
  60:	89 7d ec             	mov    DWORD PTR [rbp-0x14],edi
  63:	8b 45 ec             	mov    eax,DWORD PTR [rbp-0x14]
  66:	48 98                	cdqe
  68:	48 89 45 f0          	mov    QWORD PTR [rbp-0x10],rax
  6c:	48 c7 45 f8 00 00 00 	mov    QWORD PTR [rbp-0x8],0x0
  73:	00 
  74:	48 8d 45 f0          	lea    rax,[rbp-0x10]
  78:	48 83 ec 08          	sub    rsp,0x8
  7c:	6a 23                	push   0x23
  7e:	41 b9 00 00 00 00    	mov    r9d,0x0
  84:	41 b8 00 00 00 00    	mov    r8d,0x0
  8a:	b9 00 00 00 00       	mov    ecx,0x0
  8f:	ba 00 00 00 00       	mov    edx,0x0
  94:	be 00 00 00 00       	mov    esi,0x0
  99:	48 89 c7             	mov    rdi,rax
  9c:	e8 00 00 00 00       	call   a1 <_sleep+0x4d>
  a1:	48 83 c4 10          	add    rsp,0x10
  a5:	90                   	nop
  a6:	c9                   	leave
  a7:	c3                   	ret
